Archive member included to satisfy reference by file (symbol)

c:/program files/microchip/xc32/v4.35/bin/bin/../../lib/gcc/pic32c/8.3.1/arm/v5te/nofp\libgcc.a(_udivsi3.o)
                              build/dsi_xlcdc_rgba8888_ws_9x75_curiosity_720x720_round/debug/_ext/2010836581/gfx_canvas.o (__aeabi_uidiv)
c:/program files/microchip/xc32/v4.35/bin/bin/../../lib/gcc/pic32c/8.3.1/arm/v5te/nofp\libgcc.a(_divsi3.o)
                              build/dsi_xlcdc_rgba8888_ws_9x75_curiosity_720x720_round/debug/_ext/105237591/legato_math.o (__aeabi_idiv)
c:/program files/microchip/xc32/v4.35/bin/bin/../../lib/gcc/pic32c/8.3.1/arm/v5te/nofp\libgcc.a(_dvmd_tls.o)
                              c:/program files/microchip/xc32/v4.35/bin/bin/../../lib/gcc/pic32c/8.3.1/arm/v5te/nofp\libgcc.a(_udivsi3.o) (__aeabi_idiv0)
c:/program files/microchip/xc32/v4.35/bin/bin/../../lib/gcc/pic32c/8.3.1/arm/v5te/nofp\libgcc.a(_arm_addsubsf3.o)
                              build/dsi_xlcdc_rgba8888_ws_9x75_curiosity_720x720_round/debug/_ext/105237591/legato_math.o (__aeabi_fsub)
c:/program files/microchip/xc32/v4.35/bin/bin/../../lib/gcc/pic32c/8.3.1/arm/v5te/nofp\libgcc.a(_arm_muldivsf3.o)
                              build/dsi_xlcdc_rgba8888_ws_9x75_curiosity_720x720_round/debug/_ext/1085405985/ws_touch_display.o (__aeabi_fmul)
c:/program files/microchip/xc32/v4.35/bin/bin/../../lib/gcc/pic32c/8.3.1/arm/v5te/nofp\libgcc.a(_arm_cmpsf2.o)
                              build/dsi_xlcdc_rgba8888_ws_9x75_curiosity_720x720_round/debug/_ext/105237591/legato_math.o (__aeabi_fcmplt)
c:/program files/microchip/xc32/v4.35/bin/bin/../../lib/gcc/pic32c/8.3.1/arm/v5te/nofp\libgcc.a(_arm_fixsfsi.o)
                              build/dsi_xlcdc_rgba8888_ws_9x75_curiosity_720x720_round/debug/_ext/1966656405/gfx_driver.o (__aeabi_f2iz)
c:/program files/microchip/xc32/v4.35/bin/bin/../../lib/gcc/pic32c/8.3.1/arm/v5te/nofp\libgcc.a(_arm_fixunssfsi.o)
                              build/dsi_xlcdc_rgba8888_ws_9x75_curiosity_720x720_round/debug/_ext/1085405985/ws_touch_display.o (__aeabi_f2uiz)
c:/program files/microchip/xc32/v4.35/bin/bin/../../lib/gcc/pic32c/8.3.1/arm/v5te/nofp\libgcc.a(_aeabi_ldivmod.o)
                              build/dsi_xlcdc_rgba8888_ws_9x75_curiosity_720x720_round/debug/_ext/690637493/sys_time.o (__aeabi_ldivmod)
c:/program files/microchip/xc32/v4.35/bin/bin/../../lib/gcc/pic32c/8.3.1/arm/v5te/nofp\libgcc.a(_aeabi_uldivmod.o)
                              build/dsi_xlcdc_rgba8888_ws_9x75_curiosity_720x720_round/debug/_ext/690637493/sys_time.o (__aeabi_uldivmod)
c:/program files/microchip/xc32/v4.35/bin/bin/../../lib/gcc/pic32c/8.3.1/arm/v5te/nofp\libgcc.a(_udivmoddi4.o)
                              c:/program files/microchip/xc32/v4.35/bin/bin/../../lib/gcc/pic32c/8.3.1/arm/v5te/nofp\libgcc.a(_aeabi_ldivmod.o) (__udivmoddi4)
c:/program files/microchip/xc32/v4.35/bin/bin/../../lib/gcc/pic32c/8.3.1/../../../../pic32c/lib/arm/v5te/nofp\libm-musl.a(atan.o)
                              build/dsi_xlcdc_rgba8888_ws_9x75_curiosity_720x720_round/debug/_ext/105237591/legato_math.o (atan)
c:/program files/microchip/xc32/v4.35/bin/bin/../../lib/gcc/pic32c/8.3.1/../../../../pic32c/lib/arm/v5te/nofp\libm-musl.a(fabs.o)
                              c:/program files/microchip/xc32/v4.35/bin/bin/../../lib/gcc/pic32c/8.3.1/../../../../pic32c/lib/arm/v5te/nofp\libm-musl.a(atan.o) (fabs)
c:/program files/microchip/xc32/v4.35/bin/bin/../../lib/gcc/pic32c/8.3.1/../../../../pic32c/lib/arm/v5te/nofp\libg-musl.a(__libc_start_main.o)
                              build/dsi_xlcdc_rgba8888_ws_9x75_curiosity_720x720_round/debug/_ext/1295507646/cstartup.o (__libc_init_array)
c:/program files/microchip/xc32/v4.35/bin/bin/../../lib/gcc/pic32c/8.3.1/../../../../pic32c/lib/arm/v5te/nofp\libg-musl.a(libc.o)
                              c:/program files/microchip/xc32/v4.35/bin/bin/../../lib/gcc/pic32c/8.3.1/../../../../pic32c/lib/arm/v5te/nofp\libg-musl.a(__libc_start_main.o) (__progname_full)
c:/program files/microchip/xc32/v4.35/bin/bin/../../lib/gcc/pic32c/8.3.1/../../../../pic32c/lib/arm/v5te/nofp\libg-musl.a(__sio_printf_dnpuxX.o)
                              (_printf_dnpuxX)
c:/program files/microchip/xc32/v4.35/bin/bin/../../lib/gcc/pic32c/8.3.1/../../../../pic32c/lib/arm/v5te/nofp\libg-musl.a(__sio_sprintf_dnpuxX.o)
                              (_sprintf_dnpuxX)
c:/program files/microchip/xc32/v4.35/bin/bin/../../lib/gcc/pic32c/8.3.1/../../../../pic32c/lib/arm/v5te/nofp\libg-musl.a(__fmt_d.o)
                              c:/program files/microchip/xc32/v4.35/bin/bin/../../lib/gcc/pic32c/8.3.1/../../../../pic32c/lib/arm/v5te/nofp\libg-musl.a(__sio_printf_dnpuxX.o) (__fmt_d_needed)
c:/program files/microchip/xc32/v4.35/bin/bin/../../lib/gcc/pic32c/8.3.1/../../../../pic32c/lib/arm/v5te/nofp\libg-musl.a(__fmt_u.o)
                              c:/program files/microchip/xc32/v4.35/bin/bin/../../lib/gcc/pic32c/8.3.1/../../../../pic32c/lib/arm/v5te/nofp\libg-musl.a(__sio_printf_dnpuxX.o) (__fmt_u_needed)
c:/program files/microchip/xc32/v4.35/bin/bin/../../lib/gcc/pic32c/8.3.1/../../../../pic32c/lib/arm/v5te/nofp\libg-musl.a(__fmt_x.o)
                              c:/program files/microchip/xc32/v4.35/bin/bin/../../lib/gcc/pic32c/8.3.1/../../../../pic32c/lib/arm/v5te/nofp\libg-musl.a(__sio_printf_dnpuxX.o) (__fmt_x_needed)
c:/program files/microchip/xc32/v4.35/bin/bin/../../lib/gcc/pic32c/8.3.1/../../../../pic32c/lib/arm/v5te/nofp\libg-musl.a(__pop_int.o)
                              c:/program files/microchip/xc32/v4.35/bin/bin/../../lib/gcc/pic32c/8.3.1/../../../../pic32c/lib/arm/v5te/nofp\libg-musl.a(__sio_printf_dnpuxX.o) (__pop_int_needed)
c:/program files/microchip/xc32/v4.35/bin/bin/../../lib/gcc/pic32c/8.3.1/../../../../pic32c/lib/arm/v5te/nofp\libg-musl.a(__pop_ptr.o)
                              c:/program files/microchip/xc32/v4.35/bin/bin/../../lib/gcc/pic32c/8.3.1/../../../../pic32c/lib/arm/v5te/nofp\libg-musl.a(__sio_printf_dnpuxX.o) (__pop_ptr_needed)
c:/program files/microchip/xc32/v4.35/bin/bin/../../lib/gcc/pic32c/8.3.1/../../../../pic32c/lib/arm/v5te/nofp\libg-musl.a(__printf_core.o)
                              c:/program files/microchip/xc32/v4.35/bin/bin/../../lib/gcc/pic32c/8.3.1/../../../../pic32c/lib/arm/v5te/nofp\libg-musl.a(__fmt_d.o) (__pad)
c:/program files/microchip/xc32/v4.35/bin/bin/../../lib/gcc/pic32c/8.3.1/../../../../pic32c/lib/arm/v5te/nofp\libg-musl.a(stdin.o)
                              build/dsi_xlcdc_rgba8888_ws_9x75_curiosity_720x720_round/debug/_ext/1295507646/initialization.o (_stdin)
c:/program files/microchip/xc32/v4.35/bin/bin/../../lib/gcc/pic32c/8.3.1/../../../../pic32c/lib/arm/v5te/nofp\libg-musl.a(stdout.o)
                              build/dsi_xlcdc_rgba8888_ws_9x75_curiosity_720x720_round/debug/_ext/1295507646/initialization.o (_stdout)
c:/program files/microchip/xc32/v4.35/bin/bin/../../lib/gcc/pic32c/8.3.1/../../../../pic32c/lib/arm/v5te/nofp\libg-musl.a(putchar.o)
                              build/dsi_xlcdc_rgba8888_ws_9x75_curiosity_720x720_round/debug/_ext/171820735/legato_variableheap.o (putchar)
c:/program files/microchip/xc32/v4.35/bin/bin/../../lib/gcc/pic32c/8.3.1/../../../../pic32c/lib/arm/v5te/nofp\libg-musl.a(puts.o)
                              build/dsi_xlcdc_rgba8888_ws_9x75_curiosity_720x720_round/debug/_ext/171820735/legato_variableheap.o (puts)
c:/program files/microchip/xc32/v4.35/bin/bin/../../lib/gcc/pic32c/8.3.1/../../../../pic32c/lib/arm/v5te/nofp\libg-musl.a(setbuf.o)
                              build/dsi_xlcdc_rgba8888_ws_9x75_curiosity_720x720_round/debug/_ext/1295507646/initialization.o (setbuf)
c:/program files/microchip/xc32/v4.35/bin/bin/../../lib/gcc/pic32c/8.3.1/../../../../pic32c/lib/arm/v5te/nofp\libg-musl.a(atoi.o)
                              c:/program files/microchip/xc32/v4.35/bin/bin/../../lib/gcc/pic32c/8.3.1/../../../../pic32c/lib/arm/v5te/nofp\libg-musl.a(__printf_core.o) (atoi)
c:/program files/microchip/xc32/v4.35/bin/bin/../../lib/gcc/pic32c/8.3.1/../../../../pic32c/lib/arm/v5te/nofp\libg-musl.a(memcpy.o)
                              build/dsi_xlcdc_rgba8888_ws_9x75_curiosity_720x720_round/debug/_ext/2010836581/gfx_canvas.o (memcpy)
c:/program files/microchip/xc32/v4.35/bin/bin/../../lib/gcc/pic32c/8.3.1/../../../../pic32c/lib/arm/v5te/nofp\libg-musl.a(memmove.o)
                              build/dsi_xlcdc_rgba8888_ws_9x75_curiosity_720x720_round/debug/_ext/778592651/legato_rectarray.o (memmove)
c:/program files/microchip/xc32/v4.35/bin/bin/../../lib/gcc/pic32c/8.3.1/../../../../pic32c/lib/arm/v5te/nofp\libg-musl.a(memset.o)
                              build/dsi_xlcdc_rgba8888_ws_9x75_curiosity_720x720_round/debug/_ext/1085405985/ws_touch_display.o (memset)
c:/program files/microchip/xc32/v4.35/bin/bin/../../lib/gcc/pic32c/8.3.1/../../../../pic32c/lib/arm/v5te/nofp\libg-musl.a(strlen.o)
                              build/dsi_xlcdc_rgba8888_ws_9x75_curiosity_720x720_round/debug/_ext/799688951/lodepng.o (strlen)
c:/program files/microchip/xc32/v4.35/bin/bin/../../lib/gcc/pic32c/8.3.1/../../../../pic32c/lib/arm/v5te/nofp\libg-musl.a(tolower.o)
                              c:/program files/microchip/xc32/v4.35/bin/bin/../../lib/gcc/pic32c/8.3.1/../../../../pic32c/lib/arm/v5te/nofp\libg-musl.a(__printf_core.o) (tolower)
c:/program files/microchip/xc32/v4.35/bin/bin/../../lib/gcc/pic32c/8.3.1/../../../../pic32c/lib/arm/v5te/nofp\libg-musl.a(toupper.o)
                              c:/program files/microchip/xc32/v4.35/bin/bin/../../lib/gcc/pic32c/8.3.1/../../../../pic32c/lib/arm/v5te/nofp\libg-musl.a(__fmt_x.o) (toupper)
c:/program files/microchip/xc32/v4.35/bin/bin/../../lib/gcc/pic32c/8.3.1/../../../../pic32c/lib/arm/v5te/nofp\libg-musl.a(__environ.o)
                              c:/program files/microchip/xc32/v4.35/bin/bin/../../lib/gcc/pic32c/8.3.1/../../../../pic32c/lib/arm/v5te/nofp\libg-musl.a(__libc_start_main.o) (__environ)
c:/program files/microchip/xc32/v4.35/bin/bin/../../lib/gcc/pic32c/8.3.1/../../../../pic32c/lib/arm/v5te/nofp\libg-musl.a(__errno_location.o)
                              c:/program files/microchip/xc32/v4.35/bin/bin/../../lib/gcc/pic32c/8.3.1/../../../../pic32c/lib/arm/v5te/nofp\libg-musl.a(__printf_core.o) (__errno_val)
c:/program files/microchip/xc32/v4.35/bin/bin/../../lib/gcc/pic32c/8.3.1/../../../../pic32c/lib/arm/v5te/nofp\libg-musl.a(__int_vfprintf.o)
                              c:/program files/microchip/xc32/v4.35/bin/bin/../../lib/gcc/pic32c/8.3.1/../../../../pic32c/lib/arm/v5te/nofp\libg-musl.a(__sio_printf_dnpuxX.o) (__vfprintf)
c:/program files/microchip/xc32/v4.35/bin/bin/../../lib/gcc/pic32c/8.3.1/../../../../pic32c/lib/arm/v5te/nofp\libg-musl.a(__int_vsprintf.o)
                              c:/program files/microchip/xc32/v4.35/bin/bin/../../lib/gcc/pic32c/8.3.1/../../../../pic32c/lib/arm/v5te/nofp\libg-musl.a(__sio_sprintf_dnpuxX.o) (__vsprintf)
c:/program files/microchip/xc32/v4.35/bin/bin/../../lib/gcc/pic32c/8.3.1/../../../../pic32c/lib/arm/v5te/nofp\libg-musl.a(fputs.o)
                              c:/program files/microchip/xc32/v4.35/bin/bin/../../lib/gcc/pic32c/8.3.1/../../../../pic32c/lib/arm/v5te/nofp\libg-musl.a(puts.o) (fputs)
c:/program files/microchip/xc32/v4.35/bin/bin/../../lib/gcc/pic32c/8.3.1/../../../../pic32c/lib/arm/v5te/nofp\libg-musl.a(__cvt_u.o)
                              c:/program files/microchip/xc32/v4.35/bin/bin/../../lib/gcc/pic32c/8.3.1/../../../../pic32c/lib/arm/v5te/nofp\libg-musl.a(__fmt_d.o) (__cvt_u)
c:/program files/microchip/xc32/v4.35/bin/bin/../../lib/gcc/pic32c/8.3.1/../../../../pic32c/lib/arm/v5te/nofp\libg-musl.a(__io_init_needed.o)
                              c:/program files/microchip/xc32/v4.35/bin/bin/../../lib/gcc/pic32c/8.3.1/../../../../pic32c/lib/arm/v5te/nofp\libg-musl.a(stdout.o) (__io_init_needed)
c:/program files/microchip/xc32/v4.35/bin/bin/../../lib/gcc/pic32c/8.3.1/../../../../pic32c/lib/arm/v5te/nofp\libg-musl.a(__io_rw_needed.o)
                              c:/program files/microchip/xc32/v4.35/bin/bin/../../lib/gcc/pic32c/8.3.1/../../../../pic32c/lib/arm/v5te/nofp\libg-musl.a(stdin.o) (__io_rw_needed)
c:/program files/microchip/xc32/v4.35/bin/bin/../../lib/gcc/pic32c/8.3.1/../../../../pic32c/lib/arm/v5te/nofp\libg-musl.a(__pop_float.o)
                              c:/program files/microchip/xc32/v4.35/bin/bin/../../lib/gcc/pic32c/8.3.1/../../../../pic32c/lib/arm/v5te/nofp\libg-musl.a(__printf_core.o) (__pop_float)
c:/program files/microchip/xc32/v4.35/bin/bin/../../lib/gcc/pic32c/8.3.1/../../../../pic32c/lib/arm/v5te/nofp\libg-musl.a(__stdio_read.o)
                              c:/program files/microchip/xc32/v4.35/bin/bin/../../lib/gcc/pic32c/8.3.1/../../../../pic32c/lib/arm/v5te/nofp\libg-musl.a(stdin.o) (__stdio_read)
c:/program files/microchip/xc32/v4.35/bin/bin/../../lib/gcc/pic32c/8.3.1/../../../../pic32c/lib/arm/v5te/nofp\libg-musl.a(__towrite_rw.o)
                              c:/program files/microchip/xc32/v4.35/bin/bin/../../lib/gcc/pic32c/8.3.1/../../../../pic32c/lib/arm/v5te/nofp\libg-musl.a(__io_rw_needed.o) (__towrite_rw_needed)
c:/program files/microchip/xc32/v4.35/bin/bin/../../lib/gcc/pic32c/8.3.1/../../../../pic32c/lib/arm/v5te/nofp\libg-musl.a(fwrite.o)
                              c:/program files/microchip/xc32/v4.35/bin/bin/../../lib/gcc/pic32c/8.3.1/../../../../pic32c/lib/arm/v5te/nofp\libg-musl.a(fputs.o) (fwrite)
c:/program files/microchip/xc32/v4.35/bin/bin/../../lib/gcc/pic32c/8.3.1/../../../../pic32c/lib/arm/v5te/nofp\libg-musl.a(putc.o)
                              c:/program files/microchip/xc32/v4.35/bin/bin/../../lib/gcc/pic32c/8.3.1/../../../../pic32c/lib/arm/v5te/nofp\libg-musl.a(putchar.o) (fputc)
c:/program files/microchip/xc32/v4.35/bin/bin/../../lib/gcc/pic32c/8.3.1/../../../../pic32c/lib/arm/v5te/nofp\libg-musl.a(setvbuf.o)
                              c:/program files/microchip/xc32/v4.35/bin/bin/../../lib/gcc/pic32c/8.3.1/../../../../pic32c/lib/arm/v5te/nofp\libg-musl.a(setbuf.o) (setvbuf)
c:/program files/microchip/xc32/v4.35/bin/bin/../../lib/gcc/pic32c/8.3.1/../../../../pic32c/lib/arm/v5te/nofp\libg-musl.a(readv.o)
                              c:/program files/microchip/xc32/v4.35/bin/bin/../../lib/gcc/pic32c/8.3.1/../../../../pic32c/lib/arm/v5te/nofp\libg-musl.a(__stdio_read.o) (readv)
c:/program files/microchip/xc32/v4.35/bin/bin/../../lib/gcc/pic32c/8.3.1/../../../../pic32c/lib/arm/v5te/nofp\libg-musl.a(malloc.o)
                              c:/program files/microchip/xc32/v4.35/bin/bin/../../lib/gcc/pic32c/8.3.1/../../../../pic32c/lib/arm/v5te/nofp\libg-musl.a(setvbuf.o) (malloc)
c:/program files/microchip/xc32/v4.35/bin/bin/../../lib/gcc/pic32c/8.3.1/../../../../pic32c/lib/arm/v5te/nofp\libg-musl.a(expand_heap.o)
                              c:/program files/microchip/xc32/v4.35/bin/bin/../../lib/gcc/pic32c/8.3.1/../../../../pic32c/lib/arm/v5te/nofp\libg-musl.a(malloc.o) (__expand_heap)
c:/program files/microchip/xc32/v4.35/bin/bin/../../lib/gcc/pic32c/8.3.1/../../../../pic32c/lib/arm/v5te/nofp\libg-musl.a(__int_vsnprintf.o)
                              c:/program files/microchip/xc32/v4.35/bin/bin/../../lib/gcc/pic32c/8.3.1/../../../../pic32c/lib/arm/v5te/nofp\libg-musl.a(__int_vsprintf.o) (__vsnprintf)
c:/program files/microchip/xc32/v4.35/bin/bin/../../lib/gcc/pic32c/8.3.1/../../../../pic32c/lib/arm/v5te/nofp\libg-musl.a(__fopen_rw.o)
                              c:/program files/microchip/xc32/v4.35/bin/bin/../../lib/gcc/pic32c/8.3.1/../../../../pic32c/lib/arm/v5te/nofp\libg-musl.a(__io_rw_needed.o) (__fopen_rw_needed)
c:/program files/microchip/xc32/v4.35/bin/bin/../../lib/gcc/pic32c/8.3.1/../../../../pic32c/lib/arm/v5te/nofp\libg-musl.a(__ftello_rw.o)
                              c:/program files/microchip/xc32/v4.35/bin/bin/../../lib/gcc/pic32c/8.3.1/../../../../pic32c/lib/arm/v5te/nofp\libg-musl.a(__io_rw_needed.o) (__ftello_adj_rw_needed)
c:/program files/microchip/xc32/v4.35/bin/bin/../../lib/gcc/pic32c/8.3.1/../../../../pic32c/lib/arm/v5te/nofp\libg-musl.a(__init_stdio.o)
                              c:/program files/microchip/xc32/v4.35/bin/bin/../../lib/gcc/pic32c/8.3.1/../../../../pic32c/lib/arm/v5te/nofp\libg-musl.a(__io_init_needed.o) (__init_stdio_needed)
c:/program files/microchip/xc32/v4.35/bin/bin/../../lib/gcc/pic32c/8.3.1/../../../../pic32c/lib/arm/v5te/nofp\libg-musl.a(__io_buf_needed.o)
                              c:/program files/microchip/xc32/v4.35/bin/bin/../../lib/gcc/pic32c/8.3.1/../../../../pic32c/lib/arm/v5te/nofp\libg-musl.a(__io_rw_needed.o) (__io_buf_needed)
c:/program files/microchip/xc32/v4.35/bin/bin/../../lib/gcc/pic32c/8.3.1/../../../../pic32c/lib/arm/v5te/nofp\libg-musl.a(__io_file_needed.o)
                              c:/program files/microchip/xc32/v4.35/bin/bin/../../lib/gcc/pic32c/8.3.1/../../../../pic32c/lib/arm/v5te/nofp\libg-musl.a(__io_init_needed.o) (__io_file_needed)
c:/program files/microchip/xc32/v4.35/bin/bin/../../lib/gcc/pic32c/8.3.1/../../../../pic32c/lib/arm/v5te/nofp\libg-musl.a(__io_std_needed.o)
                              c:/program files/microchip/xc32/v4.35/bin/bin/../../lib/gcc/pic32c/8.3.1/../../../../pic32c/lib/arm/v5te/nofp\libg-musl.a(__io_buf_needed.o) (__io_std_needed)
c:/program files/microchip/xc32/v4.35/bin/bin/../../lib/gcc/pic32c/8.3.1/../../../../pic32c/lib/arm/v5te/nofp\libg-musl.a(__out.o)
                              c:/program files/microchip/xc32/v4.35/bin/bin/../../lib/gcc/pic32c/8.3.1/../../../../pic32c/lib/arm/v5te/nofp\libg-musl.a(__fopen_rw.o) (__stdio_write_unbuffered)
c:/program files/microchip/xc32/v4.35/bin/bin/../../lib/gcc/pic32c/8.3.1/../../../../pic32c/lib/arm/v5te/nofp\libg-musl.a(__putc.o)
                              c:/program files/microchip/xc32/v4.35/bin/bin/../../lib/gcc/pic32c/8.3.1/../../../../pic32c/lib/arm/v5te/nofp\libg-musl.a(__io_buf_needed.o) (__putc_needed)
c:/program files/microchip/xc32/v4.35/bin/bin/../../lib/gcc/pic32c/8.3.1/../../../../pic32c/lib/arm/v5te/nofp\libg-musl.a(__stderr.o)
                              c:/program files/microchip/xc32/v4.35/bin/bin/../../lib/gcc/pic32c/8.3.1/../../../../pic32c/lib/arm/v5te/nofp\libg-musl.a(__io_std_needed.o) (__init_stderr_needed)
c:/program files/microchip/xc32/v4.35/bin/bin/../../lib/gcc/pic32c/8.3.1/../../../../pic32c/lib/arm/v5te/nofp\libg-musl.a(__stdio_close.o)
                              c:/program files/microchip/xc32/v4.35/bin/bin/../../lib/gcc/pic32c/8.3.1/../../../../pic32c/lib/arm/v5te/nofp\libg-musl.a(__fopen_rw.o) (__stdio_close_rw)
c:/program files/microchip/xc32/v4.35/bin/bin/../../lib/gcc/pic32c/8.3.1/../../../../pic32c/lib/arm/v5te/nofp\libg-musl.a(__stdio_exit.o)
                              c:/program files/microchip/xc32/v4.35/bin/bin/../../lib/gcc/pic32c/8.3.1/../../../../pic32c/lib/arm/v5te/nofp\libg-musl.a(__io_buf_needed.o) (__stdio_exit_needed)
c:/program files/microchip/xc32/v4.35/bin/bin/../../lib/gcc/pic32c/8.3.1/../../../../pic32c/lib/arm/v5te/nofp\libg-musl.a(__stdio_write.o)
                              c:/program files/microchip/xc32/v4.35/bin/bin/../../lib/gcc/pic32c/8.3.1/../../../../pic32c/lib/arm/v5te/nofp\libg-musl.a(setvbuf.o) (__stdio_write_buffered)
c:/program files/microchip/xc32/v4.35/bin/bin/../../lib/gcc/pic32c/8.3.1/../../../../pic32c/lib/arm/v5te/nofp\libg-musl.a(__stdout.o)
                              c:/program files/microchip/xc32/v4.35/bin/bin/../../lib/gcc/pic32c/8.3.1/../../../../pic32c/lib/arm/v5te/nofp\libg-musl.a(__io_std_needed.o) (__init_stdout_needed)
c:/program files/microchip/xc32/v4.35/bin/bin/../../lib/gcc/pic32c/8.3.1/../../../../pic32c/lib/arm/v5te/nofp\libg-musl.a(__towrite.o)
                              c:/program files/microchip/xc32/v4.35/bin/bin/../../lib/gcc/pic32c/8.3.1/../../../../pic32c/lib/arm/v5te/nofp\libg-musl.a(__stdio_write.o) (__towrite)
c:/program files/microchip/xc32/v4.35/bin/bin/../../lib/gcc/pic32c/8.3.1/../../../../pic32c/lib/arm/v5te/nofp\libg-musl.a(writev.o)
                              c:/program files/microchip/xc32/v4.35/bin/bin/../../lib/gcc/pic32c/8.3.1/../../../../pic32c/lib/arm/v5te/nofp\libg-musl.a(__stdio_write.o) (writev)
c:/program files/microchip/xc32/v4.35/bin/bin/../../lib/gcc/pic32c/8.3.1/../../../../pic32c/lib/arm/v5te/nofp\libg-musl.a(__overflow.o)
                              c:/program files/microchip/xc32/v4.35/bin/bin/../../lib/gcc/pic32c/8.3.1/../../../../pic32c/lib/arm/v5te/nofp\libg-musl.a(__putc.o) (__overflow)
c:/program files/microchip/xc32/v4.35/bin/bin/../../lib/gcc/pic32c/8.3.1/../../../../pic32c/lib/arm/v5te/nofp\libg-musl.a(__fclose.o)
                              c:/program files/microchip/xc32/v4.35/bin/bin/../../lib/gcc/pic32c/8.3.1/../../../../pic32c/lib/arm/v5te/nofp\libg-musl.a(__io_buf_needed.o) (__fclose_needed)
c:/program files/microchip/xc32/v4.35/bin/bin/../../lib/gcc/pic32c/8.3.1/../../../../pic32c/lib/arm/v5te/nofp\libg-musl.a(__fopen.o)
                              c:/program files/microchip/xc32/v4.35/bin/bin/../../lib/gcc/pic32c/8.3.1/../../../../pic32c/lib/arm/v5te/nofp\libg-musl.a(__io_std_needed.o) (__fopen_needed)
c:/program files/microchip/xc32/v4.35/bin/bin/../../lib/gcc/pic32c/8.3.1/../../../../pic32c/lib/arm/v5te/nofp\libg-musl.a(__fseeko.o)
                              c:/program files/microchip/xc32/v4.35/bin/bin/../../lib/gcc/pic32c/8.3.1/../../../../pic32c/lib/arm/v5te/nofp\libg-musl.a(__io_buf_needed.o) (__fseeko_needed)
c:/program files/microchip/xc32/v4.35/bin/bin/../../lib/gcc/pic32c/8.3.1/../../../../pic32c/lib/arm/v5te/nofp\libg-musl.a(__ftello.o)
                              c:/program files/microchip/xc32/v4.35/bin/bin/../../lib/gcc/pic32c/8.3.1/../../../../pic32c/lib/arm/v5te/nofp\libg-musl.a(__io_buf_needed.o) (__ftello_adj_needed)
c:/program files/microchip/xc32/v4.35/bin/bin/../../lib/gcc/pic32c/8.3.1/../../../../pic32c/lib/arm/v5te/nofp\libg-musl.a(__fwrite.o)
                              c:/program files/microchip/xc32/v4.35/bin/bin/../../lib/gcc/pic32c/8.3.1/../../../../pic32c/lib/arm/v5te/nofp\libg-musl.a(__io_std_needed.o) (__fwrite_needed)
c:/program files/microchip/xc32/v4.35/bin/bin/../../lib/gcc/pic32c/8.3.1/../../../../pic32c/lib/arm/v5te/nofp\libpic32c.a(close.o)
                              c:/program files/microchip/xc32/v4.35/bin/bin/../../lib/gcc/pic32c/8.3.1/../../../../pic32c/lib/arm/v5te/nofp\libg-musl.a(__stdio_close.o) (close)
c:/program files/microchip/xc32/v4.35/bin/bin/../../lib/gcc/pic32c/8.3.1/../../../../pic32c/lib/arm/v5te/nofp\libpic32c.a(lseek.o)
                              c:/program files/microchip/xc32/v4.35/bin/bin/../../lib/gcc/pic32c/8.3.1/../../../../pic32c/lib/arm/v5te/nofp\libg-musl.a(__stdio_close.o) (lseek)
c:/program files/microchip/xc32/v4.35/bin/bin/../../lib/gcc/pic32c/8.3.1/../../../../pic32c/lib/arm/v5te/nofp\libpic32c.a(sbrk.o)
                              c:/program files/microchip/xc32/v4.35/bin/bin/../../lib/gcc/pic32c/8.3.1/../../../../pic32c/lib/arm/v5te/nofp\libg-musl.a(expand_heap.o) (_sbrk)
c:/program files/microchip/xc32/v4.35/bin/bin/../../lib/gcc/pic32c/8.3.1/arm/v5te/nofp\libgcc.a(_arm_addsubdf3.o)
                              c:/program files/microchip/xc32/v4.35/bin/bin/../../lib/gcc/pic32c/8.3.1/../../../../pic32c/lib/arm/v5te/nofp\libm-musl.a(atan.o) (__aeabi_dsub)
c:/program files/microchip/xc32/v4.35/bin/bin/../../lib/gcc/pic32c/8.3.1/arm/v5te/nofp\libgcc.a(_arm_muldivdf3.o)
                              c:/program files/microchip/xc32/v4.35/bin/bin/../../lib/gcc/pic32c/8.3.1/../../../../pic32c/lib/arm/v5te/nofp\libm-musl.a(atan.o) (__aeabi_dmul)
c:/program files/microchip/xc32/v4.35/bin/bin/../../lib/gcc/pic32c/8.3.1/arm/v5te/nofp\libgcc.a(_arm_truncdfsf2.o)
                              c:/program files/microchip/xc32/v4.35/bin/bin/../../lib/gcc/pic32c/8.3.1/../../../../pic32c/lib/arm/v5te/nofp\libm-musl.a(atan.o) (__aeabi_d2f)

Microchip PIC32 Memory-Usage Report
        --------------------------------------------------------------------------
         Total Program Memory used  :           0           0  
        --------------------------------------------------------------------------


RAM Data-Memory Usage
section                    address  length [bytes]      (dec)  Description
-------                 ----------  -------------------------  -----------
.text                   0x23f00000       0xb012e0    11539168   
.data                   0x24a012e0         0x24e4        9444  Initialized data 
.ARM.exidx              0x24a037c4            0x8           8   
.relocate               0x24a037cc           0x3c          60   
.region_cache_aligned_c 0x24a037cc           0x14          20   
.bss                    0x24a04000        0x51148      332104  Uninitialized data 
.region_cache_aligned   0x24a55148           0x18          24   
.stacks                 0x24a55160         0x2140        8512   
         Total RAM used  :    0xb56abc    11889340  4.7% of 0xf000000
        --------------------------------------------------------------------------
            Total Data Memory used  :    0xb56abc    11889340  4.7% of 0xf000000
        --------------------------------------------------------------------------


Dynamic Data-Memory Reservation
section                    address  length [bytes]      (dec)  Description
-------                 ----------  -------------------------  -----------
heap                    0x24a572a8          0x200         512  Reserved for heap 
stack                   0x24a574c0      0xb5a8b38   190483256  Reserved for stack 

        --------------------------------------------------------------------------

Microchip PIC32 Memory-Usage Report By Module

        text        data         bss         dec         hex    basename                                          filename
--------------------------------------------------------------------------------
    11246424        7680           0    11254104      abb958    le_gen_images.o                               build/dsi_xlcdc_rgba8888_ws_9x75_curiosity_720x720_round/debug/_ext/86928605/le_gen_images.o
        3160           8     4798105     4801273      4942f9    gfx_canvas.o                                  build/dsi_xlcdc_rgba8888_ws_9x75_curiosity_720x720_round/debug/_ext/2010836581/gfx_canvas.o
        3540           1      409740      413281       64e61    legato_renderer.o                             build/dsi_xlcdc_rgba8888_ws_9x75_curiosity_720x720_round/debug/_ext/2053165825/legato_renderer.o
        2464          84      296068      298616       48e78    legato_memory.o                               build/dsi_xlcdc_rgba8888_ws_9x75_curiosity_720x720_round/debug/_ext/171820735/legato_memory.o
      119060          96           0      119156       1d174    le_gen_fonts.o                                build/dsi_xlcdc_rgba8888_ws_9x75_curiosity_720x720_round/debug/_ext/1382756211/le_gen_fonts.o
       32868           0           0       32868        8064    lodepng.o                                     build/dsi_xlcdc_rgba8888_ws_9x75_curiosity_720x720_round/debug/_ext/799688951/lodepng.o
         792           0       16384       17176        4318    plib_mmu.o                                    build/dsi_xlcdc_rgba8888_ws_9x75_curiosity_720x720_round/debug/_ext/1886855727/plib_mmu.o
        8568           0          35        8603        219b    legato_imagedecoder_jpeg_common.o             build/dsi_xlcdc_rgba8888_ws_9x75_curiosity_720x720_round/debug/_ext/979623078/legato_imagedecoder_jpeg_common.o
        6892         154         205        7251        1c53    app_drive.o                                   build/dsi_xlcdc_rgba8888_ws_9x75_curiosity_720x720_round/debug/_ext/1360937237/app_drive.o
        1512           0        5212        6724        1a44    legato_imagedecoder_jpeg.o                    build/dsi_xlcdc_rgba8888_ws_9x75_curiosity_720x720_round/debug/_ext/979623078/legato_imagedecoder_jpeg.o
        5984          40           0        6024        1788    legato_widget.o                               build/dsi_xlcdc_rgba8888_ws_9x75_curiosity_720x720_round/debug/_ext/461530114/legato_widget.o
        5540           0         288        5828        16c4    legato_imagedecoder_raw.o                     build/dsi_xlcdc_rgba8888_ws_9x75_curiosity_720x720_round/debug/_ext/799690486/legato_imagedecoder_raw.o
        5496           0           0        5496        1578    legato_math.o                                 build/dsi_xlcdc_rgba8888_ws_9x75_curiosity_720x720_round/debug/_ext/105237591/legato_math.o
        4036           2         224        4262        10a6    sys_time.o                                    build/dsi_xlcdc_rgba8888_ws_9x75_curiosity_720x720_round/debug/_ext/690637493/sys_time.o
        4040           0           0        4040         fc8    legato_draw_arc.o                             build/dsi_xlcdc_rgba8888_ws_9x75_curiosity_720x720_round/debug/_ext/2053165825/legato_draw_arc.o
        3724           0           0        3724         e8c    legato_variableheap.o                         build/dsi_xlcdc_rgba8888_ws_9x75_curiosity_720x720_round/debug/_ext/171820735/legato_variableheap.o
        3568           0          60        3628         e2c    drv_i2c.o                                     build/dsi_xlcdc_rgba8888_ws_9x75_curiosity_720x720_round/debug/_ext/1985065589/drv_i2c.o
        1820           0        1517        3337         d09    app.o                                         build/dsi_xlcdc_rgba8888_ws_9x75_curiosity_720x720_round/debug/_ext/1360937237/app.o
        2860           0         280        3140         c44    legato_imagedecoder_mono.o                    build/dsi_xlcdc_rgba8888_ws_9x75_curiosity_720x720_round/debug/_ext/979534379/legato_imagedecoder_mono.o
        2440           4         496        2940         b7c    ws_touch_display.o                            build/dsi_xlcdc_rgba8888_ws_9x75_curiosity_720x720_round/debug/_ext/1085405985/ws_touch_display.o
        2736           0          62        2798         aee    le_gen_screen_Screen0.o                       build/dsi_xlcdc_rgba8888_ws_9x75_curiosity_720x720_round/debug/_ext/1322619606/le_gen_screen_Screen0.o
        2772           0           0        2772         ad4    plib_xlcdc.o                                  build/dsi_xlcdc_rgba8888_ws_9x75_curiosity_720x720_round/debug/_ext/225302149/plib_xlcdc.o
        2764           0           0        2764         acc    legato_rectarray.o                            build/dsi_xlcdc_rgba8888_ws_9x75_curiosity_720x720_round/debug/_ext/778592651/legato_rectarray.o
        1952           0         752        2704         a90    legato_state.o                                build/dsi_xlcdc_rgba8888_ws_9x75_curiosity_720x720_round/debug/_ext/884805853/legato_state.o
        2688           0           0        2688         a80    legato_widget_skin_classic_common.o           build/dsi_xlcdc_rgba8888_ws_9x75_curiosity_720x720_round/debug/_ext/461530114/legato_widget_skin_classic_common.o
        2444           0           0        2444         98c    legato_font.o                                 build/dsi_xlcdc_rgba8888_ws_9x75_curiosity_720x720_round/debug/_ext/884895117/legato_font.o
        2136           0          40        2176         880    plib_flexcom6_twi_master.o                    build/dsi_xlcdc_rgba8888_ws_9x75_curiosity_720x720_round/debug/_ext/545877704/plib_flexcom6_twi_master.o
        2108          56           0        2164         874    legato_pixelbuffer.o                          build/dsi_xlcdc_rgba8888_ws_9x75_curiosity_720x720_round/debug/_ext/105237591/legato_pixelbuffer.o
        1620           0         524        2144         860    malloc.o                                      libg-musl.a
        2028           0           0        2028         7ec    legato_fixedstring.o                          build/dsi_xlcdc_rgba8888_ws_9x75_curiosity_720x720_round/debug/_ext/357591503/legato_fixedstring.o
        1604           0         362        1966         7ae    drv_gfx_xlcdc.o                               build/dsi_xlcdc_rgba8888_ws_9x75_curiosity_720x720_round/debug/_ext/505007713/drv_gfx_xlcdc.o
        1936           0           0        1936         790    legato_gpu.o                                  build/dsi_xlcdc_rgba8888_ws_9x75_curiosity_720x720_round/debug/_ext/2053165825/legato_gpu.o
        1880           0           0        1880         758    legato_utils.o                                build/dsi_xlcdc_rgba8888_ws_9x75_curiosity_720x720_round/debug/_ext/105237591/legato_utils.o
        1348         484           0        1832         728    legato_color_convert.o                        build/dsi_xlcdc_rgba8888_ws_9x75_curiosity_720x720_round/debug/_ext/105237591/legato_color_convert.o
        1726           0           0        1726         6be    __printf_core.o                               libg-musl.a
        1652           0          18        1670         686    legato_draw.o                                 build/dsi_xlcdc_rgba8888_ws_9x75_curiosity_720x720_round/debug/_ext/2053165825/legato_draw.o
        1544           0           0        1544         608    legato_string.o                               build/dsi_xlcdc_rgba8888_ws_9x75_curiosity_720x720_round/debug/_ext/357591503/legato_string.o
         996           0         512        1508         5e4    plib_gfx2d.o                                  build/dsi_xlcdc_rgba8888_ws_9x75_curiosity_720x720_round/debug/_ext/786409605/plib_gfx2d.o
         860           0         622        1482         5ca    sys_input.o                                   build/dsi_xlcdc_rgba8888_ws_9x75_curiosity_720x720_round/debug/_ext/1949213289/sys_input.o
        1336           0           0        1336         538    jidctint.o                                    build/dsi_xlcdc_rgba8888_ws_9x75_curiosity_720x720_round/debug/_ext/979623078/jidctint.o
        1304           0          12        1316         524    legato_widget_label_skin_classic.o            build/dsi_xlcdc_rgba8888_ws_9x75_curiosity_720x720_round/debug/_ext/1589174617/legato_widget_label_skin_classic.o
        1244           0          12        1256         4e8    legato_widget_image_skin_classic.o            build/dsi_xlcdc_rgba8888_ws_9x75_curiosity_720x720_round/debug/_ext/1591588594/legato_widget_image_skin_classic.o
        1248           0           0        1248         4e0    legato_rect.o                                 build/dsi_xlcdc_rgba8888_ws_9x75_curiosity_720x720_round/debug/_ext/105237591/legato_rect.o
        1164           0          36        1200         4b0    legato_input.o                                build/dsi_xlcdc_rgba8888_ws_9x75_curiosity_720x720_round/debug/_ext/884805853/legato_input.o
           8         108        1032        1148         47c    stdin.o                                       libg-musl.a
         972           0          72        1044         414    legato_imagedecoder_raw_scale.o               build/dsi_xlcdc_rgba8888_ws_9x75_curiosity_720x720_round/debug/_ext/799690486/legato_imagedecoder_raw_scale.o
        1008           0           0        1008         3f0    legato_array.o                                build/dsi_xlcdc_rgba8888_ws_9x75_curiosity_720x720_round/debug/_ext/778592651/legato_array.o
         992           0           0         992         3e0    legato_tablestring.o                          build/dsi_xlcdc_rgba8888_ws_9x75_curiosity_720x720_round/debug/_ext/357591503/legato_tablestring.o
         852           0         104         956         3bc    legato_imagedecoder_png.o                     build/dsi_xlcdc_rgba8888_ws_9x75_curiosity_720x720_round/debug/_ext/799688951/legato_imagedecoder_png.o
         916           0           0         916         394    legato_widget_label.o                         build/dsi_xlcdc_rgba8888_ws_9x75_curiosity_720x720_round/debug/_ext/1589174617/legato_widget_label.o
         844          44           0         888         378    legato_color_lerp.o                           build/dsi_xlcdc_rgba8888_ws_9x75_curiosity_720x720_round/debug/_ext/105237591/legato_color_lerp.o
         836           0          52         888         378    legato_imagedecoder_raw_rotate.o              build/dsi_xlcdc_rgba8888_ws_9x75_curiosity_720x720_round/debug/_ext/799690486/legato_imagedecoder_raw_rotate.o
         812           0          32         844         34c    legato_imagedecoder_raw_read_internal.o       build/dsi_xlcdc_rgba8888_ws_9x75_curiosity_720x720_round/debug/_ext/799690486/legato_imagedecoder_raw_read_internal.o
         840           0           0         840         348    plib_clk.o                                    build/dsi_xlcdc_rgba8888_ws_9x75_curiosity_720x720_round/debug/_ext/1886846076/plib_clk.o
         768           0           0         768         300    legato_scheme.o                               build/dsi_xlcdc_rgba8888_ws_9x75_curiosity_720x720_round/debug/_ext/884805853/legato_scheme.o
         760           0           0         760         2f8    _arm_muldivsf3.o                              libgcc.a
         748          12           0         760         2f8    legato_stringutils.o                          build/dsi_xlcdc_rgba8888_ws_9x75_curiosity_720x720_round/debug/_ext/357591503/legato_stringutils.o
         740           0           0         740         2e4    legato_widget_image.o                         build/dsi_xlcdc_rgba8888_ws_9x75_curiosity_720x720_round/debug/_ext/1591588594/legato_widget_image.o
         712           0           0         712         2c8    le_gen_scheme.o                               build/dsi_xlcdc_rgba8888_ws_9x75_curiosity_720x720_round/debug/_ext/1965903633/le_gen_scheme.o
         708           0           0         708         2c4    gfx_driver.o                                  build/dsi_xlcdc_rgba8888_ws_9x75_curiosity_720x720_round/debug/_ext/1966656405/gfx_driver.o
         704           0           0         704         2c0    gfx_canvas_api.o                              build/dsi_xlcdc_rgba8888_ws_9x75_curiosity_720x720_round/debug/_ext/2010836581/gfx_canvas_api.o
         692           0           0         692         2b4    legato_color_blend.o                          build/dsi_xlcdc_rgba8888_ws_9x75_curiosity_720x720_round/debug/_ext/105237591/legato_color_blend.o
         584           0          40         624         270    legato_image.o                                build/dsi_xlcdc_rgba8888_ws_9x75_curiosity_720x720_round/debug/_ext/1664643037/legato_image.o
         612           0           0         612         264    legato_string_renderer.o                      build/dsi_xlcdc_rgba8888_ws_9x75_curiosity_720x720_round/debug/_ext/357591503/legato_string_renderer.o
         592           0           0         592         250    _arm_addsubsf3.o                              libgcc.a
         556           0           0         556         22c    plib_dsi.o                                    build/dsi_xlcdc_rgba8888_ws_9x75_curiosity_720x720_round/debug/_ext/1247915868/plib_dsi.o
         556           0           0         556         22c    legato_color.o                                build/dsi_xlcdc_rgba8888_ws_9x75_curiosity_720x720_round/debug/_ext/105237591/legato_color.o
         388           0         144         532         214    initialization.o                              build/dsi_xlcdc_rgba8888_ws_9x75_curiosity_720x720_round/debug/_ext/1295507646/initialization.o
          20         512           0         532         214    le_gen_globalpalette.o                        build/dsi_xlcdc_rgba8888_ws_9x75_curiosity_720x720_round/debug/_ext/1965903633/le_gen_globalpalette.o
         296          12         224         532         214    le_gen_stringtable.o                          build/dsi_xlcdc_rgba8888_ws_9x75_curiosity_720x720_round/debug/_ext/1965903633/le_gen_stringtable.o
         508          11           1         520         208    drv_gfx2d.o                                   build/dsi_xlcdc_rgba8888_ws_9x75_curiosity_720x720_round/debug/_ext/219820618/drv_gfx2d.o
         488           0           0         488         1e8    cstartup.o                                    build/dsi_xlcdc_rgba8888_ws_9x75_curiosity_720x720_round/debug/_ext/1295507646/cstartup.o
         444           0           0         444         1bc    __stdio_write.o                               libg-musl.a
         428           0          12         440         1b8    legato_imagedecoder_raw_setup.o               build/dsi_xlcdc_rgba8888_ws_9x75_curiosity_720x720_round/debug/_ext/799690486/legato_imagedecoder_raw_setup.o
         432           0           4         436         1b4    legato_widget_skin_classic.o                  build/dsi_xlcdc_rgba8888_ws_9x75_curiosity_720x720_round/debug/_ext/461530114/legato_widget_skin_classic.o
         420           0           8         428         1ac    plib_rtt.o                                    build/dsi_xlcdc_rgba8888_ws_9x75_curiosity_720x720_round/debug/_ext/1886860748/plib_rtt.o
         424           0           0         424         1a8    legato_draw_line.o                            build/dsi_xlcdc_rgba8888_ws_9x75_curiosity_720x720_round/debug/_ext/2053165825/legato_draw_line.o
         408           0          12         420         1a4    legato_imagedecoder_raw_blend.o               build/dsi_xlcdc_rgba8888_ws_9x75_curiosity_720x720_round/debug/_ext/799690486/legato_imagedecoder_raw_blend.o
         420           0           0         420         1a4    legato_list.o                                 build/dsi_xlcdc_rgba8888_ws_9x75_curiosity_720x720_round/debug/_ext/778592651/legato_list.o
         412           0           0         412         19c    __fmt_x.o                                     libg-musl.a
         412           0           0         412         19c    legato_image_utils.o                          build/dsi_xlcdc_rgba8888_ws_9x75_curiosity_720x720_round/debug/_ext/1664643037/legato_image_utils.o
         388           0          16         404         194    plib_tc1.o                                    build/dsi_xlcdc_rgba8888_ws_9x75_curiosity_720x720_round/debug/_ext/60866517/plib_tc1.o
         388           0           0         388         184    legato_stringtable.o                          build/dsi_xlcdc_rgba8888_ws_9x75_curiosity_720x720_round/debug/_ext/357591503/legato_stringtable.o
         380           0           0         380         17c    legato_fixedheap.o                            build/dsi_xlcdc_rgba8888_ws_9x75_curiosity_720x720_round/debug/_ext/171820735/legato_fixedheap.o
         372           0           0         372         174    plib_aic.o                                    build/dsi_xlcdc_rgba8888_ws_9x75_curiosity_720x720_round/debug/_ext/1886844053/plib_aic.o
         356           0           0         356         164    __pop_int.o                                   libg-musl.a
         300           0          53         353         161    le_gen_harmony.o                              build/dsi_xlcdc_rgba8888_ws_9x75_curiosity_720x720_round/debug/_ext/1965903633/le_gen_harmony.o
         308           0           0         308         134    _udivmoddi4.o                                 libgcc.a
         268           0          32         300         12c    legato_imagedecoder_raw_palette_internal.o    build/dsi_xlcdc_rgba8888_ws_9x75_curiosity_720x720_round/debug/_ext/799690486/legato_imagedecoder_raw_palette_internal.o
         296           0           0         296         128    plib_dbgu.o                                   build/dsi_xlcdc_rgba8888_ws_9x75_curiosity_720x720_round/debug/_ext/1637293614/plib_dbgu.o
         280           0           0         280         118    __fmt_d.o                                     libg-musl.a
         248           0          16         264         108    legato_event.o                                build/dsi_xlcdc_rgba8888_ws_9x75_curiosity_720x720_round/debug/_ext/884805853/legato_event.o
         252           0           0         252          fc    _arm_cmpsf2.o                                 libgcc.a
         252           0           0         252          fc    _divsi3.o                                     libgcc.a
         236           0           0         236          ec    __pop_ptr.o                                   libg-musl.a
         224           0           0         224          e0    plib_pio.o                                    build/dsi_xlcdc_rgba8888_ws_9x75_curiosity_720x720_round/debug/_ext/1886858480/plib_pio.o
         200           0           0         200          c8    _udivsi3.o                                    libgcc.a
         180           0           8         188          bc    le_gen_init.o                                 build/dsi_xlcdc_rgba8888_ws_9x75_curiosity_720x720_round/debug/_ext/1965903633/le_gen_init.o
         164           0          24         188          bc    legato_imagedecoder_raw_write.o               build/dsi_xlcdc_rgba8888_ws_9x75_curiosity_720x720_round/debug/_ext/799690486/legato_imagedecoder_raw_write.o
         172           0          16         188          bc    legato_imagedecoder_raw_convert.o             build/dsi_xlcdc_rgba8888_ws_9x75_curiosity_720x720_round/debug/_ext/799690486/legato_imagedecoder_raw_convert.o
         184           0           0         184          b8    __cvt_u.o                                     libg-musl.a
         172           0           0         172          ac    __stdio_read.o                                libg-musl.a
         168           0           0         168          a8    __stdio_close.o                               libg-musl.a
         120           0          28         148          94    crtbegin.o                                    c:/program files/microchip/xc32/v4.35/bin/bin/../../lib/gcc/pic32c/8.3.1/arm/v5te/nofp/crtbegin.o
         148           0           0         148          94    __fmt_u.o                                     libg-musl.a
         140           0           0         140          8c    __libc_start_main.o                           libg-musl.a
         132           0           0         132          84    __int_vsnprintf.o                             libg-musl.a
         132           0           0         132          84    __overflow.o                                  libg-musl.a
         128           0           0         128          80    setvbuf.o                                     libg-musl.a
         124           0           0         124          7c    atoi.o                                        libg-musl.a
         120           0           0         120          78    xc32_monitor.o                                build/dsi_xlcdc_rgba8888_ws_9x75_curiosity_720x720_round/debug/_ext/1477359996/xc32_monitor.o
         120           0           0         120          78    sys_int.o                                     build/dsi_xlcdc_rgba8888_ws_9x75_curiosity_720x720_round/debug/_ext/586618287/sys_int.o
         104           0          12         116          74    legato_imagedecoder_mono_read_internal.o      build/dsi_xlcdc_rgba8888_ws_9x75_curiosity_720x720_round/debug/_ext/979534379/legato_imagedecoder_mono_read_internal.o
         112           0           0         112          70    __out.o                                       libg-musl.a
         108           0           0         108          6c    legato_draw_rect.o                            build/dsi_xlcdc_rgba8888_ws_9x75_curiosity_720x720_round/debug/_ext/2053165825/legato_draw_rect.o
          12          96           0         108          6c    __stdout.o                                    libg-musl.a
          80           0          12          92          5c    legato_imagedecoder_raw_mask.o                build/dsi_xlcdc_rgba8888_ws_9x75_curiosity_720x720_round/debug/_ext/799690486/legato_imagedecoder_raw_mask.o
          92           0           0          92          5c    _arm_fixsfsi.o                                libgcc.a
          92           0           0          92          5c    putc.o                                        libg-musl.a
          88           0           0          88          58    memmove.o                                     libg-musl.a
          84           0           0          84          54    _arm_fixunssfsi.o                             libgcc.a
          84           0           0          84          54    __putc.o                                      libg-musl.a
           0           0          80          80          50    libc.o                                        libg-musl.a
          72           0           0          72          48    fwrite.o                                      libg-musl.a
          72           0           0          72          48    readv.o                                       libg-musl.a
          72           0           0          72          48    writev.o                                      libg-musl.a
          68           0           0          68          44    __pop_float.o                                 libg-musl.a
          28          32           8          68          44    stdout.o                                      libg-musl.a
          64           0           4          68          44    sbrk.o                                        libpic32c.a
          64           0           0          64          40    puts.o                                        libg-musl.a
          60           0           0          60          3c    _aeabi_uldivmod.o                             libgcc.a
          52           0           0          52          34    main.o                                        build/dsi_xlcdc_rgba8888_ws_9x75_curiosity_720x720_round/debug/_ext/1360937237/main.o
          52           0           0          52          34    __towrite_rw.o                                libg-musl.a
          52           0           0          52          34    fputs.o                                       libg-musl.a
          48           0           0          48          30    __towrite.o                                   libg-musl.a
          44           0           0          44          2c    expand_heap.o                                 libg-musl.a
          44           0           0          44          2c    strlen.o                                      libg-musl.a
          40           0           0          40          28    __sio_sprintf_dnpuxX.o                        libg-musl.a
          40           0           0          40          28    __int_vfprintf.o                              libg-musl.a
          40           0           0          40          28    __fwrite.o                                    libg-musl.a
          36           0           0          36          24    memcpy.o                                      libg-musl.a
          36           0           0          36          24    memset.o                                      libg-musl.a
          28           0           4          32          20    interrupts.o                                  build/dsi_xlcdc_rgba8888_ws_9x75_curiosity_720x720_round/debug/_ext/1295507646/interrupts.o
          32           0           0          32          20    tasks.o                                       build/dsi_xlcdc_rgba8888_ws_9x75_curiosity_720x720_round/debug/_ext/1295507646/tasks.o
          24           0           0          24          18    crtn.o                                        c:/program files/microchip/xc32/v4.35/bin/bin/../../lib/gcc/pic32c/8.3.1/arm/v5te/nofp/crtn.o
          24           0           0          24          18    crti.o                                        c:/program files/microchip/xc32/v4.35/bin/bin/../../lib/gcc/pic32c/8.3.1/arm/v5te/nofp/crti.o
          24           0           0          24          18    __init_stdio.o                                libg-musl.a
          20           0           0          20          14    setbuf.o                                      libg-musl.a
          16           0           0          16          10    __int_vsprintf.o                              libg-musl.a
          16           0           0          16          10    fault_handlers.o                              build/dsi_xlcdc_rgba8888_ws_9x75_curiosity_720x720_round/debug/_ext/1295507646/fault_handlers.o
          16           0           0          16          10    tolower.o                                     libg-musl.a
          16           0           0          16          10    toupper.o                                     libg-musl.a
           8           0           0           8           8    close.o                                       libpic32c.a
           8           0           0           8           8    lseek.o                                       libpic32c.a
           4           0           0           4           4    _dvmd_tls.o                                   libgcc.a
           0           0           4           4           4    __errno_location.o                            libg-musl.a
           4           0           0           4           4    __stderr.o                                    libg-musl.a
           0           0           4           4           4    __environ.o                                   libg-musl.a
           0           0        8556        8556        216c    misc                                          misc
           0           0           0        5798        16a6    padding                                       padding
--------------------------------------------------------------------------------
    11539222        9436     5542180    17096636     104dfbc    dist/dsi_xlcdc_rgba8888_ws_9x75_curiosity_720x720_round/debug/legato_db_9x75_curiosity_ws_4inch_round.X.debug.elf


Discarded input sections

 .text          0x00000000        0x0 c:/program files/microchip/xc32/v4.35/bin/bin/../../lib/gcc/pic32c/8.3.1/arm/v5te/nofp/crti.o
 .data          0x00000000        0x0 c:/program files/microchip/xc32/v4.35/bin/bin/../../lib/gcc/pic32c/8.3.1/arm/v5te/nofp/crti.o
 .bss           0x00000000        0x0 c:/program files/microchip/xc32/v4.35/bin/bin/../../lib/gcc/pic32c/8.3.1/arm/v5te/nofp/crti.o
 .xc_stack_usage.hdr
                0x00000000        0xe c:/program files/microchip/xc32/v4.35/bin/bin/../../lib/gcc/pic32c/8.3.1/arm/v5te/nofp/crti.o
 .xc_stack_usage
                0x00000000       0x26 c:/program files/microchip/xc32/v4.35/bin/bin/../../lib/gcc/pic32c/8.3.1/arm/v5te/nofp/crti.o
 .data          0x00000000        0x4 c:/program files/microchip/xc32/v4.35/bin/bin/../../lib/gcc/pic32c/8.3.1/arm/v5te/nofp/crtbegin.o
 .xc_stack_usage
                0x00000000       0x3c c:/program files/microchip/xc32/v4.35/bin/bin/../../lib/gcc/pic32c/8.3.1/arm/v5te/nofp/crtbegin.o
 .xc_stack_usage.hdr
                0x00000000        0xe c:/program files/microchip/xc32/v4.35/bin/bin/../../lib/gcc/pic32c/8.3.1/arm/v5te/nofp/crtbegin.o
 .text          0x00000000        0x0 build/dsi_xlcdc_rgba8888_ws_9x75_curiosity_720x720_round/debug/_ext/1985065589/drv_i2c.o
 .data          0x00000000        0x0 build/dsi_xlcdc_rgba8888_ws_9x75_curiosity_720x720_round/debug/_ext/1985065589/drv_i2c.o
 .bss           0x00000000        0x0 build/dsi_xlcdc_rgba8888_ws_9x75_curiosity_720x720_round/debug/_ext/1985065589/drv_i2c.o
 .text.DRV_I2C_Status
                0x00000000       0x18 build/dsi_xlcdc_rgba8888_ws_9x75_curiosity_720x720_round/debug/_ext/1985065589/drv_i2c.o
 .text.DRV_I2C_Close
                0x00000000      0x130 build/dsi_xlcdc_rgba8888_ws_9x75_curiosity_720x720_round/debug/_ext/1985065589/drv_i2c.o
 .text.DRV_I2C_TransferSetup
                0x00000000       0x78 build/dsi_xlcdc_rgba8888_ws_9x75_curiosity_720x720_round/debug/_ext/1985065589/drv_i2c.o
 .text.DRV_I2C_ReadTransferAdd
                0x00000000      0x2e0 build/dsi_xlcdc_rgba8888_ws_9x75_curiosity_720x720_round/debug/_ext/1985065589/drv_i2c.o
 .text.DRV_I2C_QueuePurge
                0x00000000      0x1b8 build/dsi_xlcdc_rgba8888_ws_9x75_curiosity_720x720_round/debug/_ext/1985065589/drv_i2c.o
 .text.DRV_I2C_TransferStatusGet
                0x00000000      0x150 build/dsi_xlcdc_rgba8888_ws_9x75_curiosity_720x720_round/debug/_ext/1985065589/drv_i2c.o
 .text          0x00000000        0x0 build/dsi_xlcdc_rgba8888_ws_9x75_curiosity_720x720_round/debug/_ext/2010836581/gfx_canvas_api.o
 .data          0x00000000        0x0 build/dsi_xlcdc_rgba8888_ws_9x75_curiosity_720x720_round/debug/_ext/2010836581/gfx_canvas_api.o
 .bss           0x00000000        0x0 build/dsi_xlcdc_rgba8888_ws_9x75_curiosity_720x720_round/debug/_ext/2010836581/gfx_canvas_api.o
 .text.gfxcDestroy
                0x00000000       0x30 build/dsi_xlcdc_rgba8888_ws_9x75_curiosity_720x720_round/debug/_ext/2010836581/gfx_canvas_api.o
 .text.gfxcGetlayer
                0x00000000       0x24 build/dsi_xlcdc_rgba8888_ws_9x75_curiosity_720x720_round/debug/_ext/2010836581/gfx_canvas_api.o
 .text.gfxcClearLayer
                0x00000000       0x3c build/dsi_xlcdc_rgba8888_ws_9x75_curiosity_720x720_round/debug/_ext/2010836581/gfx_canvas_api.o
 .text.gfxcGetWindowPosition
                0x00000000       0x54 build/dsi_xlcdc_rgba8888_ws_9x75_curiosity_720x720_round/debug/_ext/2010836581/gfx_canvas_api.o
 .text.gfxcGetWindowSize
                0x00000000       0x54 build/dsi_xlcdc_rgba8888_ws_9x75_curiosity_720x720_round/debug/_ext/2010836581/gfx_canvas_api.o
 .text.gfxcCopyBuffer
                0x00000000        0x4 build/dsi_xlcdc_rgba8888_ws_9x75_curiosity_720x720_round/debug/_ext/2010836581/gfx_canvas_api.o
 .text.gfxcSetBaseCanvasID
                0x00000000        0x4 build/dsi_xlcdc_rgba8888_ws_9x75_curiosity_720x720_round/debug/_ext/2010836581/gfx_canvas_api.o
 .text.gfxcSetEffectsInterval
                0x00000000        0x4 build/dsi_xlcdc_rgba8888_ws_9x75_curiosity_720x720_round/debug/_ext/2010836581/gfx_canvas_api.o
 .text.gfxcSetEffectsCallback
                0x00000000       0x2c build/dsi_xlcdc_rgba8888_ws_9x75_curiosity_720x720_round/debug/_ext/2010836581/gfx_canvas_api.o
 .text.gfxcStartEffectMove
                0x00000000       0xb4 build/dsi_xlcdc_rgba8888_ws_9x75_curiosity_720x720_round/debug/_ext/2010836581/gfx_canvas_api.o
 .text.gfxcStopEffect
                0x00000000       0x68 build/dsi_xlcdc_rgba8888_ws_9x75_curiosity_720x720_round/debug/_ext/2010836581/gfx_canvas_api.o
 .text.gfxcGetStatus
                0x00000000        0x4 build/dsi_xlcdc_rgba8888_ws_9x75_curiosity_720x720_round/debug/_ext/2010836581/gfx_canvas_api.o
 .text          0x00000000        0x0 build/dsi_xlcdc_rgba8888_ws_9x75_curiosity_720x720_round/debug/_ext/2010836581/gfx_canvas.o
 .data          0x00000000        0x0 build/dsi_xlcdc_rgba8888_ws_9x75_curiosity_720x720_round/debug/_ext/2010836581/gfx_canvas.o
 .bss           0x00000000        0x0 build/dsi_xlcdc_rgba8888_ws_9x75_curiosity_720x720_round/debug/_ext/2010836581/gfx_canvas.o
 .text.GFXC_FrameStart
                0x00000000        0x8 build/dsi_xlcdc_rgba8888_ws_9x75_curiosity_720x720_round/debug/_ext/2010836581/gfx_canvas.o
 .text.GFXC_FrameEnd
                0x00000000        0x8 build/dsi_xlcdc_rgba8888_ws_9x75_curiosity_720x720_round/debug/_ext/2010836581/gfx_canvas.o
 .text.GFXC_GetVSYNCCount
                0x00000000        0x8 build/dsi_xlcdc_rgba8888_ws_9x75_curiosity_720x720_round/debug/_ext/2010836581/gfx_canvas.o
 .text.GFXC_GetPixelBuffer
                0x00000000       0x38 build/dsi_xlcdc_rgba8888_ws_9x75_curiosity_720x720_round/debug/_ext/2010836581/gfx_canvas.o
 .text._gfxcCopyBuffer
                0x00000000       0xfc build/dsi_xlcdc_rgba8888_ws_9x75_curiosity_720x720_round/debug/_ext/2010836581/gfx_canvas.o
 .text._gfxcSetBaseCanvasID
                0x00000000       0x20 build/dsi_xlcdc_rgba8888_ws_9x75_curiosity_720x720_round/debug/_ext/2010836581/gfx_canvas.o
 .text.GFXC_GetLayerState
                0x00000000       0x64 build/dsi_xlcdc_rgba8888_ws_9x75_curiosity_720x720_round/debug/_ext/2010836581/gfx_canvas.o
 .text._gfxcSetEffectsIntervalMS
                0x00000000       0x48 build/dsi_xlcdc_rgba8888_ws_9x75_curiosity_720x720_round/debug/_ext/2010836581/gfx_canvas.o
 .text._gfxcStopEffects
                0x00000000       0x1c build/dsi_xlcdc_rgba8888_ws_9x75_curiosity_720x720_round/debug/_ext/2010836581/gfx_canvas.o
 .text._gfxcGetStatus
                0x00000000      0x154 build/dsi_xlcdc_rgba8888_ws_9x75_curiosity_720x720_round/debug/_ext/2010836581/gfx_canvas.o
 .bss.gfxcGPU   0x00000000        0x4 build/dsi_xlcdc_rgba8888_ws_9x75_curiosity_720x720_round/debug/_ext/2010836581/gfx_canvas.o
 .data.numLayers
                0x00000000        0x4 build/dsi_xlcdc_rgba8888_ws_9x75_curiosity_720x720_round/debug/_ext/2010836581/gfx_canvas.o
 .text          0x00000000        0x0 build/dsi_xlcdc_rgba8888_ws_9x75_curiosity_720x720_round/debug/_ext/1085405985/ws_touch_display.o
 .data          0x00000000        0x0 build/dsi_xlcdc_rgba8888_ws_9x75_curiosity_720x720_round/debug/_ext/1085405985/ws_touch_display.o
 .bss           0x00000000        0x0 build/dsi_xlcdc_rgba8888_ws_9x75_curiosity_720x720_round/debug/_ext/1085405985/ws_touch_display.o
 .text.DISP_WS_SetBrightness
                0x00000000       0x30 build/dsi_xlcdc_rgba8888_ws_9x75_curiosity_720x720_round/debug/_ext/1085405985/ws_touch_display.o
 .text          0x00000000        0x0 build/dsi_xlcdc_rgba8888_ws_9x75_curiosity_720x720_round/debug/_ext/219820618/drv_gfx2d.o
 .data          0x00000000        0x0 build/dsi_xlcdc_rgba8888_ws_9x75_curiosity_720x720_round/debug/_ext/219820618/drv_gfx2d.o
 .bss           0x00000000        0x0 build/dsi_xlcdc_rgba8888_ws_9x75_curiosity_720x720_round/debug/_ext/219820618/drv_gfx2d.o
 .text.DRV_GFX2D_Blend
                0x00000000       0x34 build/dsi_xlcdc_rgba8888_ws_9x75_curiosity_720x720_round/debug/_ext/219820618/drv_gfx2d.o
 .text.DRV_GFX2D_Rop
                0x00000000       0x44 build/dsi_xlcdc_rgba8888_ws_9x75_curiosity_720x720_round/debug/_ext/219820618/drv_gfx2d.o
 .text          0x00000000        0x0 build/dsi_xlcdc_rgba8888_ws_9x75_curiosity_720x720_round/debug/_ext/1247915868/plib_dsi.o
 .data          0x00000000        0x0 build/dsi_xlcdc_rgba8888_ws_9x75_curiosity_720x720_round/debug/_ext/1247915868/plib_dsi.o
 .bss           0x00000000        0x0 build/dsi_xlcdc_rgba8888_ws_9x75_curiosity_720x720_round/debug/_ext/1247915868/plib_dsi.o
 .text.DSI_CommandMode
                0x00000000       0x48 build/dsi_xlcdc_rgba8888_ws_9x75_curiosity_720x720_round/debug/_ext/1247915868/plib_dsi.o
 .text.DSI_Write
                0x00000000      0x18c build/dsi_xlcdc_rgba8888_ws_9x75_curiosity_720x720_round/debug/_ext/1247915868/plib_dsi.o
 .text          0x00000000        0x0 build/dsi_xlcdc_rgba8888_ws_9x75_curiosity_720x720_round/debug/_ext/225302149/plib_xlcdc.o
 .data          0x00000000        0x0 build/dsi_xlcdc_rgba8888_ws_9x75_curiosity_720x720_round/debug/_ext/225302149/plib_xlcdc.o
 .bss           0x00000000        0x0 build/dsi_xlcdc_rgba8888_ws_9x75_curiosity_720x720_round/debug/_ext/225302149/plib_xlcdc.o
 .text.XLCDC_EnableClocks
                0x00000000       0x50 build/dsi_xlcdc_rgba8888_ws_9x75_curiosity_720x720_round/debug/_ext/225302149/plib_xlcdc.o
 .text.XLCDC_SetupTimingEngine
                0x00000000       0x98 build/dsi_xlcdc_rgba8888_ws_9x75_curiosity_720x720_round/debug/_ext/225302149/plib_xlcdc.o
 .text.XLCDC_SetupBaseLayer
                0x00000000       0x60 build/dsi_xlcdc_rgba8888_ws_9x75_curiosity_720x720_round/debug/_ext/225302149/plib_xlcdc.o
 .text.XLCDC_SetupOVR1Layer
                0x00000000       0x7c build/dsi_xlcdc_rgba8888_ws_9x75_curiosity_720x720_round/debug/_ext/225302149/plib_xlcdc.o
 .text.XLCDC_SetupOVR2Layer
                0x00000000       0x7c build/dsi_xlcdc_rgba8888_ws_9x75_curiosity_720x720_round/debug/_ext/225302149/plib_xlcdc.o
 .text.XLCDC_EnableBacklight
                0x00000000       0x34 build/dsi_xlcdc_rgba8888_ws_9x75_curiosity_720x720_round/debug/_ext/225302149/plib_xlcdc.o
 .text.XLCDC_DisableBacklight
                0x00000000       0x34 build/dsi_xlcdc_rgba8888_ws_9x75_curiosity_720x720_round/debug/_ext/225302149/plib_xlcdc.o
 .text.XLCDC_SetBacklightBrightness
                0x00000000       0x1c build/dsi_xlcdc_rgba8888_ws_9x75_curiosity_720x720_round/debug/_ext/225302149/plib_xlcdc.o
 .text.XLCDC_SetLayerRGBColorMode
                0x00000000      0x1a4 build/dsi_xlcdc_rgba8888_ws_9x75_curiosity_720x720_round/debug/_ext/225302149/plib_xlcdc.o
 .text.XLCDC_SetLayerPStride
                0x00000000       0xfc build/dsi_xlcdc_rgba8888_ws_9x75_curiosity_720x720_round/debug/_ext/225302149/plib_xlcdc.o
 .text.XLCDC_UpdateLayerAttributes
                0x00000000       0xc8 build/dsi_xlcdc_rgba8888_ws_9x75_curiosity_720x720_round/debug/_ext/225302149/plib_xlcdc.o
 .text.XLCDC_MIPIColorModeSignalEnable
                0x00000000       0x60 build/dsi_xlcdc_rgba8888_ws_9x75_curiosity_720x720_round/debug/_ext/225302149/plib_xlcdc.o
 .text.XLCDC_Stop
                0x00000000       0xac build/dsi_xlcdc_rgba8888_ws_9x75_curiosity_720x720_round/debug/_ext/225302149/plib_xlcdc.o
 .text          0x00000000        0x0 build/dsi_xlcdc_rgba8888_ws_9x75_curiosity_720x720_round/debug/_ext/505007713/drv_gfx_xlcdc.o
 .data          0x00000000        0x0 build/dsi_xlcdc_rgba8888_ws_9x75_curiosity_720x720_round/debug/_ext/505007713/drv_gfx_xlcdc.o
 .bss           0x00000000        0x0 build/dsi_xlcdc_rgba8888_ws_9x75_curiosity_720x720_round/debug/_ext/505007713/drv_gfx_xlcdc.o
 .rodata        0x00000000        0x8 build/dsi_xlcdc_rgba8888_ws_9x75_curiosity_720x720_round/debug/_ext/505007713/drv_gfx_xlcdc.o
 .data.DRIVER_NAME
                0x00000000        0x4 build/dsi_xlcdc_rgba8888_ws_9x75_curiosity_720x720_round/debug/_ext/505007713/drv_gfx_xlcdc.o
 .text          0x00000000        0x0 build/dsi_xlcdc_rgba8888_ws_9x75_curiosity_720x720_round/debug/_ext/1966656405/gfx_driver.o
 .data          0x00000000        0x0 build/dsi_xlcdc_rgba8888_ws_9x75_curiosity_720x720_round/debug/_ext/1966656405/gfx_driver.o
 .bss           0x00000000        0x0 build/dsi_xlcdc_rgba8888_ws_9x75_curiosity_720x720_round/debug/_ext/1966656405/gfx_driver.o
 .text.no_conv  0x00000000        0x4 build/dsi_xlcdc_rgba8888_ws_9x75_curiosity_720x720_round/debug/_ext/1966656405/gfx_driver.o
 .text.gs8_rgb332
                0x00000000       0x10 build/dsi_xlcdc_rgba8888_ws_9x75_curiosity_720x720_round/debug/_ext/1966656405/gfx_driver.o
 .text.gs8_rgb565
                0x00000000       0x20 build/dsi_xlcdc_rgba8888_ws_9x75_curiosity_720x720_round/debug/_ext/1966656405/gfx_driver.o
 .text.gs8_rgba5551
                0x00000000       0x28 build/dsi_xlcdc_rgba8888_ws_9x75_curiosity_720x720_round/debug/_ext/1966656405/gfx_driver.o
 .text.gs8_rgb888
                0x00000000       0x10 build/dsi_xlcdc_rgba8888_ws_9x75_curiosity_720x720_round/debug/_ext/1966656405/gfx_driver.o
 .text.gs8_rgba8888
                0x00000000       0x14 build/dsi_xlcdc_rgba8888_ws_9x75_curiosity_720x720_round/debug/_ext/1966656405/gfx_driver.o
 .text.gs8_argb8888
                0x00000000       0x14 build/dsi_xlcdc_rgba8888_ws_9x75_curiosity_720x720_round/debug/_ext/1966656405/gfx_driver.o
 .text.rgb332_gs8
                0x00000000       0x9c build/dsi_xlcdc_rgba8888_ws_9x75_curiosity_720x720_round/debug/_ext/1966656405/gfx_driver.o
 .text.rgb332_rgb565
                0x00000000       0x2c build/dsi_xlcdc_rgba8888_ws_9x75_curiosity_720x720_round/debug/_ext/1966656405/gfx_driver.o
 .text.rgb332_rgba5551
                0x00000000       0x2c build/dsi_xlcdc_rgba8888_ws_9x75_curiosity_720x720_round/debug/_ext/1966656405/gfx_driver.o
 .text.rgb332_rgb888
                0x00000000       0x30 build/dsi_xlcdc_rgba8888_ws_9x75_curiosity_720x720_round/debug/_ext/1966656405/gfx_driver.o
 .text.rgb332_rgba8888
                0x00000000       0x34 build/dsi_xlcdc_rgba8888_ws_9x75_curiosity_720x720_round/debug/_ext/1966656405/gfx_driver.o
 .text.rgb332_argb8888
                0x00000000       0x30 build/dsi_xlcdc_rgba8888_ws_9x75_curiosity_720x720_round/debug/_ext/1966656405/gfx_driver.o
 .text.rgb565_gs8
                0x00000000       0x9c build/dsi_xlcdc_rgba8888_ws_9x75_curiosity_720x720_round/debug/_ext/1966656405/gfx_driver.o
 .text.rgb565_rgb332
                0x00000000       0x20 build/dsi_xlcdc_rgba8888_ws_9x75_curiosity_720x720_round/debug/_ext/1966656405/gfx_driver.o
 .text.rgb565_rgba5551
                0x00000000       0x20 build/dsi_xlcdc_rgba8888_ws_9x75_curiosity_720x720_round/debug/_ext/1966656405/gfx_driver.o
 .text.rgb565_rgb888
                0x00000000       0x24 build/dsi_xlcdc_rgba8888_ws_9x75_curiosity_720x720_round/debug/_ext/1966656405/gfx_driver.o
 .text.rgb565_rgba8888
                0x00000000       0x2c build/dsi_xlcdc_rgba8888_ws_9x75_curiosity_720x720_round/debug/_ext/1966656405/gfx_driver.o
 .text.rgb565_argb8888
                0x00000000       0x28 build/dsi_xlcdc_rgba8888_ws_9x75_curiosity_720x720_round/debug/_ext/1966656405/gfx_driver.o
 .text.rgba5551_rgb332
                0x00000000       0x20 build/dsi_xlcdc_rgba8888_ws_9x75_curiosity_720x720_round/debug/_ext/1966656405/gfx_driver.o
 .text.rgba5551_rgb565
                0x00000000       0x1c build/dsi_xlcdc_rgba8888_ws_9x75_curiosity_720x720_round/debug/_ext/1966656405/gfx_driver.o
 .text.rgba5551_rgb888
                0x00000000       0x30 build/dsi_xlcdc_rgba8888_ws_9x75_curiosity_720x720_round/debug/_ext/1966656405/gfx_driver.o
 .text.rgba5551_rgba8888
                0x00000000       0x38 build/dsi_xlcdc_rgba8888_ws_9x75_curiosity_720x720_round/debug/_ext/1966656405/gfx_driver.o
 .text.rgba5551_argb8888
                0x00000000       0x3c build/dsi_xlcdc_rgba8888_ws_9x75_curiosity_720x720_round/debug/_ext/1966656405/gfx_driver.o
 .text.rgb888_rgb332
                0x00000000       0x24 build/dsi_xlcdc_rgba8888_ws_9x75_curiosity_720x720_round/debug/_ext/1966656405/gfx_driver.o
 .text.rgb888_rgb565
                0x00000000       0x20 build/dsi_xlcdc_rgba8888_ws_9x75_curiosity_720x720_round/debug/_ext/1966656405/gfx_driver.o
 .text.rgb888_rgba5551
                0x00000000       0x28 build/dsi_xlcdc_rgba8888_ws_9x75_curiosity_720x720_round/debug/_ext/1966656405/gfx_driver.o
 .text.rgb888_rgba8888
                0x00000000        0xc build/dsi_xlcdc_rgba8888_ws_9x75_curiosity_720x720_round/debug/_ext/1966656405/gfx_driver.o
 .text.rgb888_argb8888
                0x00000000        0x8 build/dsi_xlcdc_rgba8888_ws_9x75_curiosity_720x720_round/debug/_ext/1966656405/gfx_driver.o
 .text.rgba8888_rgb332
                0x00000000       0x20 build/dsi_xlcdc_rgba8888_ws_9x75_curiosity_720x720_round/debug/_ext/1966656405/gfx_driver.o
 .text.rgba8888_rgb565
                0x00000000       0x20 build/dsi_xlcdc_rgba8888_ws_9x75_curiosity_720x720_round/debug/_ext/1966656405/gfx_driver.o
 .text.rgba8888_rgba5551
                0x00000000       0x34 build/dsi_xlcdc_rgba8888_ws_9x75_curiosity_720x720_round/debug/_ext/1966656405/gfx_driver.o
 .text.rgba8888_rgb888
                0x00000000        0x8 build/dsi_xlcdc_rgba8888_ws_9x75_curiosity_720x720_round/debug/_ext/1966656405/gfx_driver.o
 .text.rgba8888_argb8888
                0x00000000        0x8 build/dsi_xlcdc_rgba8888_ws_9x75_curiosity_720x720_round/debug/_ext/1966656405/gfx_driver.o
 .text.argb8888_rgba5551
                0x00000000       0x34 build/dsi_xlcdc_rgba8888_ws_9x75_curiosity_720x720_round/debug/_ext/1966656405/gfx_driver.o
 .text.argb8888_rgb888
                0x00000000        0x8 build/dsi_xlcdc_rgba8888_ws_9x75_curiosity_720x720_round/debug/_ext/1966656405/gfx_driver.o
 .text.argb8888_rgba8888
                0x00000000        0x8 build/dsi_xlcdc_rgba8888_ws_9x75_curiosity_720x720_round/debug/_ext/1966656405/gfx_driver.o
 .text.gfxIndexGet1bpp
                0x00000000       0x20 build/dsi_xlcdc_rgba8888_ws_9x75_curiosity_720x720_round/debug/_ext/1966656405/gfx_driver.o
 .text.gfxIndexGet4bpp
                0x00000000       0x18 build/dsi_xlcdc_rgba8888_ws_9x75_curiosity_720x720_round/debug/_ext/1966656405/gfx_driver.o
 .text.gfxIndexGet
                0x00000000       0x54 build/dsi_xlcdc_rgba8888_ws_9x75_curiosity_720x720_round/debug/_ext/1966656405/gfx_driver.o
 .text.gfxGet1byte
                0x00000000        0x8 build/dsi_xlcdc_rgba8888_ws_9x75_curiosity_720x720_round/debug/_ext/1966656405/gfx_driver.o
 .text.gfxGet2byte
                0x00000000        0x8 build/dsi_xlcdc_rgba8888_ws_9x75_curiosity_720x720_round/debug/_ext/1966656405/gfx_driver.o
 .text.gfxGet3byte
                0x00000000       0x1c build/dsi_xlcdc_rgba8888_ws_9x75_curiosity_720x720_round/debug/_ext/1966656405/gfx_driver.o
 .text.gfxGet4byte
                0x00000000        0x8 build/dsi_xlcdc_rgba8888_ws_9x75_curiosity_720x720_round/debug/_ext/1966656405/gfx_driver.o
 .text.gfxSet1byte
                0x00000000        0xc build/dsi_xlcdc_rgba8888_ws_9x75_curiosity_720x720_round/debug/_ext/1966656405/gfx_driver.o
 .text.gfxSet2byte
                0x00000000        0xc build/dsi_xlcdc_rgba8888_ws_9x75_curiosity_720x720_round/debug/_ext/1966656405/gfx_driver.o
 .text.gfxSet3byte
                0x00000000       0x1c build/dsi_xlcdc_rgba8888_ws_9x75_curiosity_720x720_round/debug/_ext/1966656405/gfx_driver.o
 .text.gfxSet4byte
                0x00000000        0xc build/dsi_xlcdc_rgba8888_ws_9x75_curiosity_720x720_round/debug/_ext/1966656405/gfx_driver.o
 .text.rgba8888_gs8
                0x00000000        0x4 build/dsi_xlcdc_rgba8888_ws_9x75_curiosity_720x720_round/debug/_ext/1966656405/gfx_driver.o
 .text.rgba5551_gs8
                0x00000000        0x4 build/dsi_xlcdc_rgba8888_ws_9x75_curiosity_720x720_round/debug/_ext/1966656405/gfx_driver.o
 .text.rgb888_gs8
                0x00000000        0x4 build/dsi_xlcdc_rgba8888_ws_9x75_curiosity_720x720_round/debug/_ext/1966656405/gfx_driver.o
 .text.gfxColorChannelRed
                0x00000000       0x20 build/dsi_xlcdc_rgba8888_ws_9x75_curiosity_720x720_round/debug/_ext/1966656405/gfx_driver.o
 .text.gfxColorChannelGreen
                0x00000000       0x20 build/dsi_xlcdc_rgba8888_ws_9x75_curiosity_720x720_round/debug/_ext/1966656405/gfx_driver.o
 .text.gfxColorChannelBlue
                0x00000000       0x20 build/dsi_xlcdc_rgba8888_ws_9x75_curiosity_720x720_round/debug/_ext/1966656405/gfx_driver.o
 .text.gfxColorChannelAlpha
                0x00000000       0x30 build/dsi_xlcdc_rgba8888_ws_9x75_curiosity_720x720_round/debug/_ext/1966656405/gfx_driver.o
 .text.gfxScaleIntegerSigned
                0x00000000       0x44 build/dsi_xlcdc_rgba8888_ws_9x75_curiosity_720x720_round/debug/_ext/1966656405/gfx_driver.o
 .text.gfxScaleInteger
                0x00000000       0x44 build/dsi_xlcdc_rgba8888_ws_9x75_curiosity_720x720_round/debug/_ext/1966656405/gfx_driver.o
 .text.gfxPixelBufferOffsetGet_Unsafe
                0x00000000       0x28 build/dsi_xlcdc_rgba8888_ws_9x75_curiosity_720x720_round/debug/_ext/1966656405/gfx_driver.o
 .text.gfxPixelBufferGet
                0x00000000       0x84 build/dsi_xlcdc_rgba8888_ws_9x75_curiosity_720x720_round/debug/_ext/1966656405/gfx_driver.o
 .text.gfxPixelBufferGet_Unsafe
                0x00000000       0x7c build/dsi_xlcdc_rgba8888_ws_9x75_curiosity_720x720_round/debug/_ext/1966656405/gfx_driver.o
 .text.gfxPixelBufferGetIndex
                0x00000000       0x38 build/dsi_xlcdc_rgba8888_ws_9x75_curiosity_720x720_round/debug/_ext/1966656405/gfx_driver.o
 .text.gfxPixelBufferGetIndex_Unsafe
                0x00000000       0x24 build/dsi_xlcdc_rgba8888_ws_9x75_curiosity_720x720_round/debug/_ext/1966656405/gfx_driver.o
 .text.gfxColorConvert
                0x00000000       0x20 build/dsi_xlcdc_rgba8888_ws_9x75_curiosity_720x720_round/debug/_ext/1966656405/gfx_driver.o
 .data.gfxIndexGet_FnTable
                0x00000000       0x18 build/dsi_xlcdc_rgba8888_ws_9x75_curiosity_720x720_round/debug/_ext/1966656405/gfx_driver.o
 .data.gfxPixelGet_FnTable
                0x00000000       0x10 build/dsi_xlcdc_rgba8888_ws_9x75_curiosity_720x720_round/debug/_ext/1966656405/gfx_driver.o
 .data.gfxPixelSet_FnTable
                0x00000000       0x10 build/dsi_xlcdc_rgba8888_ws_9x75_curiosity_720x720_round/debug/_ext/1966656405/gfx_driver.o
 .data.gfx_color_convert_table
                0x00000000      0x1e4 build/dsi_xlcdc_rgba8888_ws_9x75_curiosity_720x720_round/debug/_ext/1966656405/gfx_driver.o
 .text          0x00000000        0x0 build/dsi_xlcdc_rgba8888_ws_9x75_curiosity_720x720_round/debug/_ext/105237591/legato_error.o
 .data          0x00000000        0x0 build/dsi_xlcdc_rgba8888_ws_9x75_curiosity_720x720_round/debug/_ext/105237591/legato_error.o
 .bss           0x00000000        0x0 build/dsi_xlcdc_rgba8888_ws_9x75_curiosity_720x720_round/debug/_ext/105237591/legato_error.o
 .debug_info    0x00000000      0x48a build/dsi_xlcdc_rgba8888_ws_9x75_curiosity_720x720_round/debug/_ext/105237591/legato_error.o
 .debug_abbrev  0x00000000       0xb5 build/dsi_xlcdc_rgba8888_ws_9x75_curiosity_720x720_round/debug/_ext/105237591/legato_error.o
 .debug_aranges
                0x00000000       0x18 build/dsi_xlcdc_rgba8888_ws_9x75_curiosity_720x720_round/debug/_ext/105237591/legato_error.o
 .debug_line    0x00000000       0xd0 build/dsi_xlcdc_rgba8888_ws_9x75_curiosity_720x720_round/debug/_ext/105237591/legato_error.o
 .debug_str     0x00000000        0x9 build/dsi_xlcdc_rgba8888_ws_9x75_curiosity_720x720_round/debug/_ext/105237591/legato_error.o
 .comment       0x00000000       0x2c build/dsi_xlcdc_rgba8888_ws_9x75_curiosity_720x720_round/debug/_ext/105237591/legato_error.o
 .ARM.attributes
                0x00000000       0x32 build/dsi_xlcdc_rgba8888_ws_9x75_curiosity_720x720_round/debug/_ext/105237591/legato_error.o
 .text          0x00000000        0x0 build/dsi_xlcdc_rgba8888_ws_9x75_curiosity_720x720_round/debug/_ext/105237591/legato_math.o
 .data          0x00000000        0x0 build/dsi_xlcdc_rgba8888_ws_9x75_curiosity_720x720_round/debug/_ext/105237591/legato_math.o
 .bss           0x00000000        0x0 build/dsi_xlcdc_rgba8888_ws_9x75_curiosity_720x720_round/debug/_ext/105237591/legato_math.o
 .text.leNormalizeAngle
                0x00000000       0x3c build/dsi_xlcdc_rgba8888_ws_9x75_curiosity_720x720_round/debug/_ext/105237591/legato_math.o
 .text.leSin    0x00000000       0xac build/dsi_xlcdc_rgba8888_ws_9x75_curiosity_720x720_round/debug/_ext/105237591/legato_math.o
 .text.leCos    0x00000000       0xa0 build/dsi_xlcdc_rgba8888_ws_9x75_curiosity_720x720_round/debug/_ext/105237591/legato_math.o
 .text.leEllipsePoint
                0x00000000      0x290 build/dsi_xlcdc_rgba8888_ws_9x75_curiosity_720x720_round/debug/_ext/105237591/legato_math.o
 .text.leAtan   0x00000000        0x4 build/dsi_xlcdc_rgba8888_ws_9x75_curiosity_720x720_round/debug/_ext/105237591/legato_math.o
 .text.leMinf   0x00000000       0x20 build/dsi_xlcdc_rgba8888_ws_9x75_curiosity_720x720_round/debug/_ext/105237591/legato_math.o
 .text.leMaxf   0x00000000       0x20 build/dsi_xlcdc_rgba8888_ws_9x75_curiosity_720x720_round/debug/_ext/105237591/legato_math.o
 .text.leClampf
                0x00000000       0x50 build/dsi_xlcdc_rgba8888_ws_9x75_curiosity_720x720_round/debug/_ext/105237591/legato_math.o
 .text.lePercentOfDec
                0x00000000       0x68 build/dsi_xlcdc_rgba8888_ws_9x75_curiosity_720x720_round/debug/_ext/105237591/legato_math.o
 .text.leScaleIntegerSigned
                0x00000000       0x44 build/dsi_xlcdc_rgba8888_ws_9x75_curiosity_720x720_round/debug/_ext/105237591/legato_math.o
 .text.leAbsoluteValue
                0x00000000        0xc build/dsi_xlcdc_rgba8888_ws_9x75_curiosity_720x720_round/debug/_ext/105237591/legato_math.o
 .text.leDivideRounding
                0x00000000       0x64 build/dsi_xlcdc_rgba8888_ws_9x75_curiosity_720x720_round/debug/_ext/105237591/legato_math.o
 .text.leSortPointsX
                0x00000000       0x30 build/dsi_xlcdc_rgba8888_ws_9x75_curiosity_720x720_round/debug/_ext/105237591/legato_math.o
 .text.leSortPointsY
                0x00000000       0x34 build/dsi_xlcdc_rgba8888_ws_9x75_curiosity_720x720_round/debug/_ext/105237591/legato_math.o
 .text.leGetXGivenYOnLine
                0x00000000       0x58 build/dsi_xlcdc_rgba8888_ws_9x75_curiosity_720x720_round/debug/_ext/105237591/legato_math.o
 .text.leGetYGivenXOnLine
                0x00000000       0x54 build/dsi_xlcdc_rgba8888_ws_9x75_curiosity_720x720_round/debug/_ext/105237591/legato_math.o
 .text.leNormalizeAngles
                0x00000000       0x80 build/dsi_xlcdc_rgba8888_ws_9x75_curiosity_720x720_round/debug/_ext/105237591/legato_math.o
 .text.leDegreesFromPercent
                0x00000000       0xc4 build/dsi_xlcdc_rgba8888_ws_9x75_curiosity_720x720_round/debug/_ext/105237591/legato_math.o
 .text.leDegreesToPercent
                0x00000000       0x48 build/dsi_xlcdc_rgba8888_ws_9x75_curiosity_720x720_round/debug/_ext/105237591/legato_math.o
 .text          0x00000000        0x0 build/dsi_xlcdc_rgba8888_ws_9x75_curiosity_720x720_round/debug/_ext/105237591/legato_rect.o
 .data          0x00000000        0x0 build/dsi_xlcdc_rgba8888_ws_9x75_curiosity_720x720_round/debug/_ext/105237591/legato_rect.o
 .bss           0x00000000        0x0 build/dsi_xlcdc_rgba8888_ws_9x75_curiosity_720x720_round/debug/_ext/105237591/legato_rect.o
 .text.leRectFromPoints
                0x00000000       0x58 build/dsi_xlcdc_rgba8888_ws_9x75_curiosity_720x720_round/debug/_ext/105237591/legato_rect.o
 .text.leRectToPoints
                0x00000000       0x30 build/dsi_xlcdc_rgba8888_ws_9x75_curiosity_720x720_round/debug/_ext/105237591/legato_rect.o
 .text.leRectSplit
                0x00000000      0x1b4 build/dsi_xlcdc_rgba8888_ws_9x75_curiosity_720x720_round/debug/_ext/105237591/legato_rect.o
 .text          0x00000000        0x0 build/dsi_xlcdc_rgba8888_ws_9x75_curiosity_720x720_round/debug/_ext/105237591/legato_utils.o
 .data          0x00000000        0x0 build/dsi_xlcdc_rgba8888_ws_9x75_curiosity_720x720_round/debug/_ext/105237591/legato_utils.o
 .bss           0x00000000        0x0 build/dsi_xlcdc_rgba8888_ws_9x75_curiosity_720x720_round/debug/_ext/105237591/legato_utils.o
 .text.leUtils_PointToScreenSpace
                0x00000000       0x38 build/dsi_xlcdc_rgba8888_ws_9x75_curiosity_720x720_round/debug/_ext/105237591/legato_utils.o
 .text.leUtils_PointScreenToLocalSpace
                0x00000000       0x5c build/dsi_xlcdc_rgba8888_ws_9x75_curiosity_720x720_round/debug/_ext/105237591/legato_utils.o
 .text.leUtils_ClipRectToParent
                0x00000000       0x84 build/dsi_xlcdc_rgba8888_ws_9x75_curiosity_720x720_round/debug/_ext/105237591/legato_utils.o
 .text.leUtils_RectToParentSpace
                0x00000000       0x3c build/dsi_xlcdc_rgba8888_ws_9x75_curiosity_720x720_round/debug/_ext/105237591/legato_utils.o
 .text.leUtils_RectFromParentSpace
                0x00000000       0x3c build/dsi_xlcdc_rgba8888_ws_9x75_curiosity_720x720_round/debug/_ext/105237591/legato_utils.o
 .text.leUtils_ChildIntersectsParent
                0x00000000       0x64 build/dsi_xlcdc_rgba8888_ws_9x75_curiosity_720x720_round/debug/_ext/105237591/legato_utils.o
 .text.leUtils_GetNextHighestWidget
                0x00000000       0x74 build/dsi_xlcdc_rgba8888_ws_9x75_curiosity_720x720_round/debug/_ext/105237591/legato_utils.o
 .text.leUtils_PointLogicalToScratch
                0x00000000        0x4 build/dsi_xlcdc_rgba8888_ws_9x75_curiosity_720x720_round/debug/_ext/105237591/legato_utils.o
 .text.leUtils_RectLogicalToScratch
                0x00000000        0x4 build/dsi_xlcdc_rgba8888_ws_9x75_curiosity_720x720_round/debug/_ext/105237591/legato_utils.o
 .text          0x00000000        0x0 build/dsi_xlcdc_rgba8888_ws_9x75_curiosity_720x720_round/debug/_ext/105237591/legato_color_blend.o
 .data          0x00000000        0x0 build/dsi_xlcdc_rgba8888_ws_9x75_curiosity_720x720_round/debug/_ext/105237591/legato_color_blend.o
 .bss           0x00000000        0x0 build/dsi_xlcdc_rgba8888_ws_9x75_curiosity_720x720_round/debug/_ext/105237591/legato_color_blend.o
 .text          0x00000000        0x0 build/dsi_xlcdc_rgba8888_ws_9x75_curiosity_720x720_round/debug/_ext/105237591/legato_color.o
 .data          0x00000000        0x0 build/dsi_xlcdc_rgba8888_ws_9x75_curiosity_720x720_round/debug/_ext/105237591/legato_color.o
 .bss           0x00000000        0x0 build/dsi_xlcdc_rgba8888_ws_9x75_curiosity_720x720_round/debug/_ext/105237591/legato_color.o
 .text.leColorChannelRed
                0x00000000       0x20 build/dsi_xlcdc_rgba8888_ws_9x75_curiosity_720x720_round/debug/_ext/105237591/legato_color.o
 .text.leColorChannelGreen
                0x00000000       0x20 build/dsi_xlcdc_rgba8888_ws_9x75_curiosity_720x720_round/debug/_ext/105237591/legato_color.o
 .text.leColorChannelBlue
                0x00000000       0x20 build/dsi_xlcdc_rgba8888_ws_9x75_curiosity_720x720_round/debug/_ext/105237591/legato_color.o
 .text          0x00000000        0x0 build/dsi_xlcdc_rgba8888_ws_9x75_curiosity_720x720_round/debug/_ext/105237591/legato_color_lerp.o
 .data          0x00000000        0x0 build/dsi_xlcdc_rgba8888_ws_9x75_curiosity_720x720_round/debug/_ext/105237591/legato_color_lerp.o
 .bss           0x00000000        0x0 build/dsi_xlcdc_rgba8888_ws_9x75_curiosity_720x720_round/debug/_ext/105237591/legato_color_lerp.o
 .text.leColorLerp
                0x00000000       0x3c build/dsi_xlcdc_rgba8888_ws_9x75_curiosity_720x720_round/debug/_ext/105237591/legato_color_lerp.o
 .text          0x00000000        0x0 build/dsi_xlcdc_rgba8888_ws_9x75_curiosity_720x720_round/debug/_ext/105237591/legato_pixelbuffer.o
 .data          0x00000000        0x0 build/dsi_xlcdc_rgba8888_ws_9x75_curiosity_720x720_round/debug/_ext/105237591/legato_pixelbuffer.o
 .bss           0x00000000        0x0 build/dsi_xlcdc_rgba8888_ws_9x75_curiosity_720x720_round/debug/_ext/105237591/legato_pixelbuffer.o
 .text.lePixelBufferOffsetGet_Unsafe
                0x00000000       0x44 build/dsi_xlcdc_rgba8888_ws_9x75_curiosity_720x720_round/debug/_ext/105237591/legato_pixelbuffer.o
 .text.lePixelBufferGet
                0x00000000       0x84 build/dsi_xlcdc_rgba8888_ws_9x75_curiosity_720x720_round/debug/_ext/105237591/legato_pixelbuffer.o
 .text.lePixelBufferClipRect
                0x00000000       0x78 build/dsi_xlcdc_rgba8888_ws_9x75_curiosity_720x720_round/debug/_ext/105237591/legato_pixelbuffer.o
 .text.lePixelBufferGetIndex
                0x00000000       0x38 build/dsi_xlcdc_rgba8888_ws_9x75_curiosity_720x720_round/debug/_ext/105237591/legato_pixelbuffer.o
 .text          0x00000000        0x0 build/dsi_xlcdc_rgba8888_ws_9x75_curiosity_720x720_round/debug/_ext/105237591/legato_color_value.o
 .data          0x00000000        0x0 build/dsi_xlcdc_rgba8888_ws_9x75_curiosity_720x720_round/debug/_ext/105237591/legato_color_value.o
 .bss           0x00000000        0x0 build/dsi_xlcdc_rgba8888_ws_9x75_curiosity_720x720_round/debug/_ext/105237591/legato_color_value.o
 .text.leColorValue
                0x00000000       0x2c build/dsi_xlcdc_rgba8888_ws_9x75_curiosity_720x720_round/debug/_ext/105237591/legato_color_value.o
 .rodata.values
                0x00000000       0x48 build/dsi_xlcdc_rgba8888_ws_9x75_curiosity_720x720_round/debug/_ext/105237591/legato_color_value.o
 .debug_info    0x00000000      0x801 build/dsi_xlcdc_rgba8888_ws_9x75_curiosity_720x720_round/debug/_ext/105237591/legato_color_value.o
 .debug_abbrev  0x00000000      0x180 build/dsi_xlcdc_rgba8888_ws_9x75_curiosity_720x720_round/debug/_ext/105237591/legato_color_value.o
 .debug_loc     0x00000000       0x67 build/dsi_xlcdc_rgba8888_ws_9x75_curiosity_720x720_round/debug/_ext/105237591/legato_color_value.o
 .debug_aranges
                0x00000000       0x20 build/dsi_xlcdc_rgba8888_ws_9x75_curiosity_720x720_round/debug/_ext/105237591/legato_color_value.o
 .debug_ranges  0x00000000       0x10 build/dsi_xlcdc_rgba8888_ws_9x75_curiosity_720x720_round/debug/_ext/105237591/legato_color_value.o
 .debug_line    0x00000000      0x126 build/dsi_xlcdc_rgba8888_ws_9x75_curiosity_720x720_round/debug/_ext/105237591/legato_color_value.o
 .debug_str     0x00000000       0x30 build/dsi_xlcdc_rgba8888_ws_9x75_curiosity_720x720_round/debug/_ext/105237591/legato_color_value.o
 .comment       0x00000000       0x2c build/dsi_xlcdc_rgba8888_ws_9x75_curiosity_720x720_round/debug/_ext/105237591/legato_color_value.o
 .debug_frame   0x00000000       0x20 build/dsi_xlcdc_rgba8888_ws_9x75_curiosity_720x720_round/debug/_ext/105237591/legato_color_value.o
 .ARM.attributes
                0x00000000       0x2c build/dsi_xlcdc_rgba8888_ws_9x75_curiosity_720x720_round/debug/_ext/105237591/legato_color_value.o
 .text          0x00000000        0x0 build/dsi_xlcdc_rgba8888_ws_9x75_curiosity_720x720_round/debug/_ext/105237591/legato_color_convert.o
 .data          0x00000000        0x0 build/dsi_xlcdc_rgba8888_ws_9x75_curiosity_720x720_round/debug/_ext/105237591/legato_color_convert.o
 .bss           0x00000000        0x0 build/dsi_xlcdc_rgba8888_ws_9x75_curiosity_720x720_round/debug/_ext/105237591/legato_color_convert.o
 .text          0x00000000        0x0 build/dsi_xlcdc_rgba8888_ws_9x75_curiosity_720x720_round/debug/_ext/884805853/legato_event.o
 .data          0x00000000        0x0 build/dsi_xlcdc_rgba8888_ws_9x75_curiosity_720x720_round/debug/_ext/884805853/legato_event.o
 .bss           0x00000000        0x0 build/dsi_xlcdc_rgba8888_ws_9x75_curiosity_720x720_round/debug/_ext/884805853/legato_event.o
 .text.leEvent_Shutdown
                0x00000000        0xc build/dsi_xlcdc_rgba8888_ws_9x75_curiosity_720x720_round/debug/_ext/884805853/legato_event.o
 .text.leEvent_GetCount
                0x00000000       0x10 build/dsi_xlcdc_rgba8888_ws_9x75_curiosity_720x720_round/debug/_ext/884805853/legato_event.o
 .text.leEvent_SetFilter
                0x00000000       0x14 build/dsi_xlcdc_rgba8888_ws_9x75_curiosity_720x720_round/debug/_ext/884805853/legato_event.o
 .text.leEvent_ClearList
                0x00000000       0x18 build/dsi_xlcdc_rgba8888_ws_9x75_curiosity_720x720_round/debug/_ext/884805853/legato_event.o
 .text.leWidgetEvent_Accept
                0x00000000       0x14 build/dsi_xlcdc_rgba8888_ws_9x75_curiosity_720x720_round/debug/_ext/884805853/legato_event.o
 .text          0x00000000        0x0 build/dsi_xlcdc_rgba8888_ws_9x75_curiosity_720x720_round/debug/_ext/884805853/legato_stream.o
 .data          0x00000000        0x0 build/dsi_xlcdc_rgba8888_ws_9x75_curiosity_720x720_round/debug/_ext/884805853/legato_stream.o
 .bss           0x00000000        0x0 build/dsi_xlcdc_rgba8888_ws_9x75_curiosity_720x720_round/debug/_ext/884805853/legato_stream.o
 .debug_info    0x00000000      0x489 build/dsi_xlcdc_rgba8888_ws_9x75_curiosity_720x720_round/debug/_ext/884805853/legato_stream.o
 .debug_abbrev  0x00000000       0xb5 build/dsi_xlcdc_rgba8888_ws_9x75_curiosity_720x720_round/debug/_ext/884805853/legato_stream.o
 .debug_aranges
                0x00000000       0x18 build/dsi_xlcdc_rgba8888_ws_9x75_curiosity_720x720_round/debug/_ext/884805853/legato_stream.o
 .debug_line    0x00000000       0xd0 build/dsi_xlcdc_rgba8888_ws_9x75_curiosity_720x720_round/debug/_ext/884805853/legato_stream.o
 .debug_str     0x00000000        0x9 build/dsi_xlcdc_rgba8888_ws_9x75_curiosity_720x720_round/debug/_ext/884805853/legato_stream.o
 .comment       0x00000000       0x2c build/dsi_xlcdc_rgba8888_ws_9x75_curiosity_720x720_round/debug/_ext/884805853/legato_stream.o
 .ARM.attributes
                0x00000000       0x32 build/dsi_xlcdc_rgba8888_ws_9x75_curiosity_720x720_round/debug/_ext/884805853/legato_stream.o
 .text          0x00000000        0x0 build/dsi_xlcdc_rgba8888_ws_9x75_curiosity_720x720_round/debug/_ext/884805853/legato_scheme.o
 .data          0x00000000        0x0 build/dsi_xlcdc_rgba8888_ws_9x75_curiosity_720x720_round/debug/_ext/884805853/legato_scheme.o
 .bss           0x00000000        0x0 build/dsi_xlcdc_rgba8888_ws_9x75_curiosity_720x720_round/debug/_ext/884805853/legato_scheme.o
 .text.leScheme_Initialize
                0x00000000       0x20 build/dsi_xlcdc_rgba8888_ws_9x75_curiosity_720x720_round/debug/_ext/884805853/legato_scheme.o
 .text.leScheme_GetColor
                0x00000000       0x20 build/dsi_xlcdc_rgba8888_ws_9x75_curiosity_720x720_round/debug/_ext/884805853/legato_scheme.o
 .text          0x00000000        0x0 build/dsi_xlcdc_rgba8888_ws_9x75_curiosity_720x720_round/debug/_ext/884805853/legato_input.o
 .data          0x00000000        0x0 build/dsi_xlcdc_rgba8888_ws_9x75_curiosity_720x720_round/debug/_ext/884805853/legato_input.o
 .bss           0x00000000        0x0 build/dsi_xlcdc_rgba8888_ws_9x75_curiosity_720x720_round/debug/_ext/884805853/legato_input.o
 .text._leGetInputState
                0x00000000        0xc build/dsi_xlcdc_rgba8888_ws_9x75_curiosity_720x720_round/debug/_ext/884805853/legato_input.o
 .text.leInput_Shutdown
                0x00000000        0x4 build/dsi_xlcdc_rgba8888_ws_9x75_curiosity_720x720_round/debug/_ext/884805853/legato_input.o
 .text.leInput_GetEnabled
                0x00000000       0x10 build/dsi_xlcdc_rgba8888_ws_9x75_curiosity_720x720_round/debug/_ext/884805853/legato_input.o
 .text.leInput_SetEnabled
                0x00000000       0x14 build/dsi_xlcdc_rgba8888_ws_9x75_curiosity_720x720_round/debug/_ext/884805853/legato_input.o
 .text.handleTouchUp
                0x00000000       0x74 build/dsi_xlcdc_rgba8888_ws_9x75_curiosity_720x720_round/debug/_ext/884805853/legato_input.o
 .text.handleTouchMoved
                0x00000000       0x74 build/dsi_xlcdc_rgba8888_ws_9x75_curiosity_720x720_round/debug/_ext/884805853/legato_input.o
 .text          0x00000000        0x0 build/dsi_xlcdc_rgba8888_ws_9x75_curiosity_720x720_round/debug/_ext/884805853/legato_state.o
 .data          0x00000000        0x0 build/dsi_xlcdc_rgba8888_ws_9x75_curiosity_720x720_round/debug/_ext/884805853/legato_state.o
 .bss           0x00000000        0x0 build/dsi_xlcdc_rgba8888_ws_9x75_curiosity_720x720_round/debug/_ext/884805853/legato_state.o
 .text.updateWidgetLanguage
                0x00000000       0x44 build/dsi_xlcdc_rgba8888_ws_9x75_curiosity_720x720_round/debug/_ext/884805853/legato_state.o
 .text.leShutdown
                0x00000000       0x94 build/dsi_xlcdc_rgba8888_ws_9x75_curiosity_720x720_round/debug/_ext/884805853/legato_state.o
 .text.leLayerCount
                0x00000000       0x20 build/dsi_xlcdc_rgba8888_ws_9x75_curiosity_720x720_round/debug/_ext/884805853/legato_state.o
 .text.leRemoveLayer
                0x00000000       0x7c build/dsi_xlcdc_rgba8888_ws_9x75_curiosity_720x720_round/debug/_ext/884805853/legato_state.o
 .text.leSetLayerRenderHorizontal
                0x00000000       0x58 build/dsi_xlcdc_rgba8888_ws_9x75_curiosity_720x720_round/debug/_ext/884805853/legato_state.o
 .text.leGetLayerClearMode
                0x00000000       0x48 build/dsi_xlcdc_rgba8888_ws_9x75_curiosity_720x720_round/debug/_ext/884805853/legato_state.o
 .text.leSetLayerClearMode
                0x00000000       0x58 build/dsi_xlcdc_rgba8888_ws_9x75_curiosity_720x720_round/debug/_ext/884805853/legato_state.o
 .text.leGetStringTable
                0x00000000       0x10 build/dsi_xlcdc_rgba8888_ws_9x75_curiosity_720x720_round/debug/_ext/884805853/legato_state.o
 .text.leGetStringLanguage
                0x00000000       0x10 build/dsi_xlcdc_rgba8888_ws_9x75_curiosity_720x720_round/debug/_ext/884805853/legato_state.o
 .text.leSetStringLanguage
                0x00000000       0x8c build/dsi_xlcdc_rgba8888_ws_9x75_curiosity_720x720_round/debug/_ext/884805853/legato_state.o
 .text.leGetDefaultScheme
                0x00000000        0xc build/dsi_xlcdc_rgba8888_ws_9x75_curiosity_720x720_round/debug/_ext/884805853/legato_state.o
 .text.leRedrawAll
                0x00000000       0x4c build/dsi_xlcdc_rgba8888_ws_9x75_curiosity_720x720_round/debug/_ext/884805853/legato_state.o
 .text.leEdit_StartEdit
                0x00000000       0x28 build/dsi_xlcdc_rgba8888_ws_9x75_curiosity_720x720_round/debug/_ext/884805853/legato_state.o
 .text.leEdit_EndEdit
                0x00000000       0x20 build/dsi_xlcdc_rgba8888_ws_9x75_curiosity_720x720_round/debug/_ext/884805853/legato_state.o
 .text.leEdit_Clear
                0x00000000       0x20 build/dsi_xlcdc_rgba8888_ws_9x75_curiosity_720x720_round/debug/_ext/884805853/legato_state.o
 .text.leEdit_Accept
                0x00000000       0x20 build/dsi_xlcdc_rgba8888_ws_9x75_curiosity_720x720_round/debug/_ext/884805853/legato_state.o
 .text.leEdit_Set
                0x00000000       0x28 build/dsi_xlcdc_rgba8888_ws_9x75_curiosity_720x720_round/debug/_ext/884805853/legato_state.o
 .text.leEdit_Append
                0x00000000       0x28 build/dsi_xlcdc_rgba8888_ws_9x75_curiosity_720x720_round/debug/_ext/884805853/legato_state.o
 .text.leEdit_Backspace
                0x00000000       0x20 build/dsi_xlcdc_rgba8888_ws_9x75_curiosity_720x720_round/debug/_ext/884805853/legato_state.o
 .text          0x00000000        0x0 build/dsi_xlcdc_rgba8888_ws_9x75_curiosity_720x720_round/debug/_ext/778592651/legato_array.o
 .data          0x00000000        0x0 build/dsi_xlcdc_rgba8888_ws_9x75_curiosity_720x720_round/debug/_ext/778592651/legato_array.o
 .bss           0x00000000        0x0 build/dsi_xlcdc_rgba8888_ws_9x75_curiosity_720x720_round/debug/_ext/778592651/legato_array.o
 .text.leArray_Resize
                0x00000000       0x54 build/dsi_xlcdc_rgba8888_ws_9x75_curiosity_720x720_round/debug/_ext/778592651/legato_array.o
 .text.leArray_PushFront
                0x00000000       0xec build/dsi_xlcdc_rgba8888_ws_9x75_curiosity_720x720_round/debug/_ext/778592651/legato_array.o
 .text.leArray_PopFront
                0x00000000       0x60 build/dsi_xlcdc_rgba8888_ws_9x75_curiosity_720x720_round/debug/_ext/778592651/legato_array.o
 .text.leArray_PopBack
                0x00000000       0x2c build/dsi_xlcdc_rgba8888_ws_9x75_curiosity_720x720_round/debug/_ext/778592651/legato_array.o
 .text.leArray_Set
                0x00000000       0x1c build/dsi_xlcdc_rgba8888_ws_9x75_curiosity_720x720_round/debug/_ext/778592651/legato_array.o
 .text.leArray_Copy
                0x00000000       0x8c build/dsi_xlcdc_rgba8888_ws_9x75_curiosity_720x720_round/debug/_ext/778592651/legato_array.o
 .text          0x00000000        0x0 build/dsi_xlcdc_rgba8888_ws_9x75_curiosity_720x720_round/debug/_ext/778592651/legato_rectarray.o
 .data          0x00000000        0x0 build/dsi_xlcdc_rgba8888_ws_9x75_curiosity_720x720_round/debug/_ext/778592651/legato_rectarray.o
 .bss           0x00000000        0x0 build/dsi_xlcdc_rgba8888_ws_9x75_curiosity_720x720_round/debug/_ext/778592651/legato_rectarray.o
 .text.leRectArray_Resize
                0x00000000       0x70 build/dsi_xlcdc_rgba8888_ws_9x75_curiosity_720x720_round/debug/_ext/778592651/legato_rectarray.o
 .text.leRectArray_PushFront
                0x00000000       0xd0 build/dsi_xlcdc_rgba8888_ws_9x75_curiosity_720x720_round/debug/_ext/778592651/legato_rectarray.o
 .text.leRectArray_PopFront
                0x00000000       0x78 build/dsi_xlcdc_rgba8888_ws_9x75_curiosity_720x720_round/debug/_ext/778592651/legato_rectarray.o
 .text.leRectArray_PopBack
                0x00000000       0x2c build/dsi_xlcdc_rgba8888_ws_9x75_curiosity_720x720_round/debug/_ext/778592651/legato_rectarray.o
 .text.leRectArray_InsertAt
                0x00000000      0x12c build/dsi_xlcdc_rgba8888_ws_9x75_curiosity_720x720_round/debug/_ext/778592651/legato_rectarray.o
 .text.leRectArray_SortBySize
                0x00000000       0x14 build/dsi_xlcdc_rgba8888_ws_9x75_curiosity_720x720_round/debug/_ext/778592651/legato_rectarray.o
 .text.leRectArray_CropToArea
                0x00000000      0x144 build/dsi_xlcdc_rgba8888_ws_9x75_curiosity_720x720_round/debug/_ext/778592651/legato_rectarray.o
 .text          0x00000000        0x0 build/dsi_xlcdc_rgba8888_ws_9x75_curiosity_720x720_round/debug/_ext/778592651/legato_list.o
 .data          0x00000000        0x0 build/dsi_xlcdc_rgba8888_ws_9x75_curiosity_720x720_round/debug/_ext/778592651/legato_list.o
 .bss           0x00000000        0x0 build/dsi_xlcdc_rgba8888_ws_9x75_curiosity_720x720_round/debug/_ext/778592651/legato_list.o
 .text.leList_Assign
                0x00000000       0x54 build/dsi_xlcdc_rgba8888_ws_9x75_curiosity_720x720_round/debug/_ext/778592651/legato_list.o
 .text.leList_PushFront
                0x00000000       0x74 build/dsi_xlcdc_rgba8888_ws_9x75_curiosity_720x720_round/debug/_ext/778592651/legato_list.o
 .text.leList_PopFront
                0x00000000       0x58 build/dsi_xlcdc_rgba8888_ws_9x75_curiosity_720x720_round/debug/_ext/778592651/legato_list.o
 .text.leList_Find
                0x00000000       0x60 build/dsi_xlcdc_rgba8888_ws_9x75_curiosity_720x720_round/debug/_ext/778592651/legato_list.o
 .text.leList_InsertAt
                0x00000000      0x134 build/dsi_xlcdc_rgba8888_ws_9x75_curiosity_720x720_round/debug/_ext/778592651/legato_list.o
 .text.leList_RemoveAt
                0x00000000       0x9c build/dsi_xlcdc_rgba8888_ws_9x75_curiosity_720x720_round/debug/_ext/778592651/legato_list.o
 .text.leList_Copy
                0x00000000       0xdc build/dsi_xlcdc_rgba8888_ws_9x75_curiosity_720x720_round/debug/_ext/778592651/legato_list.o
 .text.leList_Clear
                0x00000000       0x3c build/dsi_xlcdc_rgba8888_ws_9x75_curiosity_720x720_round/debug/_ext/778592651/legato_list.o
 .text          0x00000000        0x0 build/dsi_xlcdc_rgba8888_ws_9x75_curiosity_720x720_round/debug/_ext/884895117/legato_rasterfont_liberationmono1.o
 .data          0x00000000        0x0 build/dsi_xlcdc_rgba8888_ws_9x75_curiosity_720x720_round/debug/_ext/884895117/legato_rasterfont_liberationmono1.o
 .bss           0x00000000        0x0 build/dsi_xlcdc_rgba8888_ws_9x75_curiosity_720x720_round/debug/_ext/884895117/legato_rasterfont_liberationmono1.o
 .debug_info    0x00000000      0x49d build/dsi_xlcdc_rgba8888_ws_9x75_curiosity_720x720_round/debug/_ext/884895117/legato_rasterfont_liberationmono1.o
 .debug_abbrev  0x00000000       0xb5 build/dsi_xlcdc_rgba8888_ws_9x75_curiosity_720x720_round/debug/_ext/884895117/legato_rasterfont_liberationmono1.o
 .debug_aranges
                0x00000000       0x18 build/dsi_xlcdc_rgba8888_ws_9x75_curiosity_720x720_round/debug/_ext/884895117/legato_rasterfont_liberationmono1.o
 .debug_line    0x00000000       0xd0 build/dsi_xlcdc_rgba8888_ws_9x75_curiosity_720x720_round/debug/_ext/884895117/legato_rasterfont_liberationmono1.o
 .debug_str     0x00000000        0x9 build/dsi_xlcdc_rgba8888_ws_9x75_curiosity_720x720_round/debug/_ext/884895117/legato_rasterfont_liberationmono1.o
 .comment       0x00000000       0x2c build/dsi_xlcdc_rgba8888_ws_9x75_curiosity_720x720_round/debug/_ext/884895117/legato_rasterfont_liberationmono1.o
 .ARM.attributes
                0x00000000       0x32 build/dsi_xlcdc_rgba8888_ws_9x75_curiosity_720x720_round/debug/_ext/884895117/legato_rasterfont_liberationmono1.o
 .text          0x00000000        0x0 build/dsi_xlcdc_rgba8888_ws_9x75_curiosity_720x720_round/debug/_ext/884895117/legato_rasterfont_liberationmono8.o
 .data          0x00000000        0x0 build/dsi_xlcdc_rgba8888_ws_9x75_curiosity_720x720_round/debug/_ext/884895117/legato_rasterfont_liberationmono8.o
 .bss           0x00000000        0x0 build/dsi_xlcdc_rgba8888_ws_9x75_curiosity_720x720_round/debug/_ext/884895117/legato_rasterfont_liberationmono8.o
 .debug_info    0x00000000      0x49d build/dsi_xlcdc_rgba8888_ws_9x75_curiosity_720x720_round/debug/_ext/884895117/legato_rasterfont_liberationmono8.o
 .debug_abbrev  0x00000000       0xb5 build/dsi_xlcdc_rgba8888_ws_9x75_curiosity_720x720_round/debug/_ext/884895117/legato_rasterfont_liberationmono8.o
 .debug_aranges
                0x00000000       0x18 build/dsi_xlcdc_rgba8888_ws_9x75_curiosity_720x720_round/debug/_ext/884895117/legato_rasterfont_liberationmono8.o
 .debug_line    0x00000000       0xd0 build/dsi_xlcdc_rgba8888_ws_9x75_curiosity_720x720_round/debug/_ext/884895117/legato_rasterfont_liberationmono8.o
 .debug_str     0x00000000        0x9 build/dsi_xlcdc_rgba8888_ws_9x75_curiosity_720x720_round/debug/_ext/884895117/legato_rasterfont_liberationmono8.o
 .comment       0x00000000       0x2c build/dsi_xlcdc_rgba8888_ws_9x75_curiosity_720x720_round/debug/_ext/884895117/legato_rasterfont_liberationmono8.o
 .ARM.attributes
                0x00000000       0x32 build/dsi_xlcdc_rgba8888_ws_9x75_curiosity_720x720_round/debug/_ext/884895117/legato_rasterfont_liberationmono8.o
 .text          0x00000000        0x0 build/dsi_xlcdc_rgba8888_ws_9x75_curiosity_720x720_round/debug/_ext/884895117/legato_rasterfont_stream.o
 .data          0x00000000        0x0 build/dsi_xlcdc_rgba8888_ws_9x75_curiosity_720x720_round/debug/_ext/884895117/legato_rasterfont_stream.o
 .bss           0x00000000        0x0 build/dsi_xlcdc_rgba8888_ws_9x75_curiosity_720x720_round/debug/_ext/884895117/legato_rasterfont_stream.o
 .debug_info    0x00000000      0x660 build/dsi_xlcdc_rgba8888_ws_9x75_curiosity_720x720_round/debug/_ext/884895117/legato_rasterfont_stream.o
 .debug_abbrev  0x00000000       0xe8 build/dsi_xlcdc_rgba8888_ws_9x75_curiosity_720x720_round/debug/_ext/884895117/legato_rasterfont_stream.o
 .debug_aranges
                0x00000000       0x18 build/dsi_xlcdc_rgba8888_ws_9x75_curiosity_720x720_round/debug/_ext/884895117/legato_rasterfont_stream.o
 .debug_line    0x00000000      0x13d build/dsi_xlcdc_rgba8888_ws_9x75_curiosity_720x720_round/debug/_ext/884895117/legato_rasterfont_stream.o
 .debug_str     0x00000000       0x1f build/dsi_xlcdc_rgba8888_ws_9x75_curiosity_720x720_round/debug/_ext/884895117/legato_rasterfont_stream.o
 .comment       0x00000000       0x2c build/dsi_xlcdc_rgba8888_ws_9x75_curiosity_720x720_round/debug/_ext/884895117/legato_rasterfont_stream.o
 .ARM.attributes
                0x00000000       0x32 build/dsi_xlcdc_rgba8888_ws_9x75_curiosity_720x720_round/debug/_ext/884895117/legato_rasterfont_stream.o
 .text          0x00000000        0x0 build/dsi_xlcdc_rgba8888_ws_9x75_curiosity_720x720_round/debug/_ext/884895117/legato_font.o
 .data          0x00000000        0x0 build/dsi_xlcdc_rgba8888_ws_9x75_curiosity_720x720_round/debug/_ext/884895117/legato_font.o
 .bss           0x00000000        0x0 build/dsi_xlcdc_rgba8888_ws_9x75_curiosity_720x720_round/debug/_ext/884895117/legato_font.o
 .text.leFont_GetGlyphRect
                0x00000000       0x38 build/dsi_xlcdc_rgba8888_ws_9x75_curiosity_720x720_round/debug/_ext/884895117/legato_font.o
 .text          0x00000000        0x0 build/dsi_xlcdc_rgba8888_ws_9x75_curiosity_720x720_round/debug/_ext/1382756211/le_gen_fonts.o
 .data          0x00000000        0x0 build/dsi_xlcdc_rgba8888_ws_9x75_curiosity_720x720_round/debug/_ext/1382756211/le_gen_fonts.o
 .bss           0x00000000        0x0 build/dsi_xlcdc_rgba8888_ws_9x75_curiosity_720x720_round/debug/_ext/1382756211/le_gen_fonts.o
 .text          0x00000000        0x0 build/dsi_xlcdc_rgba8888_ws_9x75_curiosity_720x720_round/debug/_ext/86928605/le_gen_images.o
 .data          0x00000000        0x0 build/dsi_xlcdc_rgba8888_ws_9x75_curiosity_720x720_round/debug/_ext/86928605/le_gen_images.o
 .bss           0x00000000        0x0 build/dsi_xlcdc_rgba8888_ws_9x75_curiosity_720x720_round/debug/_ext/86928605/le_gen_images.o
 .data.N78_454_233
                0x00000000       0x3c build/dsi_xlcdc_rgba8888_ws_9x75_curiosity_720x720_round/debug/_ext/86928605/le_gen_images.o
 .rodata.N78_454_233_data
                0x00000000     0xf7e4 build/dsi_xlcdc_rgba8888_ws_9x75_curiosity_720x720_round/debug/_ext/86928605/le_gen_images.o
 .text          0x00000000        0x0 build/dsi_xlcdc_rgba8888_ws_9x75_curiosity_720x720_round/debug/_ext/1322619606/le_gen_screen_Screen0.o
 .data          0x00000000        0x0 build/dsi_xlcdc_rgba8888_ws_9x75_curiosity_720x720_round/debug/_ext/1322619606/le_gen_screen_Screen0.o
 .bss           0x00000000        0x0 build/dsi_xlcdc_rgba8888_ws_9x75_curiosity_720x720_round/debug/_ext/1322619606/le_gen_screen_Screen0.o
 .text.screenDestroy_Screen0
                0x00000000       0x1c build/dsi_xlcdc_rgba8888_ws_9x75_curiosity_720x720_round/debug/_ext/1322619606/le_gen_screen_Screen0.o
 .text.screenGetRoot_Screen0
                0x00000000       0x5c build/dsi_xlcdc_rgba8888_ws_9x75_curiosity_720x720_round/debug/_ext/1322619606/le_gen_screen_Screen0.o
 .text          0x00000000        0x0 build/dsi_xlcdc_rgba8888_ws_9x75_curiosity_720x720_round/debug/_ext/1965903633/le_gen_globalpalette.o
 .data          0x00000000        0x0 build/dsi_xlcdc_rgba8888_ws_9x75_curiosity_720x720_round/debug/_ext/1965903633/le_gen_globalpalette.o
 .bss           0x00000000        0x0 build/dsi_xlcdc_rgba8888_ws_9x75_curiosity_720x720_round/debug/_ext/1965903633/le_gen_globalpalette.o
 .text          0x00000000        0x0 build/dsi_xlcdc_rgba8888_ws_9x75_curiosity_720x720_round/debug/_ext/1965903633/le_gen_harmony.o
 .data          0x00000000        0x0 build/dsi_xlcdc_rgba8888_ws_9x75_curiosity_720x720_round/debug/_ext/1965903633/le_gen_harmony.o
 .bss           0x00000000        0x0 build/dsi_xlcdc_rgba8888_ws_9x75_curiosity_720x720_round/debug/_ext/1965903633/le_gen_harmony.o
 .text          0x00000000        0x0 build/dsi_xlcdc_rgba8888_ws_9x75_curiosity_720x720_round/debug/_ext/1965903633/le_gen_scheme.o
 .data          0x00000000        0x0 build/dsi_xlcdc_rgba8888_ws_9x75_curiosity_720x720_round/debug/_ext/1965903633/le_gen_scheme.o
 .bss           0x00000000        0x0 build/dsi_xlcdc_rgba8888_ws_9x75_curiosity_720x720_round/debug/_ext/1965903633/le_gen_scheme.o
 .text          0x00000000        0x0 build/dsi_xlcdc_rgba8888_ws_9x75_curiosity_720x720_round/debug/_ext/1965903633/le_gen_stringtable.o
 .data          0x00000000        0x0 build/dsi_xlcdc_rgba8888_ws_9x75_curiosity_720x720_round/debug/_ext/1965903633/le_gen_stringtable.o
 .bss           0x00000000        0x0 build/dsi_xlcdc_rgba8888_ws_9x75_curiosity_720x720_round/debug/_ext/1965903633/le_gen_stringtable.o
 .text          0x00000000        0x0 build/dsi_xlcdc_rgba8888_ws_9x75_curiosity_720x720_round/debug/_ext/1965903633/le_gen_init.o
 .data          0x00000000        0x0 build/dsi_xlcdc_rgba8888_ws_9x75_curiosity_720x720_round/debug/_ext/1965903633/le_gen_init.o
 .bss           0x00000000        0x0 build/dsi_xlcdc_rgba8888_ws_9x75_curiosity_720x720_round/debug/_ext/1965903633/le_gen_init.o
 .text.legato_getCurrentScreen
                0x00000000       0x10 build/dsi_xlcdc_rgba8888_ws_9x75_curiosity_720x720_round/debug/_ext/1965903633/le_gen_init.o
 .text.legato_showScreen
                0x00000000       0x18 build/dsi_xlcdc_rgba8888_ws_9x75_curiosity_720x720_round/debug/_ext/1965903633/le_gen_init.o
 .text.legato_isChangingScreens
                0x00000000       0x18 build/dsi_xlcdc_rgba8888_ws_9x75_curiosity_720x720_round/debug/_ext/1965903633/le_gen_init.o
 .text          0x00000000        0x0 build/dsi_xlcdc_rgba8888_ws_9x75_curiosity_720x720_round/debug/_ext/979623078/legato_imagedecoder_jpeg_common.o
 .data          0x00000000        0x0 build/dsi_xlcdc_rgba8888_ws_9x75_curiosity_720x720_round/debug/_ext/979623078/legato_imagedecoder_jpeg_common.o
 .bss           0x00000000        0x0 build/dsi_xlcdc_rgba8888_ws_9x75_curiosity_720x720_round/debug/_ext/979623078/legato_imagedecoder_jpeg_common.o
 .text.JPEG_bInterpretResourceHeader
                0x00000000       0x40 build/dsi_xlcdc_rgba8888_ws_9x75_curiosity_720x720_round/debug/_ext/979623078/legato_imagedecoder_jpeg_common.o
 .bss.JPEG_JpegDecoder
                0x00000000      0xa10 build/dsi_xlcdc_rgba8888_ws_9x75_curiosity_720x720_round/debug/_ext/979623078/legato_imagedecoder_jpeg_common.o
 .text          0x00000000        0x0 build/dsi_xlcdc_rgba8888_ws_9x75_curiosity_720x720_round/debug/_ext/979623078/jidctint.o
 .data          0x00000000        0x0 build/dsi_xlcdc_rgba8888_ws_9x75_curiosity_720x720_round/debug/_ext/979623078/jidctint.o
 .bss           0x00000000        0x0 build/dsi_xlcdc_rgba8888_ws_9x75_curiosity_720x720_round/debug/_ext/979623078/jidctint.o
 .text          0x00000000        0x0 build/dsi_xlcdc_rgba8888_ws_9x75_curiosity_720x720_round/debug/_ext/979623078/legato_imagedecoder_jpeg.o
 .data          0x00000000        0x0 build/dsi_xlcdc_rgba8888_ws_9x75_curiosity_720x720_round/debug/_ext/979623078/legato_imagedecoder_jpeg.o
 .bss           0x00000000        0x0 build/dsi_xlcdc_rgba8888_ws_9x75_curiosity_720x720_round/debug/_ext/979623078/legato_imagedecoder_jpeg.o
 .text          0x00000000        0x0 build/dsi_xlcdc_rgba8888_ws_9x75_curiosity_720x720_round/debug/_ext/979534379/legato_imagedecoder_mono_read_internal.o
 .data          0x00000000        0x0 build/dsi_xlcdc_rgba8888_ws_9x75_curiosity_720x720_round/debug/_ext/979534379/legato_imagedecoder_mono_read_internal.o
 .bss           0x00000000        0x0 build/dsi_xlcdc_rgba8888_ws_9x75_curiosity_720x720_round/debug/_ext/979534379/legato_imagedecoder_mono_read_internal.o
 .text          0x00000000        0x0 build/dsi_xlcdc_rgba8888_ws_9x75_curiosity_720x720_round/debug/_ext/979534379/legato_imagedecoder_mono_read_stream.o
 .data          0x00000000        0x0 build/dsi_xlcdc_rgba8888_ws_9x75_curiosity_720x720_round/debug/_ext/979534379/legato_imagedecoder_mono_read_stream.o
 .bss           0x00000000        0x0 build/dsi_xlcdc_rgba8888_ws_9x75_curiosity_720x720_round/debug/_ext/979534379/legato_imagedecoder_mono_read_stream.o
 .debug_info    0x00000000      0x4a6 build/dsi_xlcdc_rgba8888_ws_9x75_curiosity_720x720_round/debug/_ext/979534379/legato_imagedecoder_mono_read_stream.o
 .debug_abbrev  0x00000000       0xb5 build/dsi_xlcdc_rgba8888_ws_9x75_curiosity_720x720_round/debug/_ext/979534379/legato_imagedecoder_mono_read_stream.o
 .debug_aranges
                0x00000000       0x18 build/dsi_xlcdc_rgba8888_ws_9x75_curiosity_720x720_round/debug/_ext/979534379/legato_imagedecoder_mono_read_stream.o
 .debug_line    0x00000000       0xd0 build/dsi_xlcdc_rgba8888_ws_9x75_curiosity_720x720_round/debug/_ext/979534379/legato_imagedecoder_mono_read_stream.o
 .debug_str     0x00000000        0x9 build/dsi_xlcdc_rgba8888_ws_9x75_curiosity_720x720_round/debug/_ext/979534379/legato_imagedecoder_mono_read_stream.o
 .comment       0x00000000       0x2c build/dsi_xlcdc_rgba8888_ws_9x75_curiosity_720x720_round/debug/_ext/979534379/legato_imagedecoder_mono_read_stream.o
 .ARM.attributes
                0x00000000       0x32 build/dsi_xlcdc_rgba8888_ws_9x75_curiosity_720x720_round/debug/_ext/979534379/legato_imagedecoder_mono_read_stream.o
 .text          0x00000000        0x0 build/dsi_xlcdc_rgba8888_ws_9x75_curiosity_720x720_round/debug/_ext/979534379/legato_imagedecoder_mono.o
 .data          0x00000000        0x0 build/dsi_xlcdc_rgba8888_ws_9x75_curiosity_720x720_round/debug/_ext/979534379/legato_imagedecoder_mono.o
 .bss           0x00000000        0x0 build/dsi_xlcdc_rgba8888_ws_9x75_curiosity_720x720_round/debug/_ext/979534379/legato_imagedecoder_mono.o
 .text._leMonoImageDecoder_SourceIterateSetupStage
                0x00000000      0x154 build/dsi_xlcdc_rgba8888_ws_9x75_curiosity_720x720_round/debug/_ext/979534379/legato_imagedecoder_mono.o
 .text._leMonoImageDecoder_FrameBufferWriteStage
                0x00000000      0x148 build/dsi_xlcdc_rgba8888_ws_9x75_curiosity_720x720_round/debug/_ext/979534379/legato_imagedecoder_mono.o
 .text._leMonoImageDecoder_ImageWriteStage
                0x00000000      0x148 build/dsi_xlcdc_rgba8888_ws_9x75_curiosity_720x720_round/debug/_ext/979534379/legato_imagedecoder_mono.o
 .text          0x00000000        0x0 build/dsi_xlcdc_rgba8888_ws_9x75_curiosity_720x720_round/debug/_ext/799688951/legato_imagedecoder_png.o
 .data          0x00000000        0x0 build/dsi_xlcdc_rgba8888_ws_9x75_curiosity_720x720_round/debug/_ext/799688951/legato_imagedecoder_png.o
 .bss           0x00000000        0x0 build/dsi_xlcdc_rgba8888_ws_9x75_curiosity_720x720_round/debug/_ext/799688951/legato_imagedecoder_png.o
 .text          0x00000000        0x0 build/dsi_xlcdc_rgba8888_ws_9x75_curiosity_720x720_round/debug/_ext/799688951/lodepng.o
 .data          0x00000000        0x0 build/dsi_xlcdc_rgba8888_ws_9x75_curiosity_720x720_round/debug/_ext/799688951/lodepng.o
 .bss           0x00000000        0x0 build/dsi_xlcdc_rgba8888_ws_9x75_curiosity_720x720_round/debug/_ext/799688951/lodepng.o
 .text.lodepng_read32bitInt
                0x00000000       0x30 build/dsi_xlcdc_rgba8888_ws_9x75_curiosity_720x720_round/debug/_ext/799688951/lodepng.o
 .text.lodepng_inflate
                0x00000000       0x48 build/dsi_xlcdc_rgba8888_ws_9x75_curiosity_720x720_round/debug/_ext/799688951/lodepng.o
 .text.lodepng_decompress_settings_init
                0x00000000       0x18 build/dsi_xlcdc_rgba8888_ws_9x75_curiosity_720x720_round/debug/_ext/799688951/lodepng.o
 .text.lodepng_crc32
                0x00000000       0x4c build/dsi_xlcdc_rgba8888_ws_9x75_curiosity_720x720_round/debug/_ext/799688951/lodepng.o
 .text.lodepng_chunk_length
                0x00000000       0x30 build/dsi_xlcdc_rgba8888_ws_9x75_curiosity_720x720_round/debug/_ext/799688951/lodepng.o
 .text.lodepng_chunk_type
                0x00000000       0x5c build/dsi_xlcdc_rgba8888_ws_9x75_curiosity_720x720_round/debug/_ext/799688951/lodepng.o
 .text.lodepng_chunk_type_equals
                0x00000000       0x6c build/dsi_xlcdc_rgba8888_ws_9x75_curiosity_720x720_round/debug/_ext/799688951/lodepng.o
 .text.lodepng_chunk_ancillary
                0x00000000       0x10 build/dsi_xlcdc_rgba8888_ws_9x75_curiosity_720x720_round/debug/_ext/799688951/lodepng.o
 .text.lodepng_chunk_private
                0x00000000       0x10 build/dsi_xlcdc_rgba8888_ws_9x75_curiosity_720x720_round/debug/_ext/799688951/lodepng.o
 .text.lodepng_chunk_safetocopy
                0x00000000       0x10 build/dsi_xlcdc_rgba8888_ws_9x75_curiosity_720x720_round/debug/_ext/799688951/lodepng.o
 .text.lodepng_chunk_data
                0x00000000        0x8 build/dsi_xlcdc_rgba8888_ws_9x75_curiosity_720x720_round/debug/_ext/799688951/lodepng.o
 .text.lodepng_chunk_data_const
                0x00000000        0x8 build/dsi_xlcdc_rgba8888_ws_9x75_curiosity_720x720_round/debug/_ext/799688951/lodepng.o
 .text.lodepng_chunk_generate_crc
                0x00000000       0xb8 build/dsi_xlcdc_rgba8888_ws_9x75_curiosity_720x720_round/debug/_ext/799688951/lodepng.o
 .text.lodepng_chunk_next
                0x00000000       0x38 build/dsi_xlcdc_rgba8888_ws_9x75_curiosity_720x720_round/debug/_ext/799688951/lodepng.o
 .text.lodepng_chunk_next_const
                0x00000000       0x38 build/dsi_xlcdc_rgba8888_ws_9x75_curiosity_720x720_round/debug/_ext/799688951/lodepng.o
 .text.lodepng_chunk_append
                0x00000000      0x154 build/dsi_xlcdc_rgba8888_ws_9x75_curiosity_720x720_round/debug/_ext/799688951/lodepng.o
 .text.lodepng_chunk_create
                0x00000000      0x21c build/dsi_xlcdc_rgba8888_ws_9x75_curiosity_720x720_round/debug/_ext/799688951/lodepng.o
 .text.lodepng_color_mode_init
                0x00000000       0x30 build/dsi_xlcdc_rgba8888_ws_9x75_curiosity_720x720_round/debug/_ext/799688951/lodepng.o
 .text.lodepng_color_mode_cleanup
                0x00000000       0x28 build/dsi_xlcdc_rgba8888_ws_9x75_curiosity_720x720_round/debug/_ext/799688951/lodepng.o
 .text.lodepng_color_mode_copy
                0x00000000       0xb4 build/dsi_xlcdc_rgba8888_ws_9x75_curiosity_720x720_round/debug/_ext/799688951/lodepng.o
 .text.lodepng_palette_clear
                0x00000000       0x28 build/dsi_xlcdc_rgba8888_ws_9x75_curiosity_720x720_round/debug/_ext/799688951/lodepng.o
 .text.lodepng_palette_add
                0x00000000       0x98 build/dsi_xlcdc_rgba8888_ws_9x75_curiosity_720x720_round/debug/_ext/799688951/lodepng.o
 .text.lodepng_get_bpp
                0x00000000       0x28 build/dsi_xlcdc_rgba8888_ws_9x75_curiosity_720x720_round/debug/_ext/799688951/lodepng.o
 .text.lodepng_get_channels
                0x00000000       0x1c build/dsi_xlcdc_rgba8888_ws_9x75_curiosity_720x720_round/debug/_ext/799688951/lodepng.o
 .text.lodepng_is_greyscale_type
                0x00000000       0x14 build/dsi_xlcdc_rgba8888_ws_9x75_curiosity_720x720_round/debug/_ext/799688951/lodepng.o
 .text.lodepng_is_alpha_type
                0x00000000       0x10 build/dsi_xlcdc_rgba8888_ws_9x75_curiosity_720x720_round/debug/_ext/799688951/lodepng.o
 .text.lodepng_is_palette_type
                0x00000000       0x14 build/dsi_xlcdc_rgba8888_ws_9x75_curiosity_720x720_round/debug/_ext/799688951/lodepng.o
 .text.lodepng_has_palette_alpha
                0x00000000       0x58 build/dsi_xlcdc_rgba8888_ws_9x75_curiosity_720x720_round/debug/_ext/799688951/lodepng.o
 .text.lodepng_can_have_alpha
                0x00000000       0x60 build/dsi_xlcdc_rgba8888_ws_9x75_curiosity_720x720_round/debug/_ext/799688951/lodepng.o
 .text.lodepng_get_raw_size
                0x00000000       0x4c build/dsi_xlcdc_rgba8888_ws_9x75_curiosity_720x720_round/debug/_ext/799688951/lodepng.o
 .text.lodepng_get_raw_size_lct
                0x00000000       0x44 build/dsi_xlcdc_rgba8888_ws_9x75_curiosity_720x720_round/debug/_ext/799688951/lodepng.o
 .text.lodepng_clear_text
                0x00000000       0x60 build/dsi_xlcdc_rgba8888_ws_9x75_curiosity_720x720_round/debug/_ext/799688951/lodepng.o
 .text.lodepng_clear_itext
                0x00000000        0x4 build/dsi_xlcdc_rgba8888_ws_9x75_curiosity_720x720_round/debug/_ext/799688951/lodepng.o
 .text.lodepng_info_init
                0x00000000       0x8c build/dsi_xlcdc_rgba8888_ws_9x75_curiosity_720x720_round/debug/_ext/799688951/lodepng.o
 .text.lodepng_info_copy
                0x00000000      0x25c build/dsi_xlcdc_rgba8888_ws_9x75_curiosity_720x720_round/debug/_ext/799688951/lodepng.o
 .text.lodepng_info_swap
                0x00000000       0x4c build/dsi_xlcdc_rgba8888_ws_9x75_curiosity_720x720_round/debug/_ext/799688951/lodepng.o
 .text.lodepng_decode
                0x00000000      0x1cc build/dsi_xlcdc_rgba8888_ws_9x75_curiosity_720x720_round/debug/_ext/799688951/lodepng.o
 .text.lodepng_decode32
                0x00000000      0x2b4 build/dsi_xlcdc_rgba8888_ws_9x75_curiosity_720x720_round/debug/_ext/799688951/lodepng.o
 .text.lodepng_decode24
                0x00000000      0x2b4 build/dsi_xlcdc_rgba8888_ws_9x75_curiosity_720x720_round/debug/_ext/799688951/lodepng.o
 .text.lodepng_decoder_settings_init
                0x00000000       0x2c build/dsi_xlcdc_rgba8888_ws_9x75_curiosity_720x720_round/debug/_ext/799688951/lodepng.o
 .text.lodepng_state_init
                0x00000000       0xd4 build/dsi_xlcdc_rgba8888_ws_9x75_curiosity_720x720_round/debug/_ext/799688951/lodepng.o
 .text.lodepng_state_cleanup
                0x00000000       0x30 build/dsi_xlcdc_rgba8888_ws_9x75_curiosity_720x720_round/debug/_ext/799688951/lodepng.o
 .text.lodepng_state_copy
                0x00000000      0x18c build/dsi_xlcdc_rgba8888_ws_9x75_curiosity_720x720_round/debug/_ext/799688951/lodepng.o
 .rodata        0x00000000        0xc build/dsi_xlcdc_rgba8888_ws_9x75_curiosity_720x720_round/debug/_ext/799688951/lodepng.o
 .bss.lodepng_default_decompress_settings
                0x00000000       0x10 build/dsi_xlcdc_rgba8888_ws_9x75_curiosity_720x720_round/debug/_ext/799688951/lodepng.o
 .data.LODEPNG_VERSION_STRING
                0x00000000        0x4 build/dsi_xlcdc_rgba8888_ws_9x75_curiosity_720x720_round/debug/_ext/799688951/lodepng.o
 .text          0x00000000        0x0 build/dsi_xlcdc_rgba8888_ws_9x75_curiosity_720x720_round/debug/_ext/799690486/legato_imagedecoder_raw_convert.o
 .data          0x00000000        0x0 build/dsi_xlcdc_rgba8888_ws_9x75_curiosity_720x720_round/debug/_ext/799690486/legato_imagedecoder_raw_convert.o
 .bss           0x00000000        0x0 build/dsi_xlcdc_rgba8888_ws_9x75_curiosity_720x720_round/debug/_ext/799690486/legato_imagedecoder_raw_convert.o
 .text          0x00000000        0x0 build/dsi_xlcdc_rgba8888_ws_9x75_curiosity_720x720_round/debug/_ext/799690486/legato_imagedecoder_raw_read_stream_rleindex.o
 .data          0x00000000        0x0 build/dsi_xlcdc_rgba8888_ws_9x75_curiosity_720x720_round/debug/_ext/799690486/legato_imagedecoder_raw_read_stream_rleindex.o
 .bss           0x00000000        0x0 build/dsi_xlcdc_rgba8888_ws_9x75_curiosity_720x720_round/debug/_ext/799690486/legato_imagedecoder_raw_read_stream_rleindex.o
 .debug_info    0x00000000      0x4ad build/dsi_xlcdc_rgba8888_ws_9x75_curiosity_720x720_round/debug/_ext/799690486/legato_imagedecoder_raw_read_stream_rleindex.o
 .debug_abbrev  0x00000000       0xb5 build/dsi_xlcdc_rgba8888_ws_9x75_curiosity_720x720_round/debug/_ext/799690486/legato_imagedecoder_raw_read_stream_rleindex.o
 .debug_aranges
                0x00000000       0x18 build/dsi_xlcdc_rgba8888_ws_9x75_curiosity_720x720_round/debug/_ext/799690486/legato_imagedecoder_raw_read_stream_rleindex.o
 .debug_line    0x00000000       0xd0 build/dsi_xlcdc_rgba8888_ws_9x75_curiosity_720x720_round/debug/_ext/799690486/legato_imagedecoder_raw_read_stream_rleindex.o
 .debug_str     0x00000000        0x9 build/dsi_xlcdc_rgba8888_ws_9x75_curiosity_720x720_round/debug/_ext/799690486/legato_imagedecoder_raw_read_stream_rleindex.o
 .comment       0x00000000       0x2c build/dsi_xlcdc_rgba8888_ws_9x75_curiosity_720x720_round/debug/_ext/799690486/legato_imagedecoder_raw_read_stream_rleindex.o
 .ARM.attributes
                0x00000000       0x32 build/dsi_xlcdc_rgba8888_ws_9x75_curiosity_720x720_round/debug/_ext/799690486/legato_imagedecoder_raw_read_stream_rleindex.o
 .text          0x00000000        0x0 build/dsi_xlcdc_rgba8888_ws_9x75_curiosity_720x720_round/debug/_ext/799690486/legato_imagedecoder_raw_write.o
 .data          0x00000000        0x0 build/dsi_xlcdc_rgba8888_ws_9x75_curiosity_720x720_round/debug/_ext/799690486/legato_imagedecoder_raw_write.o
 .bss           0x00000000        0x0 build/dsi_xlcdc_rgba8888_ws_9x75_curiosity_720x720_round/debug/_ext/799690486/legato_imagedecoder_raw_write.o
 .text          0x00000000        0x0 build/dsi_xlcdc_rgba8888_ws_9x75_curiosity_720x720_round/debug/_ext/799690486/legato_imagedecoder_raw_read_stream_index.o
 .data          0x00000000        0x0 build/dsi_xlcdc_rgba8888_ws_9x75_curiosity_720x720_round/debug/_ext/799690486/legato_imagedecoder_raw_read_stream_index.o
 .bss           0x00000000        0x0 build/dsi_xlcdc_rgba8888_ws_9x75_curiosity_720x720_round/debug/_ext/799690486/legato_imagedecoder_raw_read_stream_index.o
 .debug_info    0x00000000      0x4aa build/dsi_xlcdc_rgba8888_ws_9x75_curiosity_720x720_round/debug/_ext/799690486/legato_imagedecoder_raw_read_stream_index.o
 .debug_abbrev  0x00000000       0xb5 build/dsi_xlcdc_rgba8888_ws_9x75_curiosity_720x720_round/debug/_ext/799690486/legato_imagedecoder_raw_read_stream_index.o
 .debug_aranges
                0x00000000       0x18 build/dsi_xlcdc_rgba8888_ws_9x75_curiosity_720x720_round/debug/_ext/799690486/legato_imagedecoder_raw_read_stream_index.o
 .debug_line    0x00000000       0xd0 build/dsi_xlcdc_rgba8888_ws_9x75_curiosity_720x720_round/debug/_ext/799690486/legato_imagedecoder_raw_read_stream_index.o
 .debug_str     0x00000000        0x9 build/dsi_xlcdc_rgba8888_ws_9x75_curiosity_720x720_round/debug/_ext/799690486/legato_imagedecoder_raw_read_stream_index.o
 .comment       0x00000000       0x2c build/dsi_xlcdc_rgba8888_ws_9x75_curiosity_720x720_round/debug/_ext/799690486/legato_imagedecoder_raw_read_stream_index.o
 .ARM.attributes
                0x00000000       0x32 build/dsi_xlcdc_rgba8888_ws_9x75_curiosity_720x720_round/debug/_ext/799690486/legato_imagedecoder_raw_read_stream_index.o
 .text          0x00000000        0x0 build/dsi_xlcdc_rgba8888_ws_9x75_curiosity_720x720_round/debug/_ext/799690486/legato_imagedecoder_raw_read_internal.o
 .data          0x00000000        0x0 build/dsi_xlcdc_rgba8888_ws_9x75_curiosity_720x720_round/debug/_ext/799690486/legato_imagedecoder_raw_read_internal.o
 .bss           0x00000000        0x0 build/dsi_xlcdc_rgba8888_ws_9x75_curiosity_720x720_round/debug/_ext/799690486/legato_imagedecoder_raw_read_internal.o
 .text          0x00000000        0x0 build/dsi_xlcdc_rgba8888_ws_9x75_curiosity_720x720_round/debug/_ext/799690486/legato_imagedecoder_raw_scale.o
 .data          0x00000000        0x0 build/dsi_xlcdc_rgba8888_ws_9x75_curiosity_720x720_round/debug/_ext/799690486/legato_imagedecoder_raw_scale.o
 .bss           0x00000000        0x0 build/dsi_xlcdc_rgba8888_ws_9x75_curiosity_720x720_round/debug/_ext/799690486/legato_imagedecoder_raw_scale.o
 .text          0x00000000        0x0 build/dsi_xlcdc_rgba8888_ws_9x75_curiosity_720x720_round/debug/_ext/799690486/legato_imagedecoder_raw_mask.o
 .data          0x00000000        0x0 build/dsi_xlcdc_rgba8888_ws_9x75_curiosity_720x720_round/debug/_ext/799690486/legato_imagedecoder_raw_mask.o
 .bss           0x00000000        0x0 build/dsi_xlcdc_rgba8888_ws_9x75_curiosity_720x720_round/debug/_ext/799690486/legato_imagedecoder_raw_mask.o
 .text          0x00000000        0x0 build/dsi_xlcdc_rgba8888_ws_9x75_curiosity_720x720_round/debug/_ext/799690486/legato_imagedecoder_raw_blend.o
 .data          0x00000000        0x0 build/dsi_xlcdc_rgba8888_ws_9x75_curiosity_720x720_round/debug/_ext/799690486/legato_imagedecoder_raw_blend.o
 .bss           0x00000000        0x0 build/dsi_xlcdc_rgba8888_ws_9x75_curiosity_720x720_round/debug/_ext/799690486/legato_imagedecoder_raw_blend.o
 .text          0x00000000        0x0 build/dsi_xlcdc_rgba8888_ws_9x75_curiosity_720x720_round/debug/_ext/799690486/legato_imagedecoder_raw.o
 .data          0x00000000        0x0 build/dsi_xlcdc_rgba8888_ws_9x75_curiosity_720x720_round/debug/_ext/799690486/legato_imagedecoder_raw.o
 .bss           0x00000000        0x0 build/dsi_xlcdc_rgba8888_ws_9x75_curiosity_720x720_round/debug/_ext/799690486/legato_imagedecoder_raw.o
 .text          0x00000000        0x0 build/dsi_xlcdc_rgba8888_ws_9x75_curiosity_720x720_round/debug/_ext/799690486/legato_imagedecoder_raw_read_stream_color.o
 .data          0x00000000        0x0 build/dsi_xlcdc_rgba8888_ws_9x75_curiosity_720x720_round/debug/_ext/799690486/legato_imagedecoder_raw_read_stream_color.o
 .bss           0x00000000        0x0 build/dsi_xlcdc_rgba8888_ws_9x75_curiosity_720x720_round/debug/_ext/799690486/legato_imagedecoder_raw_read_stream_color.o
 .debug_info    0x00000000      0x4aa build/dsi_xlcdc_rgba8888_ws_9x75_curiosity_720x720_round/debug/_ext/799690486/legato_imagedecoder_raw_read_stream_color.o
 .debug_abbrev  0x00000000       0xb5 build/dsi_xlcdc_rgba8888_ws_9x75_curiosity_720x720_round/debug/_ext/799690486/legato_imagedecoder_raw_read_stream_color.o
 .debug_aranges
                0x00000000       0x18 build/dsi_xlcdc_rgba8888_ws_9x75_curiosity_720x720_round/debug/_ext/799690486/legato_imagedecoder_raw_read_stream_color.o
 .debug_line    0x00000000       0xd0 build/dsi_xlcdc_rgba8888_ws_9x75_curiosity_720x720_round/debug/_ext/799690486/legato_imagedecoder_raw_read_stream_color.o
 .debug_str     0x00000000        0x9 build/dsi_xlcdc_rgba8888_ws_9x75_curiosity_720x720_round/debug/_ext/799690486/legato_imagedecoder_raw_read_stream_color.o
 .comment       0x00000000       0x2c build/dsi_xlcdc_rgba8888_ws_9x75_curiosity_720x720_round/debug/_ext/799690486/legato_imagedecoder_raw_read_stream_color.o
 .ARM.attributes
                0x00000000       0x32 build/dsi_xlcdc_rgba8888_ws_9x75_curiosity_720x720_round/debug/_ext/799690486/legato_imagedecoder_raw_read_stream_color.o
 .text          0x00000000        0x0 build/dsi_xlcdc_rgba8888_ws_9x75_curiosity_720x720_round/debug/_ext/799690486/legato_imagedecoder_raw_read_stream_rlecolor.o
 .data          0x00000000        0x0 build/dsi_xlcdc_rgba8888_ws_9x75_curiosity_720x720_round/debug/_ext/799690486/legato_imagedecoder_raw_read_stream_rlecolor.o
 .bss           0x00000000        0x0 build/dsi_xlcdc_rgba8888_ws_9x75_curiosity_720x720_round/debug/_ext/799690486/legato_imagedecoder_raw_read_stream_rlecolor.o
 .debug_info    0x00000000      0x4ad build/dsi_xlcdc_rgba8888_ws_9x75_curiosity_720x720_round/debug/_ext/799690486/legato_imagedecoder_raw_read_stream_rlecolor.o
 .debug_abbrev  0x00000000       0xb5 build/dsi_xlcdc_rgba8888_ws_9x75_curiosity_720x720_round/debug/_ext/799690486/legato_imagedecoder_raw_read_stream_rlecolor.o
 .debug_aranges
                0x00000000       0x18 build/dsi_xlcdc_rgba8888_ws_9x75_curiosity_720x720_round/debug/_ext/799690486/legato_imagedecoder_raw_read_stream_rlecolor.o
 .debug_line    0x00000000       0xd0 build/dsi_xlcdc_rgba8888_ws_9x75_curiosity_720x720_round/debug/_ext/799690486/legato_imagedecoder_raw_read_stream_rlecolor.o
 .debug_str     0x00000000        0x9 build/dsi_xlcdc_rgba8888_ws_9x75_curiosity_720x720_round/debug/_ext/799690486/legato_imagedecoder_raw_read_stream_rlecolor.o
 .comment       0x00000000       0x2c build/dsi_xlcdc_rgba8888_ws_9x75_curiosity_720x720_round/debug/_ext/799690486/legato_imagedecoder_raw_read_stream_rlecolor.o
 .ARM.attributes
                0x00000000       0x32 build/dsi_xlcdc_rgba8888_ws_9x75_curiosity_720x720_round/debug/_ext/799690486/legato_imagedecoder_raw_read_stream_rlecolor.o
 .text          0x00000000        0x0 build/dsi_xlcdc_rgba8888_ws_9x75_curiosity_720x720_round/debug/_ext/799690486/legato_imagedecoder_raw_setup.o
 .data          0x00000000        0x0 build/dsi_xlcdc_rgba8888_ws_9x75_curiosity_720x720_round/debug/_ext/799690486/legato_imagedecoder_raw_setup.o
 .bss           0x00000000        0x0 build/dsi_xlcdc_rgba8888_ws_9x75_curiosity_720x720_round/debug/_ext/799690486/legato_imagedecoder_raw_setup.o
 .text          0x00000000        0x0 build/dsi_xlcdc_rgba8888_ws_9x75_curiosity_720x720_round/debug/_ext/799690486/legato_imagedecoder_raw_rotate.o
 .data          0x00000000        0x0 build/dsi_xlcdc_rgba8888_ws_9x75_curiosity_720x720_round/debug/_ext/799690486/legato_imagedecoder_raw_rotate.o
 .bss           0x00000000        0x0 build/dsi_xlcdc_rgba8888_ws_9x75_curiosity_720x720_round/debug/_ext/799690486/legato_imagedecoder_raw_rotate.o
 .text          0x00000000        0x0 build/dsi_xlcdc_rgba8888_ws_9x75_curiosity_720x720_round/debug/_ext/799690486/legato_imagedecoder_raw_palette_internal.o
 .data          0x00000000        0x0 build/dsi_xlcdc_rgba8888_ws_9x75_curiosity_720x720_round/debug/_ext/799690486/legato_imagedecoder_raw_palette_internal.o
 .bss           0x00000000        0x0 build/dsi_xlcdc_rgba8888_ws_9x75_curiosity_720x720_round/debug/_ext/799690486/legato_imagedecoder_raw_palette_internal.o
 .text          0x00000000        0x0 build/dsi_xlcdc_rgba8888_ws_9x75_curiosity_720x720_round/debug/_ext/799690486/legato_imagedecoder_raw_palette_stream.o
 .data          0x00000000        0x0 build/dsi_xlcdc_rgba8888_ws_9x75_curiosity_720x720_round/debug/_ext/799690486/legato_imagedecoder_raw_palette_stream.o
 .bss           0x00000000        0x0 build/dsi_xlcdc_rgba8888_ws_9x75_curiosity_720x720_round/debug/_ext/799690486/legato_imagedecoder_raw_palette_stream.o
 .debug_info    0x00000000      0x673 build/dsi_xlcdc_rgba8888_ws_9x75_curiosity_720x720_round/debug/_ext/799690486/legato_imagedecoder_raw_palette_stream.o
 .debug_abbrev  0x00000000       0xe8 build/dsi_xlcdc_rgba8888_ws_9x75_curiosity_720x720_round/debug/_ext/799690486/legato_imagedecoder_raw_palette_stream.o
 .debug_aranges
                0x00000000       0x18 build/dsi_xlcdc_rgba8888_ws_9x75_curiosity_720x720_round/debug/_ext/799690486/legato_imagedecoder_raw_palette_stream.o
 .debug_line    0x00000000      0x13d build/dsi_xlcdc_rgba8888_ws_9x75_curiosity_720x720_round/debug/_ext/799690486/legato_imagedecoder_raw_palette_stream.o
 .debug_str     0x00000000       0x1f build/dsi_xlcdc_rgba8888_ws_9x75_curiosity_720x720_round/debug/_ext/799690486/legato_imagedecoder_raw_palette_stream.o
 .comment       0x00000000       0x2c build/dsi_xlcdc_rgba8888_ws_9x75_curiosity_720x720_round/debug/_ext/799690486/legato_imagedecoder_raw_palette_stream.o
 .ARM.attributes
                0x00000000       0x32 build/dsi_xlcdc_rgba8888_ws_9x75_curiosity_720x720_round/debug/_ext/799690486/legato_imagedecoder_raw_palette_stream.o
 .text          0x00000000        0x0 build/dsi_xlcdc_rgba8888_ws_9x75_curiosity_720x720_round/debug/_ext/1664643037/legato_image_utils.o
 .data          0x00000000        0x0 build/dsi_xlcdc_rgba8888_ws_9x75_curiosity_720x720_round/debug/_ext/1664643037/legato_image_utils.o
 .bss           0x00000000        0x0 build/dsi_xlcdc_rgba8888_ws_9x75_curiosity_720x720_round/debug/_ext/1664643037/legato_image_utils.o
 .text          0x00000000        0x0 build/dsi_xlcdc_rgba8888_ws_9x75_curiosity_720x720_round/debug/_ext/1664643037/legato_image.o
 .data          0x00000000        0x0 build/dsi_xlcdc_rgba8888_ws_9x75_curiosity_720x720_round/debug/_ext/1664643037/legato_image.o
 .bss           0x00000000        0x0 build/dsi_xlcdc_rgba8888_ws_9x75_curiosity_720x720_round/debug/_ext/1664643037/legato_image.o
 .text.leImage_Free
                0x00000000       0x38 build/dsi_xlcdc_rgba8888_ws_9x75_curiosity_720x720_round/debug/_ext/1664643037/legato_image.o
 .text.leImage_Resize
                0x00000000      0x10c build/dsi_xlcdc_rgba8888_ws_9x75_curiosity_720x720_round/debug/_ext/1664643037/legato_image.o
 .text.leImage_ResizeDraw
                0x00000000       0xbc build/dsi_xlcdc_rgba8888_ws_9x75_curiosity_720x720_round/debug/_ext/1664643037/legato_image.o
 .text.leImage_Copy
                0x00000000       0xa8 build/dsi_xlcdc_rgba8888_ws_9x75_curiosity_720x720_round/debug/_ext/1664643037/legato_image.o
 .text.leImage_Render
                0x00000000       0xbc build/dsi_xlcdc_rgba8888_ws_9x75_curiosity_720x720_round/debug/_ext/1664643037/legato_image.o
 .text.leImage_Rotate
                0x00000000       0xb0 build/dsi_xlcdc_rgba8888_ws_9x75_curiosity_720x720_round/debug/_ext/1664643037/legato_image.o
 .text.leImage_RotateDraw
                0x00000000       0xb4 build/dsi_xlcdc_rgba8888_ws_9x75_curiosity_720x720_round/debug/_ext/1664643037/legato_image.o
 .text.leProcessImage
                0x00000000      0x14c build/dsi_xlcdc_rgba8888_ws_9x75_curiosity_720x720_round/debug/_ext/1664643037/legato_image.o
 .text          0x00000000        0x0 build/dsi_xlcdc_rgba8888_ws_9x75_curiosity_720x720_round/debug/_ext/1664643037/legato_palette.o
 .data          0x00000000        0x0 build/dsi_xlcdc_rgba8888_ws_9x75_curiosity_720x720_round/debug/_ext/1664643037/legato_palette.o
 .bss           0x00000000        0x0 build/dsi_xlcdc_rgba8888_ws_9x75_curiosity_720x720_round/debug/_ext/1664643037/legato_palette.o
 .text.lePalette_GetColor
                0x00000000       0x3c build/dsi_xlcdc_rgba8888_ws_9x75_curiosity_720x720_round/debug/_ext/1664643037/legato_palette.o
 .debug_info    0x00000000      0x8f4 build/dsi_xlcdc_rgba8888_ws_9x75_curiosity_720x720_round/debug/_ext/1664643037/legato_palette.o
 .debug_abbrev  0x00000000      0x194 build/dsi_xlcdc_rgba8888_ws_9x75_curiosity_720x720_round/debug/_ext/1664643037/legato_palette.o
 .debug_loc     0x00000000       0x82 build/dsi_xlcdc_rgba8888_ws_9x75_curiosity_720x720_round/debug/_ext/1664643037/legato_palette.o
 .debug_aranges
                0x00000000       0x20 build/dsi_xlcdc_rgba8888_ws_9x75_curiosity_720x720_round/debug/_ext/1664643037/legato_palette.o
 .debug_ranges  0x00000000       0x10 build/dsi_xlcdc_rgba8888_ws_9x75_curiosity_720x720_round/debug/_ext/1664643037/legato_palette.o
 .debug_line    0x00000000      0x224 build/dsi_xlcdc_rgba8888_ws_9x75_curiosity_720x720_round/debug/_ext/1664643037/legato_palette.o
 .debug_str     0x00000000       0x51 build/dsi_xlcdc_rgba8888_ws_9x75_curiosity_720x720_round/debug/_ext/1664643037/legato_palette.o
 .comment       0x00000000       0x2c build/dsi_xlcdc_rgba8888_ws_9x75_curiosity_720x720_round/debug/_ext/1664643037/legato_palette.o
 .debug_frame   0x00000000       0x2c build/dsi_xlcdc_rgba8888_ws_9x75_curiosity_720x720_round/debug/_ext/1664643037/legato_palette.o
 .ARM.attributes
                0x00000000       0x2c build/dsi_xlcdc_rgba8888_ws_9x75_curiosity_720x720_round/debug/_ext/1664643037/legato_palette.o
 .text          0x00000000        0x0 build/dsi_xlcdc_rgba8888_ws_9x75_curiosity_720x720_round/debug/_ext/171820735/legato_variableheap.o
 .data          0x00000000        0x0 build/dsi_xlcdc_rgba8888_ws_9x75_curiosity_720x720_round/debug/_ext/171820735/legato_variableheap.o
 .bss           0x00000000        0x0 build/dsi_xlcdc_rgba8888_ws_9x75_curiosity_720x720_round/debug/_ext/171820735/legato_variableheap.o
 .text.leVariableHeap_Destroy
                0x00000000       0x14 build/dsi_xlcdc_rgba8888_ws_9x75_curiosity_720x720_round/debug/_ext/171820735/legato_variableheap.o
 .text.leVariableHeap_Used
                0x00000000       0x34 build/dsi_xlcdc_rgba8888_ws_9x75_curiosity_720x720_round/debug/_ext/171820735/legato_variableheap.o
 .text.leVariableHeap_Dump
                0x00000000      0x110 build/dsi_xlcdc_rgba8888_ws_9x75_curiosity_720x720_round/debug/_ext/171820735/legato_variableheap.o
 .rodata        0x00000000       0xb8 build/dsi_xlcdc_rgba8888_ws_9x75_curiosity_720x720_round/debug/_ext/171820735/legato_variableheap.o
 .text          0x00000000        0x0 build/dsi_xlcdc_rgba8888_ws_9x75_curiosity_720x720_round/debug/_ext/171820735/legato_fixedheap.o
 .data          0x00000000        0x0 build/dsi_xlcdc_rgba8888_ws_9x75_curiosity_720x720_round/debug/_ext/171820735/legato_fixedheap.o
 .bss           0x00000000        0x0 build/dsi_xlcdc_rgba8888_ws_9x75_curiosity_720x720_round/debug/_ext/171820735/legato_fixedheap.o
 .text.leFixedHeap_Destroy
                0x00000000       0x34 build/dsi_xlcdc_rgba8888_ws_9x75_curiosity_720x720_round/debug/_ext/171820735/legato_fixedheap.o
 .text.leFixedHeap_Validate
                0x00000000        0x8 build/dsi_xlcdc_rgba8888_ws_9x75_curiosity_720x720_round/debug/_ext/171820735/legato_fixedheap.o
 .text          0x00000000        0x0 build/dsi_xlcdc_rgba8888_ws_9x75_curiosity_720x720_round/debug/_ext/171820735/legato_memory.o
 .data          0x00000000        0x0 build/dsi_xlcdc_rgba8888_ws_9x75_curiosity_720x720_round/debug/_ext/171820735/legato_memory.o
 .bss           0x00000000        0x0 build/dsi_xlcdc_rgba8888_ws_9x75_curiosity_720x720_round/debug/_ext/171820735/legato_memory.o
 .text.leMemoryGetUsageReport
                0x00000000       0xf4 build/dsi_xlcdc_rgba8888_ws_9x75_curiosity_720x720_round/debug/_ext/171820735/legato_memory.o
 .text.leMemoryPrintReport
                0x00000000      0x188 build/dsi_xlcdc_rgba8888_ws_9x75_curiosity_720x720_round/debug/_ext/171820735/legato_memory.o
 .text.leMemoryValidateHeaps
                0x00000000       0x50 build/dsi_xlcdc_rgba8888_ws_9x75_curiosity_720x720_round/debug/_ext/171820735/legato_memory.o
 .rodata        0x00000000       0xe8 build/dsi_xlcdc_rgba8888_ws_9x75_curiosity_720x720_round/debug/_ext/171820735/legato_memory.o
 .text          0x00000000        0x0 build/dsi_xlcdc_rgba8888_ws_9x75_curiosity_720x720_round/debug/_ext/2053165825/legato_draw.o
 .data          0x00000000        0x0 build/dsi_xlcdc_rgba8888_ws_9x75_curiosity_720x720_round/debug/_ext/2053165825/legato_draw.o
 .bss           0x00000000        0x0 build/dsi_xlcdc_rgba8888_ws_9x75_curiosity_720x720_round/debug/_ext/2053165825/legato_draw.o
 .text.leRenderer_GetPixel_Safe
                0x00000000       0x64 build/dsi_xlcdc_rgba8888_ws_9x75_curiosity_720x720_round/debug/_ext/2053165825/legato_draw.o
 .text.leRenderer_PutPixel_Safe
                0x00000000       0x60 build/dsi_xlcdc_rgba8888_ws_9x75_curiosity_720x720_round/debug/_ext/2053165825/legato_draw.o
 .text          0x00000000        0x0 build/dsi_xlcdc_rgba8888_ws_9x75_curiosity_720x720_round/debug/_ext/2053165825/legato_draw_line.o
 .data          0x00000000        0x0 build/dsi_xlcdc_rgba8888_ws_9x75_curiosity_720x720_round/debug/_ext/2053165825/legato_draw_line.o
 .bss           0x00000000        0x0 build/dsi_xlcdc_rgba8888_ws_9x75_curiosity_720x720_round/debug/_ext/2053165825/legato_draw_line.o
 .text.leRenderer_DrawLine
                0x00000000      0x12c build/dsi_xlcdc_rgba8888_ws_9x75_curiosity_720x720_round/debug/_ext/2053165825/legato_draw_line.o
 .text.leRenderer_EllipseLine
                0x00000000      0x1bc build/dsi_xlcdc_rgba8888_ws_9x75_curiosity_720x720_round/debug/_ext/2053165825/legato_draw_line.o
 .text          0x00000000        0x0 build/dsi_xlcdc_rgba8888_ws_9x75_curiosity_720x720_round/debug/_ext/2053165825/legato_draw_rect.o
 .data          0x00000000        0x0 build/dsi_xlcdc_rgba8888_ws_9x75_curiosity_720x720_round/debug/_ext/2053165825/legato_draw_rect.o
 .bss           0x00000000        0x0 build/dsi_xlcdc_rgba8888_ws_9x75_curiosity_720x720_round/debug/_ext/2053165825/legato_draw_rect.o
 .text.leRenderer_RectLine
                0x00000000       0x98 build/dsi_xlcdc_rgba8888_ws_9x75_curiosity_720x720_round/debug/_ext/2053165825/legato_draw_rect.o
 .text.leRenderer_HorzGradientRect
                0x00000000       0x94 build/dsi_xlcdc_rgba8888_ws_9x75_curiosity_720x720_round/debug/_ext/2053165825/legato_draw_rect.o
 .text.leRenderer_VertGradientRect
                0x00000000       0x94 build/dsi_xlcdc_rgba8888_ws_9x75_curiosity_720x720_round/debug/_ext/2053165825/legato_draw_rect.o
 .text          0x00000000        0x0 build/dsi_xlcdc_rgba8888_ws_9x75_curiosity_720x720_round/debug/_ext/2053165825/legato_draw_arc.o
 .data          0x00000000        0x0 build/dsi_xlcdc_rgba8888_ws_9x75_curiosity_720x720_round/debug/_ext/2053165825/legato_draw_arc.o
 .bss           0x00000000        0x0 build/dsi_xlcdc_rgba8888_ws_9x75_curiosity_720x720_round/debug/_ext/2053165825/legato_draw_arc.o
 .text.leRenderer_CircleDraw
                0x00000000       0x10 build/dsi_xlcdc_rgba8888_ws_9x75_curiosity_720x720_round/debug/_ext/2053165825/legato_draw_arc.o
 .text.leRenderer_CircleFill
                0x00000000       0x9c build/dsi_xlcdc_rgba8888_ws_9x75_curiosity_720x720_round/debug/_ext/2053165825/legato_draw_arc.o
 .text.leRenderer_ArcLine
                0x00000000      0x100 build/dsi_xlcdc_rgba8888_ws_9x75_curiosity_720x720_round/debug/_ext/2053165825/legato_draw_arc.o
 .text          0x00000000        0x0 build/dsi_xlcdc_rgba8888_ws_9x75_curiosity_720x720_round/debug/_ext/2053165825/legato_gpu.o
 .data          0x00000000        0x0 build/dsi_xlcdc_rgba8888_ws_9x75_curiosity_720x720_round/debug/_ext/2053165825/legato_gpu.o
 .bss           0x00000000        0x0 build/dsi_xlcdc_rgba8888_ws_9x75_curiosity_720x720_round/debug/_ext/2053165825/legato_gpu.o
 .text          0x00000000        0x0 build/dsi_xlcdc_rgba8888_ws_9x75_curiosity_720x720_round/debug/_ext/2053165825/legato_renderer.o
 .data          0x00000000        0x0 build/dsi_xlcdc_rgba8888_ws_9x75_curiosity_720x720_round/debug/_ext/2053165825/legato_renderer.o
 .bss           0x00000000        0x0 build/dsi_xlcdc_rgba8888_ws_9x75_curiosity_720x720_round/debug/_ext/2053165825/legato_renderer.o
 .text.leRenderer_GetDrawCount
                0x00000000       0x10 build/dsi_xlcdc_rgba8888_ws_9x75_curiosity_720x720_round/debug/_ext/2053165825/legato_renderer.o
 .text.leRenderer_GetGlobalPalette
                0x00000000       0x10 build/dsi_xlcdc_rgba8888_ws_9x75_curiosity_720x720_round/debug/_ext/2053165825/legato_renderer.o
 .text.leRenderer_SetGlobalPalette
                0x00000000       0x14 build/dsi_xlcdc_rgba8888_ws_9x75_curiosity_720x720_round/debug/_ext/2053165825/legato_renderer.o
 .text.leRenderer_GlobalPaletteLookup
                0x00000000       0x14 build/dsi_xlcdc_rgba8888_ws_9x75_curiosity_720x720_round/debug/_ext/2053165825/legato_renderer.o
 .text.leRenderer_CullDrawPoint
                0x00000000       0x20 build/dsi_xlcdc_rgba8888_ws_9x75_curiosity_720x720_round/debug/_ext/2053165825/legato_renderer.o
 .text.leRenderer_Shutdown
                0x00000000        0x4 build/dsi_xlcdc_rgba8888_ws_9x75_curiosity_720x720_round/debug/_ext/2053165825/legato_renderer.o
 .text._leRenderer_DestroyLayerState
                0x00000000       0x40 build/dsi_xlcdc_rgba8888_ws_9x75_curiosity_720x720_round/debug/_ext/2053165825/legato_renderer.o
 .text          0x00000000        0x0 build/dsi_xlcdc_rgba8888_ws_9x75_curiosity_720x720_round/debug/_ext/357591503/legato_string.o
 .data          0x00000000        0x0 build/dsi_xlcdc_rgba8888_ws_9x75_curiosity_720x720_round/debug/_ext/357591503/legato_string.o
 .bss           0x00000000        0x0 build/dsi_xlcdc_rgba8888_ws_9x75_curiosity_720x720_round/debug/_ext/357591503/legato_string.o
 .text.leString_Delete
                0x00000000       0x24 build/dsi_xlcdc_rgba8888_ws_9x75_curiosity_720x720_round/debug/_ext/357591503/legato_string.o
 .text          0x00000000        0x0 build/dsi_xlcdc_rgba8888_ws_9x75_curiosity_720x720_round/debug/_ext/357591503/legato_stringutils.o
 .data          0x00000000        0x0 build/dsi_xlcdc_rgba8888_ws_9x75_curiosity_720x720_round/debug/_ext/357591503/legato_stringutils.o
 .bss           0x00000000        0x0 build/dsi_xlcdc_rgba8888_ws_9x75_curiosity_720x720_round/debug/_ext/357591503/legato_stringutils.o
 .text.leStringUtils_FromCStr
                0x00000000       0x84 build/dsi_xlcdc_rgba8888_ws_9x75_curiosity_720x720_round/debug/_ext/357591503/legato_stringutils.o
 .text.leStringUtils_ToCStr
                0x00000000       0x64 build/dsi_xlcdc_rgba8888_ws_9x75_curiosity_720x720_round/debug/_ext/357591503/legato_stringutils.o
 .text.leStringUtils_GetRect
                0x00000000      0x20c build/dsi_xlcdc_rgba8888_ws_9x75_curiosity_720x720_round/debug/_ext/357591503/legato_stringutils.o
 .text.leStringUtils_GetLineCount
                0x00000000       0x44 build/dsi_xlcdc_rgba8888_ws_9x75_curiosity_720x720_round/debug/_ext/357591503/legato_stringutils.o
 .text.leStringUtils_GetLineCountCStr
                0x00000000       0x50 build/dsi_xlcdc_rgba8888_ws_9x75_curiosity_720x720_round/debug/_ext/357591503/legato_stringutils.o
 .text.leStringUtils_GetLineIndices
                0x00000000       0xbc build/dsi_xlcdc_rgba8888_ws_9x75_curiosity_720x720_round/debug/_ext/357591503/legato_stringutils.o
 .text.leStringUtils_GetLineIndicesCStr
                0x00000000       0xc4 build/dsi_xlcdc_rgba8888_ws_9x75_curiosity_720x720_round/debug/_ext/357591503/legato_stringutils.o
 .text.leStringUtils_GetLineRect
                0x00000000      0x164 build/dsi_xlcdc_rgba8888_ws_9x75_curiosity_720x720_round/debug/_ext/357591503/legato_stringutils.o
 .text.leStringUtils_GetLineRectCStr
                0x00000000      0x178 build/dsi_xlcdc_rgba8888_ws_9x75_curiosity_720x720_round/debug/_ext/357591503/legato_stringutils.o
 .text.leStringUtils_GetRectCStr
                0x00000000      0x11c build/dsi_xlcdc_rgba8888_ws_9x75_curiosity_720x720_round/debug/_ext/357591503/legato_stringutils.o
 .text.leStringUtils_GetCharRect
                0x00000000       0xd0 build/dsi_xlcdc_rgba8888_ws_9x75_curiosity_720x720_round/debug/_ext/357591503/legato_stringutils.o
 .text.leStringUtils_GetCharRectCStr
                0x00000000       0xe4 build/dsi_xlcdc_rgba8888_ws_9x75_curiosity_720x720_round/debug/_ext/357591503/legato_stringutils.o
 .text.leStringUtils_GetCharIndexAtPoint
                0x00000000      0x114 build/dsi_xlcdc_rgba8888_ws_9x75_curiosity_720x720_round/debug/_ext/357591503/legato_stringutils.o
 .text.leStringUtils_GetCharIndexAtPointCStr
                0x00000000       0xf4 build/dsi_xlcdc_rgba8888_ws_9x75_curiosity_720x720_round/debug/_ext/357591503/legato_stringutils.o
 .text          0x00000000        0x0 build/dsi_xlcdc_rgba8888_ws_9x75_curiosity_720x720_round/debug/_ext/357591503/legato_string_renderer.o
 .data          0x00000000        0x0 build/dsi_xlcdc_rgba8888_ws_9x75_curiosity_720x720_round/debug/_ext/357591503/legato_string_renderer.o
 .bss           0x00000000        0x0 build/dsi_xlcdc_rgba8888_ws_9x75_curiosity_720x720_round/debug/_ext/357591503/legato_string_renderer.o
 .text.leStringRenderer_DrawUString
                0x00000000      0x18c build/dsi_xlcdc_rgba8888_ws_9x75_curiosity_720x720_round/debug/_ext/357591503/legato_string_renderer.o
 .text.leStringRenderer_DrawCString
                0x00000000      0x188 build/dsi_xlcdc_rgba8888_ws_9x75_curiosity_720x720_round/debug/_ext/357591503/legato_string_renderer.o
 .text          0x00000000        0x0 build/dsi_xlcdc_rgba8888_ws_9x75_curiosity_720x720_round/debug/_ext/357591503/legato_fixedstring.o
 .data          0x00000000        0x0 build/dsi_xlcdc_rgba8888_ws_9x75_curiosity_720x720_round/debug/_ext/357591503/legato_fixedstring.o
 .bss           0x00000000        0x0 build/dsi_xlcdc_rgba8888_ws_9x75_curiosity_720x720_round/debug/_ext/357591503/legato_fixedstring.o
 .text.leFixedString_New
                0x00000000       0x4c build/dsi_xlcdc_rgba8888_ws_9x75_curiosity_720x720_round/debug/_ext/357591503/legato_fixedstring.o
 .text          0x00000000        0x0 build/dsi_xlcdc_rgba8888_ws_9x75_curiosity_720x720_round/debug/_ext/357591503/legato_stringtable.o
 .data          0x00000000        0x0 build/dsi_xlcdc_rgba8888_ws_9x75_curiosity_720x720_round/debug/_ext/357591503/legato_stringtable.o
 .bss           0x00000000        0x0 build/dsi_xlcdc_rgba8888_ws_9x75_curiosity_720x720_round/debug/_ext/357591503/legato_stringtable.o
 .text.leStringTable_GetStringCount
                0x00000000       0x10 build/dsi_xlcdc_rgba8888_ws_9x75_curiosity_720x720_round/debug/_ext/357591503/legato_stringtable.o
 .text.leStringTable_GetLanguageCount
                0x00000000       0x10 build/dsi_xlcdc_rgba8888_ws_9x75_curiosity_720x720_round/debug/_ext/357591503/legato_stringtable.o
 .text.leStringTable_GetStringOffset
                0x00000000       0x54 build/dsi_xlcdc_rgba8888_ws_9x75_curiosity_720x720_round/debug/_ext/357591503/legato_stringtable.o
 .text.leStringTable_GetActiveStringOffset
                0x00000000       0x64 build/dsi_xlcdc_rgba8888_ws_9x75_curiosity_720x720_round/debug/_ext/357591503/legato_stringtable.o
 .text          0x00000000        0x0 build/dsi_xlcdc_rgba8888_ws_9x75_curiosity_720x720_round/debug/_ext/357591503/legato_tablestring.o
 .data          0x00000000        0x0 build/dsi_xlcdc_rgba8888_ws_9x75_curiosity_720x720_round/debug/_ext/357591503/legato_tablestring.o
 .bss           0x00000000        0x0 build/dsi_xlcdc_rgba8888_ws_9x75_curiosity_720x720_round/debug/_ext/357591503/legato_tablestring.o
 .text.leTableString_New
                0x00000000       0x34 build/dsi_xlcdc_rgba8888_ws_9x75_curiosity_720x720_round/debug/_ext/357591503/legato_tablestring.o
 .text._leTableString_ToChar
                0x00000000       0x8c build/dsi_xlcdc_rgba8888_ws_9x75_curiosity_720x720_round/debug/_ext/357591503/legato_tablestring.o
 .text._leTableString_SizeInBytes
                0x00000000       0x48 build/dsi_xlcdc_rgba8888_ws_9x75_curiosity_720x720_round/debug/_ext/357591503/legato_tablestring.o
 .text          0x00000000        0x0 build/dsi_xlcdc_rgba8888_ws_9x75_curiosity_720x720_round/debug/_ext/357591503/legato_dynamicstring.o
 .data          0x00000000        0x0 build/dsi_xlcdc_rgba8888_ws_9x75_curiosity_720x720_round/debug/_ext/357591503/legato_dynamicstring.o
 .bss           0x00000000        0x0 build/dsi_xlcdc_rgba8888_ws_9x75_curiosity_720x720_round/debug/_ext/357591503/legato_dynamicstring.o
 .text._leDynamicString_GetFont
                0x00000000        0x8 build/dsi_xlcdc_rgba8888_ws_9x75_curiosity_720x720_round/debug/_ext/357591503/legato_dynamicstring.o
 .text._leDynamicString_SetFont
                0x00000000       0x34 build/dsi_xlcdc_rgba8888_ws_9x75_curiosity_720x720_round/debug/_ext/357591503/legato_dynamicstring.o
 .text._leDynamicString_GetCapacity
                0x00000000        0x8 build/dsi_xlcdc_rgba8888_ws_9x75_curiosity_720x720_round/debug/_ext/357591503/legato_dynamicstring.o
 .text._leDynamicString_SetFromString
                0x00000000       0xc8 build/dsi_xlcdc_rgba8888_ws_9x75_curiosity_720x720_round/debug/_ext/357591503/legato_dynamicstring.o
 .text._leDynamicString_Length
                0x00000000        0x8 build/dsi_xlcdc_rgba8888_ws_9x75_curiosity_720x720_round/debug/_ext/357591503/legato_dynamicstring.o
 .text._leDynamicString_IsEmpty
                0x00000000       0x10 build/dsi_xlcdc_rgba8888_ws_9x75_curiosity_720x720_round/debug/_ext/357591503/legato_dynamicstring.o
 .text._leDynamicString_CharAt
                0x00000000       0x1c build/dsi_xlcdc_rgba8888_ws_9x75_curiosity_720x720_round/debug/_ext/357591503/legato_dynamicstring.o
 .text._leDynamicString_Compare
                0x00000000       0x88 build/dsi_xlcdc_rgba8888_ws_9x75_curiosity_720x720_round/debug/_ext/357591503/legato_dynamicstring.o
 .text._leDynamicString_Clear
                0x00000000       0x30 build/dsi_xlcdc_rgba8888_ws_9x75_curiosity_720x720_round/debug/_ext/357591503/legato_dynamicstring.o
 .text._leDynamicString_Destructor
                0x00000000       0x34 build/dsi_xlcdc_rgba8888_ws_9x75_curiosity_720x720_round/debug/_ext/357591503/legato_dynamicstring.o
 .text._leDynamicString_SetFromCStr
                0x00000000       0x9c build/dsi_xlcdc_rgba8888_ws_9x75_curiosity_720x720_round/debug/_ext/357591503/legato_dynamicstring.o
 .text._leDynamicString_ToChar
                0x00000000       0x50 build/dsi_xlcdc_rgba8888_ws_9x75_curiosity_720x720_round/debug/_ext/357591503/legato_dynamicstring.o
 .text._leDynamicString_SetFromChar
                0x00000000      0x11c build/dsi_xlcdc_rgba8888_ws_9x75_curiosity_720x720_round/debug/_ext/357591503/legato_dynamicstring.o
 .text._leDynamicString_Append
                0x00000000       0xe4 build/dsi_xlcdc_rgba8888_ws_9x75_curiosity_720x720_round/debug/_ext/357591503/legato_dynamicstring.o
 .text._leDynamicString_Insert
                0x00000000      0x188 build/dsi_xlcdc_rgba8888_ws_9x75_curiosity_720x720_round/debug/_ext/357591503/legato_dynamicstring.o
 .text._leDynamicString_Remove
                0x00000000       0xc0 build/dsi_xlcdc_rgba8888_ws_9x75_curiosity_720x720_round/debug/_ext/357591503/legato_dynamicstring.o
 .text._leDynamicString_SetCapacity
                0x00000000       0xa8 build/dsi_xlcdc_rgba8888_ws_9x75_curiosity_720x720_round/debug/_ext/357591503/legato_dynamicstring.o
 .text.leDynamicString_Constructor
                0x00000000       0x30 build/dsi_xlcdc_rgba8888_ws_9x75_curiosity_720x720_round/debug/_ext/357591503/legato_dynamicstring.o
 .text.leDynamicString_New
                0x00000000       0x3c build/dsi_xlcdc_rgba8888_ws_9x75_curiosity_720x720_round/debug/_ext/357591503/legato_dynamicstring.o
 .rodata.dynamicStringVTable
                0x00000000       0x70 build/dsi_xlcdc_rgba8888_ws_9x75_curiosity_720x720_round/debug/_ext/357591503/legato_dynamicstring.o
 .debug_info    0x00000000     0x1e6d build/dsi_xlcdc_rgba8888_ws_9x75_curiosity_720x720_round/debug/_ext/357591503/legato_dynamicstring.o
 .debug_abbrev  0x00000000      0x47b build/dsi_xlcdc_rgba8888_ws_9x75_curiosity_720x720_round/debug/_ext/357591503/legato_dynamicstring.o
 .debug_loc     0x00000000      0xdae build/dsi_xlcdc_rgba8888_ws_9x75_curiosity_720x720_round/debug/_ext/357591503/legato_dynamicstring.o
 .debug_aranges
                0x00000000       0xb0 build/dsi_xlcdc_rgba8888_ws_9x75_curiosity_720x720_round/debug/_ext/357591503/legato_dynamicstring.o
 .debug_ranges  0x00000000      0x100 build/dsi_xlcdc_rgba8888_ws_9x75_curiosity_720x720_round/debug/_ext/357591503/legato_dynamicstring.o
 .debug_line    0x00000000      0xac9 build/dsi_xlcdc_rgba8888_ws_9x75_curiosity_720x720_round/debug/_ext/357591503/legato_dynamicstring.o
 .debug_str     0x00000000      0x17a build/dsi_xlcdc_rgba8888_ws_9x75_curiosity_720x720_round/debug/_ext/357591503/legato_dynamicstring.o
 .comment       0x00000000       0x2c build/dsi_xlcdc_rgba8888_ws_9x75_curiosity_720x720_round/debug/_ext/357591503/legato_dynamicstring.o
 .debug_frame   0x00000000      0x220 build/dsi_xlcdc_rgba8888_ws_9x75_curiosity_720x720_round/debug/_ext/357591503/legato_dynamicstring.o
 .ARM.attributes
                0x00000000       0x2c build/dsi_xlcdc_rgba8888_ws_9x75_curiosity_720x720_round/debug/_ext/357591503/legato_dynamicstring.o
 .text          0x00000000        0x0 build/dsi_xlcdc_rgba8888_ws_9x75_curiosity_720x720_round/debug/_ext/357591503/legato_string_renderer_stream.o
 .data          0x00000000        0x0 build/dsi_xlcdc_rgba8888_ws_9x75_curiosity_720x720_round/debug/_ext/357591503/legato_string_renderer_stream.o
 .bss           0x00000000        0x0 build/dsi_xlcdc_rgba8888_ws_9x75_curiosity_720x720_round/debug/_ext/357591503/legato_string_renderer_stream.o
 .debug_info    0x00000000      0x667 build/dsi_xlcdc_rgba8888_ws_9x75_curiosity_720x720_round/debug/_ext/357591503/legato_string_renderer_stream.o
 .debug_abbrev  0x00000000       0xe8 build/dsi_xlcdc_rgba8888_ws_9x75_curiosity_720x720_round/debug/_ext/357591503/legato_string_renderer_stream.o
 .debug_aranges
                0x00000000       0x18 build/dsi_xlcdc_rgba8888_ws_9x75_curiosity_720x720_round/debug/_ext/357591503/legato_string_renderer_stream.o
 .debug_line    0x00000000      0x13d build/dsi_xlcdc_rgba8888_ws_9x75_curiosity_720x720_round/debug/_ext/357591503/legato_string_renderer_stream.o
 .debug_str     0x00000000       0x1f build/dsi_xlcdc_rgba8888_ws_9x75_curiosity_720x720_round/debug/_ext/357591503/legato_string_renderer_stream.o
 .comment       0x00000000       0x2c build/dsi_xlcdc_rgba8888_ws_9x75_curiosity_720x720_round/debug/_ext/357591503/legato_string_renderer_stream.o
 .ARM.attributes
                0x00000000       0x32 build/dsi_xlcdc_rgba8888_ws_9x75_curiosity_720x720_round/debug/_ext/357591503/legato_string_renderer_stream.o
 .text          0x00000000        0x0 build/dsi_xlcdc_rgba8888_ws_9x75_curiosity_720x720_round/debug/_ext/199453381/legato_widget_arc.o
 .data          0x00000000        0x0 build/dsi_xlcdc_rgba8888_ws_9x75_curiosity_720x720_round/debug/_ext/199453381/legato_widget_arc.o
 .bss           0x00000000        0x0 build/dsi_xlcdc_rgba8888_ws_9x75_curiosity_720x720_round/debug/_ext/199453381/legato_widget_arc.o
 .debug_info    0x00000000      0x493 build/dsi_xlcdc_rgba8888_ws_9x75_curiosity_720x720_round/debug/_ext/199453381/legato_widget_arc.o
 .debug_abbrev  0x00000000       0xb5 build/dsi_xlcdc_rgba8888_ws_9x75_curiosity_720x720_round/debug/_ext/199453381/legato_widget_arc.o
 .debug_aranges
                0x00000000       0x18 build/dsi_xlcdc_rgba8888_ws_9x75_curiosity_720x720_round/debug/_ext/199453381/legato_widget_arc.o
 .debug_line    0x00000000       0xd0 build/dsi_xlcdc_rgba8888_ws_9x75_curiosity_720x720_round/debug/_ext/199453381/legato_widget_arc.o
 .debug_str     0x00000000        0x9 build/dsi_xlcdc_rgba8888_ws_9x75_curiosity_720x720_round/debug/_ext/199453381/legato_widget_arc.o
 .comment       0x00000000       0x2c build/dsi_xlcdc_rgba8888_ws_9x75_curiosity_720x720_round/debug/_ext/199453381/legato_widget_arc.o
 .ARM.attributes
                0x00000000       0x32 build/dsi_xlcdc_rgba8888_ws_9x75_curiosity_720x720_round/debug/_ext/199453381/legato_widget_arc.o
 .text          0x00000000        0x0 build/dsi_xlcdc_rgba8888_ws_9x75_curiosity_720x720_round/debug/_ext/199453381/legato_widget_arc_skin_classic.o
 .data          0x00000000        0x0 build/dsi_xlcdc_rgba8888_ws_9x75_curiosity_720x720_round/debug/_ext/199453381/legato_widget_arc_skin_classic.o
 .bss           0x00000000        0x0 build/dsi_xlcdc_rgba8888_ws_9x75_curiosity_720x720_round/debug/_ext/199453381/legato_widget_arc_skin_classic.o
 .debug_info    0x00000000      0x4a0 build/dsi_xlcdc_rgba8888_ws_9x75_curiosity_720x720_round/debug/_ext/199453381/legato_widget_arc_skin_classic.o
 .debug_abbrev  0x00000000       0xb5 build/dsi_xlcdc_rgba8888_ws_9x75_curiosity_720x720_round/debug/_ext/199453381/legato_widget_arc_skin_classic.o
 .debug_aranges
                0x00000000       0x18 build/dsi_xlcdc_rgba8888_ws_9x75_curiosity_720x720_round/debug/_ext/199453381/legato_widget_arc_skin_classic.o
 .debug_line    0x00000000       0xd0 build/dsi_xlcdc_rgba8888_ws_9x75_curiosity_720x720_round/debug/_ext/199453381/legato_widget_arc_skin_classic.o
 .debug_str     0x00000000        0x9 build/dsi_xlcdc_rgba8888_ws_9x75_curiosity_720x720_round/debug/_ext/199453381/legato_widget_arc_skin_classic.o
 .comment       0x00000000       0x2c build/dsi_xlcdc_rgba8888_ws_9x75_curiosity_720x720_round/debug/_ext/199453381/legato_widget_arc_skin_classic.o
 .ARM.attributes
                0x00000000       0x32 build/dsi_xlcdc_rgba8888_ws_9x75_curiosity_720x720_round/debug/_ext/199453381/legato_widget_arc_skin_classic.o
 .text          0x00000000        0x0 build/dsi_xlcdc_rgba8888_ws_9x75_curiosity_720x720_round/debug/_ext/535443592/legato_widget_bar_graph.o
 .data          0x00000000        0x0 build/dsi_xlcdc_rgba8888_ws_9x75_curiosity_720x720_round/debug/_ext/535443592/legato_widget_bar_graph.o
 .bss           0x00000000        0x0 build/dsi_xlcdc_rgba8888_ws_9x75_curiosity_720x720_round/debug/_ext/535443592/legato_widget_bar_graph.o
 .debug_info    0x00000000      0x49e build/dsi_xlcdc_rgba8888_ws_9x75_curiosity_720x720_round/debug/_ext/535443592/legato_widget_bar_graph.o
 .debug_abbrev  0x00000000       0xb5 build/dsi_xlcdc_rgba8888_ws_9x75_curiosity_720x720_round/debug/_ext/535443592/legato_widget_bar_graph.o
 .debug_aranges
                0x00000000       0x18 build/dsi_xlcdc_rgba8888_ws_9x75_curiosity_720x720_round/debug/_ext/535443592/legato_widget_bar_graph.o
 .debug_line    0x00000000       0xd0 build/dsi_xlcdc_rgba8888_ws_9x75_curiosity_720x720_round/debug/_ext/535443592/legato_widget_bar_graph.o
 .debug_str     0x00000000        0x9 build/dsi_xlcdc_rgba8888_ws_9x75_curiosity_720x720_round/debug/_ext/535443592/legato_widget_bar_graph.o
 .comment       0x00000000       0x2c build/dsi_xlcdc_rgba8888_ws_9x75_curiosity_720x720_round/debug/_ext/535443592/legato_widget_bar_graph.o
 .ARM.attributes
                0x00000000       0x32 build/dsi_xlcdc_rgba8888_ws_9x75_curiosity_720x720_round/debug/_ext/535443592/legato_widget_bar_graph.o
 .text          0x00000000        0x0 build/dsi_xlcdc_rgba8888_ws_9x75_curiosity_720x720_round/debug/_ext/535443592/legato_widget_bar_graph_skin_classic.o
 .data          0x00000000        0x0 build/dsi_xlcdc_rgba8888_ws_9x75_curiosity_720x720_round/debug/_ext/535443592/legato_widget_bar_graph_skin_classic.o
 .bss           0x00000000        0x0 build/dsi_xlcdc_rgba8888_ws_9x75_curiosity_720x720_round/debug/_ext/535443592/legato_widget_bar_graph_skin_classic.o
 .debug_info    0x00000000      0x4ab build/dsi_xlcdc_rgba8888_ws_9x75_curiosity_720x720_round/debug/_ext/535443592/legato_widget_bar_graph_skin_classic.o
 .debug_abbrev  0x00000000       0xb5 build/dsi_xlcdc_rgba8888_ws_9x75_curiosity_720x720_round/debug/_ext/535443592/legato_widget_bar_graph_skin_classic.o
 .debug_aranges
                0x00000000       0x18 build/dsi_xlcdc_rgba8888_ws_9x75_curiosity_720x720_round/debug/_ext/535443592/legato_widget_bar_graph_skin_classic.o
 .debug_line    0x00000000       0xd0 build/dsi_xlcdc_rgba8888_ws_9x75_curiosity_720x720_round/debug/_ext/535443592/legato_widget_bar_graph_skin_classic.o
 .debug_str     0x00000000        0x9 build/dsi_xlcdc_rgba8888_ws_9x75_curiosity_720x720_round/debug/_ext/535443592/legato_widget_bar_graph_skin_classic.o
 .comment       0x00000000       0x2c build/dsi_xlcdc_rgba8888_ws_9x75_curiosity_720x720_round/debug/_ext/535443592/legato_widget_bar_graph_skin_classic.o
 .ARM.attributes
                0x00000000       0x32 build/dsi_xlcdc_rgba8888_ws_9x75_curiosity_720x720_round/debug/_ext/535443592/legato_widget_bar_graph_skin_classic.o
 .text          0x00000000        0x0 build/dsi_xlcdc_rgba8888_ws_9x75_curiosity_720x720_round/debug/_ext/2007924191/legato_widget_button_skin_classic.o
 .data          0x00000000        0x0 build/dsi_xlcdc_rgba8888_ws_9x75_curiosity_720x720_round/debug/_ext/2007924191/legato_widget_button_skin_classic.o
 .bss           0x00000000        0x0 build/dsi_xlcdc_rgba8888_ws_9x75_curiosity_720x720_round/debug/_ext/2007924191/legato_widget_button_skin_classic.o
 .debug_info    0x00000000      0x4a6 build/dsi_xlcdc_rgba8888_ws_9x75_curiosity_720x720_round/debug/_ext/2007924191/legato_widget_button_skin_classic.o
 .debug_abbrev  0x00000000       0xb5 build/dsi_xlcdc_rgba8888_ws_9x75_curiosity_720x720_round/debug/_ext/2007924191/legato_widget_button_skin_classic.o
 .debug_aranges
                0x00000000       0x18 build/dsi_xlcdc_rgba8888_ws_9x75_curiosity_720x720_round/debug/_ext/2007924191/legato_widget_button_skin_classic.o
 .debug_line    0x00000000       0xd0 build/dsi_xlcdc_rgba8888_ws_9x75_curiosity_720x720_round/debug/_ext/2007924191/legato_widget_button_skin_classic.o
 .debug_str     0x00000000        0x9 build/dsi_xlcdc_rgba8888_ws_9x75_curiosity_720x720_round/debug/_ext/2007924191/legato_widget_button_skin_classic.o
 .comment       0x00000000       0x2c build/dsi_xlcdc_rgba8888_ws_9x75_curiosity_720x720_round/debug/_ext/2007924191/legato_widget_button_skin_classic.o
 .ARM.attributes
                0x00000000       0x32 build/dsi_xlcdc_rgba8888_ws_9x75_curiosity_720x720_round/debug/_ext/2007924191/legato_widget_button_skin_classic.o
 .text          0x00000000        0x0 build/dsi_xlcdc_rgba8888_ws_9x75_curiosity_720x720_round/debug/_ext/2007924191/legato_widget_button.o
 .data          0x00000000        0x0 build/dsi_xlcdc_rgba8888_ws_9x75_curiosity_720x720_round/debug/_ext/2007924191/legato_widget_button.o
 .bss           0x00000000        0x0 build/dsi_xlcdc_rgba8888_ws_9x75_curiosity_720x720_round/debug/_ext/2007924191/legato_widget_button.o
 .debug_info    0x00000000      0x499 build/dsi_xlcdc_rgba8888_ws_9x75_curiosity_720x720_round/debug/_ext/2007924191/legato_widget_button.o
 .debug_abbrev  0x00000000       0xb5 build/dsi_xlcdc_rgba8888_ws_9x75_curiosity_720x720_round/debug/_ext/2007924191/legato_widget_button.o
 .debug_aranges
                0x00000000       0x18 build/dsi_xlcdc_rgba8888_ws_9x75_curiosity_720x720_round/debug/_ext/2007924191/legato_widget_button.o
 .debug_line    0x00000000       0xd0 build/dsi_xlcdc_rgba8888_ws_9x75_curiosity_720x720_round/debug/_ext/2007924191/legato_widget_button.o
 .debug_str     0x00000000        0x9 build/dsi_xlcdc_rgba8888_ws_9x75_curiosity_720x720_round/debug/_ext/2007924191/legato_widget_button.o
 .comment       0x00000000       0x2c build/dsi_xlcdc_rgba8888_ws_9x75_curiosity_720x720_round/debug/_ext/2007924191/legato_widget_button.o
 .ARM.attributes
                0x00000000       0x32 build/dsi_xlcdc_rgba8888_ws_9x75_curiosity_720x720_round/debug/_ext/2007924191/legato_widget_button.o
 .text          0x00000000        0x0 build/dsi_xlcdc_rgba8888_ws_9x75_curiosity_720x720_round/debug/_ext/475235536/legato_widget_checkbox.o
 .data          0x00000000        0x0 build/dsi_xlcdc_rgba8888_ws_9x75_curiosity_720x720_round/debug/_ext/475235536/legato_widget_checkbox.o
 .bss           0x00000000        0x0 build/dsi_xlcdc_rgba8888_ws_9x75_curiosity_720x720_round/debug/_ext/475235536/legato_widget_checkbox.o
 .debug_info    0x00000000      0x669 build/dsi_xlcdc_rgba8888_ws_9x75_curiosity_720x720_round/debug/_ext/475235536/legato_widget_checkbox.o
 .debug_abbrev  0x00000000       0xe8 build/dsi_xlcdc_rgba8888_ws_9x75_curiosity_720x720_round/debug/_ext/475235536/legato_widget_checkbox.o
 .debug_aranges
                0x00000000       0x18 build/dsi_xlcdc_rgba8888_ws_9x75_curiosity_720x720_round/debug/_ext/475235536/legato_widget_checkbox.o
 .debug_line    0x00000000      0x13d build/dsi_xlcdc_rgba8888_ws_9x75_curiosity_720x720_round/debug/_ext/475235536/legato_widget_checkbox.o
 .debug_str     0x00000000       0x1f build/dsi_xlcdc_rgba8888_ws_9x75_curiosity_720x720_round/debug/_ext/475235536/legato_widget_checkbox.o
 .comment       0x00000000       0x2c build/dsi_xlcdc_rgba8888_ws_9x75_curiosity_720x720_round/debug/_ext/475235536/legato_widget_checkbox.o
 .ARM.attributes
                0x00000000       0x32 build/dsi_xlcdc_rgba8888_ws_9x75_curiosity_720x720_round/debug/_ext/475235536/legato_widget_checkbox.o
 .text          0x00000000        0x0 build/dsi_xlcdc_rgba8888_ws_9x75_curiosity_720x720_round/debug/_ext/475235536/legato_widget_checkbox_skin_classic.o
 .data          0x00000000        0x0 build/dsi_xlcdc_rgba8888_ws_9x75_curiosity_720x720_round/debug/_ext/475235536/legato_widget_checkbox_skin_classic.o
 .bss           0x00000000        0x0 build/dsi_xlcdc_rgba8888_ws_9x75_curiosity_720x720_round/debug/_ext/475235536/legato_widget_checkbox_skin_classic.o
 .debug_info    0x00000000      0x4aa build/dsi_xlcdc_rgba8888_ws_9x75_curiosity_720x720_round/debug/_ext/475235536/legato_widget_checkbox_skin_classic.o
 .debug_abbrev  0x00000000       0xb5 build/dsi_xlcdc_rgba8888_ws_9x75_curiosity_720x720_round/debug/_ext/475235536/legato_widget_checkbox_skin_classic.o
 .debug_aranges
                0x00000000       0x18 build/dsi_xlcdc_rgba8888_ws_9x75_curiosity_720x720_round/debug/_ext/475235536/legato_widget_checkbox_skin_classic.o
 .debug_line    0x00000000       0xd0 build/dsi_xlcdc_rgba8888_ws_9x75_curiosity_720x720_round/debug/_ext/475235536/legato_widget_checkbox_skin_classic.o
 .debug_str     0x00000000        0x9 build/dsi_xlcdc_rgba8888_ws_9x75_curiosity_720x720_round/debug/_ext/475235536/legato_widget_checkbox_skin_classic.o
 .comment       0x00000000       0x2c build/dsi_xlcdc_rgba8888_ws_9x75_curiosity_720x720_round/debug/_ext/475235536/legato_widget_checkbox_skin_classic.o
 .ARM.attributes
                0x00000000       0x32 build/dsi_xlcdc_rgba8888_ws_9x75_curiosity_720x720_round/debug/_ext/475235536/legato_widget_checkbox_skin_classic.o
 .text          0x00000000        0x0 build/dsi_xlcdc_rgba8888_ws_9x75_curiosity_720x720_round/debug/_ext/2025395069/legato_widget_circle.o
 .data          0x00000000        0x0 build/dsi_xlcdc_rgba8888_ws_9x75_curiosity_720x720_round/debug/_ext/2025395069/legato_widget_circle.o
 .bss           0x00000000        0x0 build/dsi_xlcdc_rgba8888_ws_9x75_curiosity_720x720_round/debug/_ext/2025395069/legato_widget_circle.o
 .debug_info    0x00000000      0x665 build/dsi_xlcdc_rgba8888_ws_9x75_curiosity_720x720_round/debug/_ext/2025395069/legato_widget_circle.o
 .debug_abbrev  0x00000000       0xe8 build/dsi_xlcdc_rgba8888_ws_9x75_curiosity_720x720_round/debug/_ext/2025395069/legato_widget_circle.o
 .debug_aranges
                0x00000000       0x18 build/dsi_xlcdc_rgba8888_ws_9x75_curiosity_720x720_round/debug/_ext/2025395069/legato_widget_circle.o
 .debug_line    0x00000000      0x13d build/dsi_xlcdc_rgba8888_ws_9x75_curiosity_720x720_round/debug/_ext/2025395069/legato_widget_circle.o
 .debug_str     0x00000000       0x1f build/dsi_xlcdc_rgba8888_ws_9x75_curiosity_720x720_round/debug/_ext/2025395069/legato_widget_circle.o
 .comment       0x00000000       0x2c build/dsi_xlcdc_rgba8888_ws_9x75_curiosity_720x720_round/debug/_ext/2025395069/legato_widget_circle.o
 .ARM.attributes
                0x00000000       0x32 build/dsi_xlcdc_rgba8888_ws_9x75_curiosity_720x720_round/debug/_ext/2025395069/legato_widget_circle.o
 .text          0x00000000        0x0 build/dsi_xlcdc_rgba8888_ws_9x75_curiosity_720x720_round/debug/_ext/2025395069/legato_widget_circle_skin_classic.o
 .data          0x00000000        0x0 build/dsi_xlcdc_rgba8888_ws_9x75_curiosity_720x720_round/debug/_ext/2025395069/legato_widget_circle_skin_classic.o
 .bss           0x00000000        0x0 build/dsi_xlcdc_rgba8888_ws_9x75_curiosity_720x720_round/debug/_ext/2025395069/legato_widget_circle_skin_classic.o
 .debug_info    0x00000000      0x672 build/dsi_xlcdc_rgba8888_ws_9x75_curiosity_720x720_round/debug/_ext/2025395069/legato_widget_circle_skin_classic.o
 .debug_abbrev  0x00000000       0xe8 build/dsi_xlcdc_rgba8888_ws_9x75_curiosity_720x720_round/debug/_ext/2025395069/legato_widget_circle_skin_classic.o
 .debug_aranges
                0x00000000       0x18 build/dsi_xlcdc_rgba8888_ws_9x75_curiosity_720x720_round/debug/_ext/2025395069/legato_widget_circle_skin_classic.o
 .debug_line    0x00000000      0x13d build/dsi_xlcdc_rgba8888_ws_9x75_curiosity_720x720_round/debug/_ext/2025395069/legato_widget_circle_skin_classic.o
 .debug_str     0x00000000       0x1f build/dsi_xlcdc_rgba8888_ws_9x75_curiosity_720x720_round/debug/_ext/2025395069/legato_widget_circle_skin_classic.o
 .comment       0x00000000       0x2c build/dsi_xlcdc_rgba8888_ws_9x75_curiosity_720x720_round/debug/_ext/2025395069/legato_widget_circle_skin_classic.o
 .ARM.attributes
                0x00000000       0x32 build/dsi_xlcdc_rgba8888_ws_9x75_curiosity_720x720_round/debug/_ext/2025395069/legato_widget_circle_skin_classic.o
 .text          0x00000000        0x0 build/dsi_xlcdc_rgba8888_ws_9x75_curiosity_720x720_round/debug/_ext/1167905389/legato_widget_circular_gauge_skin_classic.o
 .data          0x00000000        0x0 build/dsi_xlcdc_rgba8888_ws_9x75_curiosity_720x720_round/debug/_ext/1167905389/legato_widget_circular_gauge_skin_classic.o
 .bss           0x00000000        0x0 build/dsi_xlcdc_rgba8888_ws_9x75_curiosity_720x720_round/debug/_ext/1167905389/legato_widget_circular_gauge_skin_classic.o
 .debug_info    0x00000000      0x4b5 build/dsi_xlcdc_rgba8888_ws_9x75_curiosity_720x720_round/debug/_ext/1167905389/legato_widget_circular_gauge_skin_classic.o
 .debug_abbrev  0x00000000       0xb5 build/dsi_xlcdc_rgba8888_ws_9x75_curiosity_720x720_round/debug/_ext/1167905389/legato_widget_circular_gauge_skin_classic.o
 .debug_aranges
                0x00000000       0x18 build/dsi_xlcdc_rgba8888_ws_9x75_curiosity_720x720_round/debug/_ext/1167905389/legato_widget_circular_gauge_skin_classic.o
 .debug_line    0x00000000       0xd0 build/dsi_xlcdc_rgba8888_ws_9x75_curiosity_720x720_round/debug/_ext/1167905389/legato_widget_circular_gauge_skin_classic.o
 .debug_str     0x00000000        0x9 build/dsi_xlcdc_rgba8888_ws_9x75_curiosity_720x720_round/debug/_ext/1167905389/legato_widget_circular_gauge_skin_classic.o
 .comment       0x00000000       0x2c build/dsi_xlcdc_rgba8888_ws_9x75_curiosity_720x720_round/debug/_ext/1167905389/legato_widget_circular_gauge_skin_classic.o
 .ARM.attributes
                0x00000000       0x32 build/dsi_xlcdc_rgba8888_ws_9x75_curiosity_720x720_round/debug/_ext/1167905389/legato_widget_circular_gauge_skin_classic.o
 .text          0x00000000        0x0 build/dsi_xlcdc_rgba8888_ws_9x75_curiosity_720x720_round/debug/_ext/1167905389/legato_widget_circular_gauge.o
 .data          0x00000000        0x0 build/dsi_xlcdc_rgba8888_ws_9x75_curiosity_720x720_round/debug/_ext/1167905389/legato_widget_circular_gauge.o
 .bss           0x00000000        0x0 build/dsi_xlcdc_rgba8888_ws_9x75_curiosity_720x720_round/debug/_ext/1167905389/legato_widget_circular_gauge.o
 .debug_info    0x00000000      0x4a8 build/dsi_xlcdc_rgba8888_ws_9x75_curiosity_720x720_round/debug/_ext/1167905389/legato_widget_circular_gauge.o
 .debug_abbrev  0x00000000       0xb5 build/dsi_xlcdc_rgba8888_ws_9x75_curiosity_720x720_round/debug/_ext/1167905389/legato_widget_circular_gauge.o
 .debug_aranges
                0x00000000       0x18 build/dsi_xlcdc_rgba8888_ws_9x75_curiosity_720x720_round/debug/_ext/1167905389/legato_widget_circular_gauge.o
 .debug_line    0x00000000       0xd0 build/dsi_xlcdc_rgba8888_ws_9x75_curiosity_720x720_round/debug/_ext/1167905389/legato_widget_circular_gauge.o
 .debug_str     0x00000000        0x9 build/dsi_xlcdc_rgba8888_ws_9x75_curiosity_720x720_round/debug/_ext/1167905389/legato_widget_circular_gauge.o
 .comment       0x00000000       0x2c build/dsi_xlcdc_rgba8888_ws_9x75_curiosity_720x720_round/debug/_ext/1167905389/legato_widget_circular_gauge.o
 .ARM.attributes
                0x00000000       0x32 build/dsi_xlcdc_rgba8888_ws_9x75_curiosity_720x720_round/debug/_ext/1167905389/legato_widget_circular_gauge.o
 .text          0x00000000        0x0 build/dsi_xlcdc_rgba8888_ws_9x75_curiosity_720x720_round/debug/_ext/2096290323/legato_widget_circular_slider_skin_classic.o
 .data          0x00000000        0x0 build/dsi_xlcdc_rgba8888_ws_9x75_curiosity_720x720_round/debug/_ext/2096290323/legato_widget_circular_slider_skin_classic.o
 .bss           0x00000000        0x0 build/dsi_xlcdc_rgba8888_ws_9x75_curiosity_720x720_round/debug/_ext/2096290323/legato_widget_circular_slider_skin_classic.o
 .debug_info    0x00000000      0x4b7 build/dsi_xlcdc_rgba8888_ws_9x75_curiosity_720x720_round/debug/_ext/2096290323/legato_widget_circular_slider_skin_classic.o
 .debug_abbrev  0x00000000       0xb5 build/dsi_xlcdc_rgba8888_ws_9x75_curiosity_720x720_round/debug/_ext/2096290323/legato_widget_circular_slider_skin_classic.o
 .debug_aranges
                0x00000000       0x18 build/dsi_xlcdc_rgba8888_ws_9x75_curiosity_720x720_round/debug/_ext/2096290323/legato_widget_circular_slider_skin_classic.o
 .debug_line    0x00000000       0xd0 build/dsi_xlcdc_rgba8888_ws_9x75_curiosity_720x720_round/debug/_ext/2096290323/legato_widget_circular_slider_skin_classic.o
 .debug_str     0x00000000        0x9 build/dsi_xlcdc_rgba8888_ws_9x75_curiosity_720x720_round/debug/_ext/2096290323/legato_widget_circular_slider_skin_classic.o
 .comment       0x00000000       0x2c build/dsi_xlcdc_rgba8888_ws_9x75_curiosity_720x720_round/debug/_ext/2096290323/legato_widget_circular_slider_skin_classic.o
 .ARM.attributes
                0x00000000       0x32 build/dsi_xlcdc_rgba8888_ws_9x75_curiosity_720x720_round/debug/_ext/2096290323/legato_widget_circular_slider_skin_classic.o
 .text          0x00000000        0x0 build/dsi_xlcdc_rgba8888_ws_9x75_curiosity_720x720_round/debug/_ext/2096290323/legato_widget_circular_slider.o
 .data          0x00000000        0x0 build/dsi_xlcdc_rgba8888_ws_9x75_curiosity_720x720_round/debug/_ext/2096290323/legato_widget_circular_slider.o
 .bss           0x00000000        0x0 build/dsi_xlcdc_rgba8888_ws_9x75_curiosity_720x720_round/debug/_ext/2096290323/legato_widget_circular_slider.o
 .debug_info    0x00000000      0x4aa build/dsi_xlcdc_rgba8888_ws_9x75_curiosity_720x720_round/debug/_ext/2096290323/legato_widget_circular_slider.o
 .debug_abbrev  0x00000000       0xb5 build/dsi_xlcdc_rgba8888_ws_9x75_curiosity_720x720_round/debug/_ext/2096290323/legato_widget_circular_slider.o
 .debug_aranges
                0x00000000       0x18 build/dsi_xlcdc_rgba8888_ws_9x75_curiosity_720x720_round/debug/_ext/2096290323/legato_widget_circular_slider.o
 .debug_line    0x00000000       0xd0 build/dsi_xlcdc_rgba8888_ws_9x75_curiosity_720x720_round/debug/_ext/2096290323/legato_widget_circular_slider.o
 .debug_str     0x00000000        0x9 build/dsi_xlcdc_rgba8888_ws_9x75_curiosity_720x720_round/debug/_ext/2096290323/legato_widget_circular_slider.o
 .comment       0x00000000       0x2c build/dsi_xlcdc_rgba8888_ws_9x75_curiosity_720x720_round/debug/_ext/2096290323/legato_widget_circular_slider.o
 .ARM.attributes
                0x00000000       0x32 build/dsi_xlcdc_rgba8888_ws_9x75_curiosity_720x720_round/debug/_ext/2096290323/legato_widget_circular_slider.o
 .text          0x00000000        0x0 build/dsi_xlcdc_rgba8888_ws_9x75_curiosity_720x720_round/debug/_ext/1490933852/legato_widget_drawsurface.o
 .data          0x00000000        0x0 build/dsi_xlcdc_rgba8888_ws_9x75_curiosity_720x720_round/debug/_ext/1490933852/legato_widget_drawsurface.o
 .bss           0x00000000        0x0 build/dsi_xlcdc_rgba8888_ws_9x75_curiosity_720x720_round/debug/_ext/1490933852/legato_widget_drawsurface.o
 .debug_info    0x00000000      0x4a3 build/dsi_xlcdc_rgba8888_ws_9x75_curiosity_720x720_round/debug/_ext/1490933852/legato_widget_drawsurface.o
 .debug_abbrev  0x00000000       0xb5 build/dsi_xlcdc_rgba8888_ws_9x75_curiosity_720x720_round/debug/_ext/1490933852/legato_widget_drawsurface.o
 .debug_aranges
                0x00000000       0x18 build/dsi_xlcdc_rgba8888_ws_9x75_curiosity_720x720_round/debug/_ext/1490933852/legato_widget_drawsurface.o
 .debug_line    0x00000000       0xd0 build/dsi_xlcdc_rgba8888_ws_9x75_curiosity_720x720_round/debug/_ext/1490933852/legato_widget_drawsurface.o
 .debug_str     0x00000000        0x9 build/dsi_xlcdc_rgba8888_ws_9x75_curiosity_720x720_round/debug/_ext/1490933852/legato_widget_drawsurface.o
 .comment       0x00000000       0x2c build/dsi_xlcdc_rgba8888_ws_9x75_curiosity_720x720_round/debug/_ext/1490933852/legato_widget_drawsurface.o
 .ARM.attributes
                0x00000000       0x32 build/dsi_xlcdc_rgba8888_ws_9x75_curiosity_720x720_round/debug/_ext/1490933852/legato_widget_drawsurface.o
 .text          0x00000000        0x0 build/dsi_xlcdc_rgba8888_ws_9x75_curiosity_720x720_round/debug/_ext/1490933852/legato_widget_drawsurface_skin_classic.o
 .data          0x00000000        0x0 build/dsi_xlcdc_rgba8888_ws_9x75_curiosity_720x720_round/debug/_ext/1490933852/legato_widget_drawsurface_skin_classic.o
 .bss           0x00000000        0x0 build/dsi_xlcdc_rgba8888_ws_9x75_curiosity_720x720_round/debug/_ext/1490933852/legato_widget_drawsurface_skin_classic.o
 .debug_info    0x00000000      0x4b0 build/dsi_xlcdc_rgba8888_ws_9x75_curiosity_720x720_round/debug/_ext/1490933852/legato_widget_drawsurface_skin_classic.o
 .debug_abbrev  0x00000000       0xb5 build/dsi_xlcdc_rgba8888_ws_9x75_curiosity_720x720_round/debug/_ext/1490933852/legato_widget_drawsurface_skin_classic.o
 .debug_aranges
                0x00000000       0x18 build/dsi_xlcdc_rgba8888_ws_9x75_curiosity_720x720_round/debug/_ext/1490933852/legato_widget_drawsurface_skin_classic.o
 .debug_line    0x00000000       0xd0 build/dsi_xlcdc_rgba8888_ws_9x75_curiosity_720x720_round/debug/_ext/1490933852/legato_widget_drawsurface_skin_classic.o
 .debug_str     0x00000000        0x9 build/dsi_xlcdc_rgba8888_ws_9x75_curiosity_720x720_round/debug/_ext/1490933852/legato_widget_drawsurface_skin_classic.o
 .comment       0x00000000       0x2c build/dsi_xlcdc_rgba8888_ws_9x75_curiosity_720x720_round/debug/_ext/1490933852/legato_widget_drawsurface_skin_classic.o
 .ARM.attributes
                0x00000000       0x32 build/dsi_xlcdc_rgba8888_ws_9x75_curiosity_720x720_round/debug/_ext/1490933852/legato_widget_drawsurface_skin_classic.o
 .text          0x00000000        0x0 build/dsi_xlcdc_rgba8888_ws_9x75_curiosity_720x720_round/debug/_ext/1922476387/legato_widget_gradient_skin_classic.o
 .data          0x00000000        0x0 build/dsi_xlcdc_rgba8888_ws_9x75_curiosity_720x720_round/debug/_ext/1922476387/legato_widget_gradient_skin_classic.o
 .bss           0x00000000        0x0 build/dsi_xlcdc_rgba8888_ws_9x75_curiosity_720x720_round/debug/_ext/1922476387/legato_widget_gradient_skin_classic.o
 .debug_info    0x00000000      0x4aa build/dsi_xlcdc_rgba8888_ws_9x75_curiosity_720x720_round/debug/_ext/1922476387/legato_widget_gradient_skin_classic.o
 .debug_abbrev  0x00000000       0xb5 build/dsi_xlcdc_rgba8888_ws_9x75_curiosity_720x720_round/debug/_ext/1922476387/legato_widget_gradient_skin_classic.o
 .debug_aranges
                0x00000000       0x18 build/dsi_xlcdc_rgba8888_ws_9x75_curiosity_720x720_round/debug/_ext/1922476387/legato_widget_gradient_skin_classic.o
 .debug_line    0x00000000       0xd0 build/dsi_xlcdc_rgba8888_ws_9x75_curiosity_720x720_round/debug/_ext/1922476387/legato_widget_gradient_skin_classic.o
 .debug_str     0x00000000        0x9 build/dsi_xlcdc_rgba8888_ws_9x75_curiosity_720x720_round/debug/_ext/1922476387/legato_widget_gradient_skin_classic.o
 .comment       0x00000000       0x2c build/dsi_xlcdc_rgba8888_ws_9x75_curiosity_720x720_round/debug/_ext/1922476387/legato_widget_gradient_skin_classic.o
 .ARM.attributes
                0x00000000       0x32 build/dsi_xlcdc_rgba8888_ws_9x75_curiosity_720x720_round/debug/_ext/1922476387/legato_widget_gradient_skin_classic.o
 .text          0x00000000        0x0 build/dsi_xlcdc_rgba8888_ws_9x75_curiosity_720x720_round/debug/_ext/1922476387/legato_widget_gradient.o
 .data          0x00000000        0x0 build/dsi_xlcdc_rgba8888_ws_9x75_curiosity_720x720_round/debug/_ext/1922476387/legato_widget_gradient.o
 .bss           0x00000000        0x0 build/dsi_xlcdc_rgba8888_ws_9x75_curiosity_720x720_round/debug/_ext/1922476387/legato_widget_gradient.o
 .debug_info    0x00000000      0x49d build/dsi_xlcdc_rgba8888_ws_9x75_curiosity_720x720_round/debug/_ext/1922476387/legato_widget_gradient.o
 .debug_abbrev  0x00000000       0xb5 build/dsi_xlcdc_rgba8888_ws_9x75_curiosity_720x720_round/debug/_ext/1922476387/legato_widget_gradient.o
 .debug_aranges
                0x00000000       0x18 build/dsi_xlcdc_rgba8888_ws_9x75_curiosity_720x720_round/debug/_ext/1922476387/legato_widget_gradient.o
 .debug_line    0x00000000       0xd0 build/dsi_xlcdc_rgba8888_ws_9x75_curiosity_720x720_round/debug/_ext/1922476387/legato_widget_gradient.o
 .debug_str     0x00000000        0x9 build/dsi_xlcdc_rgba8888_ws_9x75_curiosity_720x720_round/debug/_ext/1922476387/legato_widget_gradient.o
 .comment       0x00000000       0x2c build/dsi_xlcdc_rgba8888_ws_9x75_curiosity_720x720_round/debug/_ext/1922476387/legato_widget_gradient.o
 .ARM.attributes
                0x00000000       0x32 build/dsi_xlcdc_rgba8888_ws_9x75_curiosity_720x720_round/debug/_ext/1922476387/legato_widget_gradient.o
 .text          0x00000000        0x0 build/dsi_xlcdc_rgba8888_ws_9x75_curiosity_720x720_round/debug/_ext/1505762727/legato_widget_groupbox.o
 .data          0x00000000        0x0 build/dsi_xlcdc_rgba8888_ws_9x75_curiosity_720x720_round/debug/_ext/1505762727/legato_widget_groupbox.o
 .bss           0x00000000        0x0 build/dsi_xlcdc_rgba8888_ws_9x75_curiosity_720x720_round/debug/_ext/1505762727/legato_widget_groupbox.o
 .debug_info    0x00000000      0x49d build/dsi_xlcdc_rgba8888_ws_9x75_curiosity_720x720_round/debug/_ext/1505762727/legato_widget_groupbox.o
 .debug_abbrev  0x00000000       0xb5 build/dsi_xlcdc_rgba8888_ws_9x75_curiosity_720x720_round/debug/_ext/1505762727/legato_widget_groupbox.o
 .debug_aranges
                0x00000000       0x18 build/dsi_xlcdc_rgba8888_ws_9x75_curiosity_720x720_round/debug/_ext/1505762727/legato_widget_groupbox.o
 .debug_line    0x00000000       0xd0 build/dsi_xlcdc_rgba8888_ws_9x75_curiosity_720x720_round/debug/_ext/1505762727/legato_widget_groupbox.o
 .debug_str     0x00000000        0x9 build/dsi_xlcdc_rgba8888_ws_9x75_curiosity_720x720_round/debug/_ext/1505762727/legato_widget_groupbox.o
 .comment       0x00000000       0x2c build/dsi_xlcdc_rgba8888_ws_9x75_curiosity_720x720_round/debug/_ext/1505762727/legato_widget_groupbox.o
 .ARM.attributes
                0x00000000       0x32 build/dsi_xlcdc_rgba8888_ws_9x75_curiosity_720x720_round/debug/_ext/1505762727/legato_widget_groupbox.o
 .text          0x00000000        0x0 build/dsi_xlcdc_rgba8888_ws_9x75_curiosity_720x720_round/debug/_ext/1505762727/legato_widget_groupbox_skin_classic.o
 .data          0x00000000        0x0 build/dsi_xlcdc_rgba8888_ws_9x75_curiosity_720x720_round/debug/_ext/1505762727/legato_widget_groupbox_skin_classic.o
 .bss           0x00000000        0x0 build/dsi_xlcdc_rgba8888_ws_9x75_curiosity_720x720_round/debug/_ext/1505762727/legato_widget_groupbox_skin_classic.o
 .debug_info    0x00000000      0x4aa build/dsi_xlcdc_rgba8888_ws_9x75_curiosity_720x720_round/debug/_ext/1505762727/legato_widget_groupbox_skin_classic.o
 .debug_abbrev  0x00000000       0xb5 build/dsi_xlcdc_rgba8888_ws_9x75_curiosity_720x720_round/debug/_ext/1505762727/legato_widget_groupbox_skin_classic.o
 .debug_aranges
                0x00000000       0x18 build/dsi_xlcdc_rgba8888_ws_9x75_curiosity_720x720_round/debug/_ext/1505762727/legato_widget_groupbox_skin_classic.o
 .debug_line    0x00000000       0xd0 build/dsi_xlcdc_rgba8888_ws_9x75_curiosity_720x720_round/debug/_ext/1505762727/legato_widget_groupbox_skin_classic.o
 .debug_str     0x00000000        0x9 build/dsi_xlcdc_rgba8888_ws_9x75_curiosity_720x720_round/debug/_ext/1505762727/legato_widget_groupbox_skin_classic.o
 .comment       0x00000000       0x2c build/dsi_xlcdc_rgba8888_ws_9x75_curiosity_720x720_round/debug/_ext/1505762727/legato_widget_groupbox_skin_classic.o
 .ARM.attributes
                0x00000000       0x32 build/dsi_xlcdc_rgba8888_ws_9x75_curiosity_720x720_round/debug/_ext/1505762727/legato_widget_groupbox_skin_classic.o
 .text          0x00000000        0x0 build/dsi_xlcdc_rgba8888_ws_9x75_curiosity_720x720_round/debug/_ext/1591588594/legato_widget_image_skin_classic.o
 .data          0x00000000        0x0 build/dsi_xlcdc_rgba8888_ws_9x75_curiosity_720x720_round/debug/_ext/1591588594/legato_widget_image_skin_classic.o
 .bss           0x00000000        0x0 build/dsi_xlcdc_rgba8888_ws_9x75_curiosity_720x720_round/debug/_ext/1591588594/legato_widget_image_skin_classic.o
 .text          0x00000000        0x0 build/dsi_xlcdc_rgba8888_ws_9x75_curiosity_720x720_round/debug/_ext/1591588594/legato_widget_image.o
 .data          0x00000000        0x0 build/dsi_xlcdc_rgba8888_ws_9x75_curiosity_720x720_round/debug/_ext/1591588594/legato_widget_image.o
 .bss           0x00000000        0x0 build/dsi_xlcdc_rgba8888_ws_9x75_curiosity_720x720_round/debug/_ext/1591588594/legato_widget_image.o
 .text._leImageWidget_Constructor
                0x00000000       0x40 build/dsi_xlcdc_rgba8888_ws_9x75_curiosity_720x720_round/debug/_ext/1591588594/legato_widget_image.o
 .text          0x00000000        0x0 build/dsi_xlcdc_rgba8888_ws_9x75_curiosity_720x720_round/debug/_ext/335127529/legato_widget_imagerotate.o
 .data          0x00000000        0x0 build/dsi_xlcdc_rgba8888_ws_9x75_curiosity_720x720_round/debug/_ext/335127529/legato_widget_imagerotate.o
 .bss           0x00000000        0x0 build/dsi_xlcdc_rgba8888_ws_9x75_curiosity_720x720_round/debug/_ext/335127529/legato_widget_imagerotate.o
 .debug_info    0x00000000      0x4a3 build/dsi_xlcdc_rgba8888_ws_9x75_curiosity_720x720_round/debug/_ext/335127529/legato_widget_imagerotate.o
 .debug_abbrev  0x00000000       0xb5 build/dsi_xlcdc_rgba8888_ws_9x75_curiosity_720x720_round/debug/_ext/335127529/legato_widget_imagerotate.o
 .debug_aranges
                0x00000000       0x18 build/dsi_xlcdc_rgba8888_ws_9x75_curiosity_720x720_round/debug/_ext/335127529/legato_widget_imagerotate.o
 .debug_line    0x00000000       0xd0 build/dsi_xlcdc_rgba8888_ws_9x75_curiosity_720x720_round/debug/_ext/335127529/legato_widget_imagerotate.o
 .debug_str     0x00000000        0x9 build/dsi_xlcdc_rgba8888_ws_9x75_curiosity_720x720_round/debug/_ext/335127529/legato_widget_imagerotate.o
 .comment       0x00000000       0x2c build/dsi_xlcdc_rgba8888_ws_9x75_curiosity_720x720_round/debug/_ext/335127529/legato_widget_imagerotate.o
 .ARM.attributes
                0x00000000       0x32 build/dsi_xlcdc_rgba8888_ws_9x75_curiosity_720x720_round/debug/_ext/335127529/legato_widget_imagerotate.o
 .text          0x00000000        0x0 build/dsi_xlcdc_rgba8888_ws_9x75_curiosity_720x720_round/debug/_ext/335127529/legato_widget_imagerotate_skin_classic.o
 .data          0x00000000        0x0 build/dsi_xlcdc_rgba8888_ws_9x75_curiosity_720x720_round/debug/_ext/335127529/legato_widget_imagerotate_skin_classic.o
 .bss           0x00000000        0x0 build/dsi_xlcdc_rgba8888_ws_9x75_curiosity_720x720_round/debug/_ext/335127529/legato_widget_imagerotate_skin_classic.o
 .debug_info    0x00000000      0x4b0 build/dsi_xlcdc_rgba8888_ws_9x75_curiosity_720x720_round/debug/_ext/335127529/legato_widget_imagerotate_skin_classic.o
 .debug_abbrev  0x00000000       0xb5 build/dsi_xlcdc_rgba8888_ws_9x75_curiosity_720x720_round/debug/_ext/335127529/legato_widget_imagerotate_skin_classic.o
 .debug_aranges
                0x00000000       0x18 build/dsi_xlcdc_rgba8888_ws_9x75_curiosity_720x720_round/debug/_ext/335127529/legato_widget_imagerotate_skin_classic.o
 .debug_line    0x00000000       0xd0 build/dsi_xlcdc_rgba8888_ws_9x75_curiosity_720x720_round/debug/_ext/335127529/legato_widget_imagerotate_skin_classic.o
 .debug_str     0x00000000        0x9 build/dsi_xlcdc_rgba8888_ws_9x75_curiosity_720x720_round/debug/_ext/335127529/legato_widget_imagerotate_skin_classic.o
 .comment       0x00000000       0x2c build/dsi_xlcdc_rgba8888_ws_9x75_curiosity_720x720_round/debug/_ext/335127529/legato_widget_imagerotate_skin_classic.o
 .ARM.attributes
                0x00000000       0x32 build/dsi_xlcdc_rgba8888_ws_9x75_curiosity_720x720_round/debug/_ext/335127529/legato_widget_imagerotate_skin_classic.o
 .text          0x00000000        0x0 build/dsi_xlcdc_rgba8888_ws_9x75_curiosity_720x720_round/debug/_ext/1951021308/legato_widget_imagescale_skin_classic.o
 .data          0x00000000        0x0 build/dsi_xlcdc_rgba8888_ws_9x75_curiosity_720x720_round/debug/_ext/1951021308/legato_widget_imagescale_skin_classic.o
 .bss           0x00000000        0x0 build/dsi_xlcdc_rgba8888_ws_9x75_curiosity_720x720_round/debug/_ext/1951021308/legato_widget_imagescale_skin_classic.o
 .debug_info    0x00000000      0x4ae build/dsi_xlcdc_rgba8888_ws_9x75_curiosity_720x720_round/debug/_ext/1951021308/legato_widget_imagescale_skin_classic.o
 .debug_abbrev  0x00000000       0xb5 build/dsi_xlcdc_rgba8888_ws_9x75_curiosity_720x720_round/debug/_ext/1951021308/legato_widget_imagescale_skin_classic.o
 .debug_aranges
                0x00000000       0x18 build/dsi_xlcdc_rgba8888_ws_9x75_curiosity_720x720_round/debug/_ext/1951021308/legato_widget_imagescale_skin_classic.o
 .debug_line    0x00000000       0xd0 build/dsi_xlcdc_rgba8888_ws_9x75_curiosity_720x720_round/debug/_ext/1951021308/legato_widget_imagescale_skin_classic.o
 .debug_str     0x00000000        0x9 build/dsi_xlcdc_rgba8888_ws_9x75_curiosity_720x720_round/debug/_ext/1951021308/legato_widget_imagescale_skin_classic.o
 .comment       0x00000000       0x2c build/dsi_xlcdc_rgba8888_ws_9x75_curiosity_720x720_round/debug/_ext/1951021308/legato_widget_imagescale_skin_classic.o
 .ARM.attributes
                0x00000000       0x32 build/dsi_xlcdc_rgba8888_ws_9x75_curiosity_720x720_round/debug/_ext/1951021308/legato_widget_imagescale_skin_classic.o
 .text          0x00000000        0x0 build/dsi_xlcdc_rgba8888_ws_9x75_curiosity_720x720_round/debug/_ext/1951021308/legato_widget_imagescale.o
 .data          0x00000000        0x0 build/dsi_xlcdc_rgba8888_ws_9x75_curiosity_720x720_round/debug/_ext/1951021308/legato_widget_imagescale.o
 .bss           0x00000000        0x0 build/dsi_xlcdc_rgba8888_ws_9x75_curiosity_720x720_round/debug/_ext/1951021308/legato_widget_imagescale.o
 .debug_info    0x00000000      0x4a1 build/dsi_xlcdc_rgba8888_ws_9x75_curiosity_720x720_round/debug/_ext/1951021308/legato_widget_imagescale.o
 .debug_abbrev  0x00000000       0xb5 build/dsi_xlcdc_rgba8888_ws_9x75_curiosity_720x720_round/debug/_ext/1951021308/legato_widget_imagescale.o
 .debug_aranges
                0x00000000       0x18 build/dsi_xlcdc_rgba8888_ws_9x75_curiosity_720x720_round/debug/_ext/1951021308/legato_widget_imagescale.o
 .debug_line    0x00000000       0xd0 build/dsi_xlcdc_rgba8888_ws_9x75_curiosity_720x720_round/debug/_ext/1951021308/legato_widget_imagescale.o
 .debug_str     0x00000000        0x9 build/dsi_xlcdc_rgba8888_ws_9x75_curiosity_720x720_round/debug/_ext/1951021308/legato_widget_imagescale.o
 .comment       0x00000000       0x2c build/dsi_xlcdc_rgba8888_ws_9x75_curiosity_720x720_round/debug/_ext/1951021308/legato_widget_imagescale.o
 .ARM.attributes
                0x00000000       0x32 build/dsi_xlcdc_rgba8888_ws_9x75_curiosity_720x720_round/debug/_ext/1951021308/legato_widget_imagescale.o
 .text          0x00000000        0x0 build/dsi_xlcdc_rgba8888_ws_9x75_curiosity_720x720_round/debug/_ext/1324864207/legato_widget_imagesequence_skin_classic.o
 .data          0x00000000        0x0 build/dsi_xlcdc_rgba8888_ws_9x75_curiosity_720x720_round/debug/_ext/1324864207/legato_widget_imagesequence_skin_classic.o
 .bss           0x00000000        0x0 build/dsi_xlcdc_rgba8888_ws_9x75_curiosity_720x720_round/debug/_ext/1324864207/legato_widget_imagesequence_skin_classic.o
 .debug_info    0x00000000      0x4b4 build/dsi_xlcdc_rgba8888_ws_9x75_curiosity_720x720_round/debug/_ext/1324864207/legato_widget_imagesequence_skin_classic.o
 .debug_abbrev  0x00000000       0xb5 build/dsi_xlcdc_rgba8888_ws_9x75_curiosity_720x720_round/debug/_ext/1324864207/legato_widget_imagesequence_skin_classic.o
 .debug_aranges
                0x00000000       0x18 build/dsi_xlcdc_rgba8888_ws_9x75_curiosity_720x720_round/debug/_ext/1324864207/legato_widget_imagesequence_skin_classic.o
 .debug_line    0x00000000       0xd0 build/dsi_xlcdc_rgba8888_ws_9x75_curiosity_720x720_round/debug/_ext/1324864207/legato_widget_imagesequence_skin_classic.o
 .debug_str     0x00000000        0x9 build/dsi_xlcdc_rgba8888_ws_9x75_curiosity_720x720_round/debug/_ext/1324864207/legato_widget_imagesequence_skin_classic.o
 .comment       0x00000000       0x2c build/dsi_xlcdc_rgba8888_ws_9x75_curiosity_720x720_round/debug/_ext/1324864207/legato_widget_imagesequence_skin_classic.o
 .ARM.attributes
                0x00000000       0x32 build/dsi_xlcdc_rgba8888_ws_9x75_curiosity_720x720_round/debug/_ext/1324864207/legato_widget_imagesequence_skin_classic.o
 .text          0x00000000        0x0 build/dsi_xlcdc_rgba8888_ws_9x75_curiosity_720x720_round/debug/_ext/1324864207/legato_widget_imagesequence.o
 .data          0x00000000        0x0 build/dsi_xlcdc_rgba8888_ws_9x75_curiosity_720x720_round/debug/_ext/1324864207/legato_widget_imagesequence.o
 .bss           0x00000000        0x0 build/dsi_xlcdc_rgba8888_ws_9x75_curiosity_720x720_round/debug/_ext/1324864207/legato_widget_imagesequence.o
 .debug_info    0x00000000      0x4a7 build/dsi_xlcdc_rgba8888_ws_9x75_curiosity_720x720_round/debug/_ext/1324864207/legato_widget_imagesequence.o
 .debug_abbrev  0x00000000       0xb5 build/dsi_xlcdc_rgba8888_ws_9x75_curiosity_720x720_round/debug/_ext/1324864207/legato_widget_imagesequence.o
 .debug_aranges
                0x00000000       0x18 build/dsi_xlcdc_rgba8888_ws_9x75_curiosity_720x720_round/debug/_ext/1324864207/legato_widget_imagesequence.o
 .debug_line    0x00000000       0xd0 build/dsi_xlcdc_rgba8888_ws_9x75_curiosity_720x720_round/debug/_ext/1324864207/legato_widget_imagesequence.o
 .debug_str     0x00000000        0x9 build/dsi_xlcdc_rgba8888_ws_9x75_curiosity_720x720_round/debug/_ext/1324864207/legato_widget_imagesequence.o
 .comment       0x00000000       0x2c build/dsi_xlcdc_rgba8888_ws_9x75_curiosity_720x720_round/debug/_ext/1324864207/legato_widget_imagesequence.o
 .ARM.attributes
                0x00000000       0x32 build/dsi_xlcdc_rgba8888_ws_9x75_curiosity_720x720_round/debug/_ext/1324864207/legato_widget_imagesequence.o
 .text          0x00000000        0x0 build/dsi_xlcdc_rgba8888_ws_9x75_curiosity_720x720_round/debug/_ext/2044012415/legato_widget_keypad.o
 .data          0x00000000        0x0 build/dsi_xlcdc_rgba8888_ws_9x75_curiosity_720x720_round/debug/_ext/2044012415/legato_widget_keypad.o
 .bss           0x00000000        0x0 build/dsi_xlcdc_rgba8888_ws_9x75_curiosity_720x720_round/debug/_ext/2044012415/legato_widget_keypad.o
 .debug_info    0x00000000      0x665 build/dsi_xlcdc_rgba8888_ws_9x75_curiosity_720x720_round/debug/_ext/2044012415/legato_widget_keypad.o
 .debug_abbrev  0x00000000       0xe8 build/dsi_xlcdc_rgba8888_ws_9x75_curiosity_720x720_round/debug/_ext/2044012415/legato_widget_keypad.o
 .debug_aranges
                0x00000000       0x18 build/dsi_xlcdc_rgba8888_ws_9x75_curiosity_720x720_round/debug/_ext/2044012415/legato_widget_keypad.o
 .debug_line    0x00000000      0x13d build/dsi_xlcdc_rgba8888_ws_9x75_curiosity_720x720_round/debug/_ext/2044012415/legato_widget_keypad.o
 .debug_str     0x00000000       0x1f build/dsi_xlcdc_rgba8888_ws_9x75_curiosity_720x720_round/debug/_ext/2044012415/legato_widget_keypad.o
 .comment       0x00000000       0x2c build/dsi_xlcdc_rgba8888_ws_9x75_curiosity_720x720_round/debug/_ext/2044012415/legato_widget_keypad.o
 .ARM.attributes
                0x00000000       0x32 build/dsi_xlcdc_rgba8888_ws_9x75_curiosity_720x720_round/debug/_ext/2044012415/legato_widget_keypad.o
 .text          0x00000000        0x0 build/dsi_xlcdc_rgba8888_ws_9x75_curiosity_720x720_round/debug/_ext/2044012415/legato_widget_keypad_skin_classic.o
 .data          0x00000000        0x0 build/dsi_xlcdc_rgba8888_ws_9x75_curiosity_720x720_round/debug/_ext/2044012415/legato_widget_keypad_skin_classic.o
 .bss           0x00000000        0x0 build/dsi_xlcdc_rgba8888_ws_9x75_curiosity_720x720_round/debug/_ext/2044012415/legato_widget_keypad_skin_classic.o
 .debug_info    0x00000000      0x4a6 build/dsi_xlcdc_rgba8888_ws_9x75_curiosity_720x720_round/debug/_ext/2044012415/legato_widget_keypad_skin_classic.o
 .debug_abbrev  0x00000000       0xb5 build/dsi_xlcdc_rgba8888_ws_9x75_curiosity_720x720_round/debug/_ext/2044012415/legato_widget_keypad_skin_classic.o
 .debug_aranges
                0x00000000       0x18 build/dsi_xlcdc_rgba8888_ws_9x75_curiosity_720x720_round/debug/_ext/2044012415/legato_widget_keypad_skin_classic.o
 .debug_line    0x00000000       0xd0 build/dsi_xlcdc_rgba8888_ws_9x75_curiosity_720x720_round/debug/_ext/2044012415/legato_widget_keypad_skin_classic.o
 .debug_str     0x00000000        0x9 build/dsi_xlcdc_rgba8888_ws_9x75_curiosity_720x720_round/debug/_ext/2044012415/legato_widget_keypad_skin_classic.o
 .comment       0x00000000       0x2c build/dsi_xlcdc_rgba8888_ws_9x75_curiosity_720x720_round/debug/_ext/2044012415/legato_widget_keypad_skin_classic.o
 .ARM.attributes
                0x00000000       0x32 build/dsi_xlcdc_rgba8888_ws_9x75_curiosity_720x720_round/debug/_ext/2044012415/legato_widget_keypad_skin_classic.o
 .text          0x00000000        0x0 build/dsi_xlcdc_rgba8888_ws_9x75_curiosity_720x720_round/debug/_ext/1589174617/legato_widget_label_skin_classic.o
 .data          0x00000000        0x0 build/dsi_xlcdc_rgba8888_ws_9x75_curiosity_720x720_round/debug/_ext/1589174617/legato_widget_label_skin_classic.o
 .bss           0x00000000        0x0 build/dsi_xlcdc_rgba8888_ws_9x75_curiosity_720x720_round/debug/_ext/1589174617/legato_widget_label_skin_classic.o
 .text          0x00000000        0x0 build/dsi_xlcdc_rgba8888_ws_9x75_curiosity_720x720_round/debug/_ext/1589174617/legato_widget_label.o
 .data          0x00000000        0x0 build/dsi_xlcdc_rgba8888_ws_9x75_curiosity_720x720_round/debug/_ext/1589174617/legato_widget_label.o
 .bss           0x00000000        0x0 build/dsi_xlcdc_rgba8888_ws_9x75_curiosity_720x720_round/debug/_ext/1589174617/legato_widget_label.o
 .text.leLabelWidget_Constructor
                0x00000000       0x48 build/dsi_xlcdc_rgba8888_ws_9x75_curiosity_720x720_round/debug/_ext/1589174617/legato_widget_label.o
 .text          0x00000000        0x0 build/dsi_xlcdc_rgba8888_ws_9x75_curiosity_720x720_round/debug/_ext/1888407009/legato_widget_line_skin_classic.o
 .data          0x00000000        0x0 build/dsi_xlcdc_rgba8888_ws_9x75_curiosity_720x720_round/debug/_ext/1888407009/legato_widget_line_skin_classic.o
 .bss           0x00000000        0x0 build/dsi_xlcdc_rgba8888_ws_9x75_curiosity_720x720_round/debug/_ext/1888407009/legato_widget_line_skin_classic.o
 .debug_info    0x00000000      0x4a2 build/dsi_xlcdc_rgba8888_ws_9x75_curiosity_720x720_round/debug/_ext/1888407009/legato_widget_line_skin_classic.o
 .debug_abbrev  0x00000000       0xb5 build/dsi_xlcdc_rgba8888_ws_9x75_curiosity_720x720_round/debug/_ext/1888407009/legato_widget_line_skin_classic.o
 .debug_aranges
                0x00000000       0x18 build/dsi_xlcdc_rgba8888_ws_9x75_curiosity_720x720_round/debug/_ext/1888407009/legato_widget_line_skin_classic.o
 .debug_line    0x00000000       0xd0 build/dsi_xlcdc_rgba8888_ws_9x75_curiosity_720x720_round/debug/_ext/1888407009/legato_widget_line_skin_classic.o
 .debug_str     0x00000000        0x9 build/dsi_xlcdc_rgba8888_ws_9x75_curiosity_720x720_round/debug/_ext/1888407009/legato_widget_line_skin_classic.o
 .comment       0x00000000       0x2c build/dsi_xlcdc_rgba8888_ws_9x75_curiosity_720x720_round/debug/_ext/1888407009/legato_widget_line_skin_classic.o
 .ARM.attributes
                0x00000000       0x32 build/dsi_xlcdc_rgba8888_ws_9x75_curiosity_720x720_round/debug/_ext/1888407009/legato_widget_line_skin_classic.o
 .text          0x00000000        0x0 build/dsi_xlcdc_rgba8888_ws_9x75_curiosity_720x720_round/debug/_ext/1888407009/legato_widget_line.o
 .data          0x00000000        0x0 build/dsi_xlcdc_rgba8888_ws_9x75_curiosity_720x720_round/debug/_ext/1888407009/legato_widget_line.o
 .bss           0x00000000        0x0 build/dsi_xlcdc_rgba8888_ws_9x75_curiosity_720x720_round/debug/_ext/1888407009/legato_widget_line.o
 .debug_info    0x00000000      0x495 build/dsi_xlcdc_rgba8888_ws_9x75_curiosity_720x720_round/debug/_ext/1888407009/legato_widget_line.o
 .debug_abbrev  0x00000000       0xb5 build/dsi_xlcdc_rgba8888_ws_9x75_curiosity_720x720_round/debug/_ext/1888407009/legato_widget_line.o
 .debug_aranges
                0x00000000       0x18 build/dsi_xlcdc_rgba8888_ws_9x75_curiosity_720x720_round/debug/_ext/1888407009/legato_widget_line.o
 .debug_line    0x00000000       0xd0 build/dsi_xlcdc_rgba8888_ws_9x75_curiosity_720x720_round/debug/_ext/1888407009/legato_widget_line.o
 .debug_str     0x00000000        0x9 build/dsi_xlcdc_rgba8888_ws_9x75_curiosity_720x720_round/debug/_ext/1888407009/legato_widget_line.o
 .comment       0x00000000       0x2c build/dsi_xlcdc_rgba8888_ws_9x75_curiosity_720x720_round/debug/_ext/1888407009/legato_widget_line.o
 .ARM.attributes
                0x00000000       0x32 build/dsi_xlcdc_rgba8888_ws_9x75_curiosity_720x720_round/debug/_ext/1888407009/legato_widget_line.o
 .text          0x00000000        0x0 build/dsi_xlcdc_rgba8888_ws_9x75_curiosity_720x720_round/debug/_ext/259815437/legato_widget_line_graph.o
 .data          0x00000000        0x0 build/dsi_xlcdc_rgba8888_ws_9x75_curiosity_720x720_round/debug/_ext/259815437/legato_widget_line_graph.o
 .bss           0x00000000        0x0 build/dsi_xlcdc_rgba8888_ws_9x75_curiosity_720x720_round/debug/_ext/259815437/legato_widget_line_graph.o
 .debug_info    0x00000000      0x66c build/dsi_xlcdc_rgba8888_ws_9x75_curiosity_720x720_round/debug/_ext/259815437/legato_widget_line_graph.o
 .debug_abbrev  0x00000000       0xe8 build/dsi_xlcdc_rgba8888_ws_9x75_curiosity_720x720_round/debug/_ext/259815437/legato_widget_line_graph.o
 .debug_aranges
                0x00000000       0x18 build/dsi_xlcdc_rgba8888_ws_9x75_curiosity_720x720_round/debug/_ext/259815437/legato_widget_line_graph.o
 .debug_line    0x00000000      0x13d build/dsi_xlcdc_rgba8888_ws_9x75_curiosity_720x720_round/debug/_ext/259815437/legato_widget_line_graph.o
 .debug_str     0x00000000       0x1f build/dsi_xlcdc_rgba8888_ws_9x75_curiosity_720x720_round/debug/_ext/259815437/legato_widget_line_graph.o
 .comment       0x00000000       0x2c build/dsi_xlcdc_rgba8888_ws_9x75_curiosity_720x720_round/debug/_ext/259815437/legato_widget_line_graph.o
 .ARM.attributes
                0x00000000       0x32 build/dsi_xlcdc_rgba8888_ws_9x75_curiosity_720x720_round/debug/_ext/259815437/legato_widget_line_graph.o
 .text          0x00000000        0x0 build/dsi_xlcdc_rgba8888_ws_9x75_curiosity_720x720_round/debug/_ext/259815437/legato_widget_line_graph_skin_classic.o
 .data          0x00000000        0x0 build/dsi_xlcdc_rgba8888_ws_9x75_curiosity_720x720_round/debug/_ext/259815437/legato_widget_line_graph_skin_classic.o
 .bss           0x00000000        0x0 build/dsi_xlcdc_rgba8888_ws_9x75_curiosity_720x720_round/debug/_ext/259815437/legato_widget_line_graph_skin_classic.o
 .debug_info    0x00000000      0x4ad build/dsi_xlcdc_rgba8888_ws_9x75_curiosity_720x720_round/debug/_ext/259815437/legato_widget_line_graph_skin_classic.o
 .debug_abbrev  0x00000000       0xb5 build/dsi_xlcdc_rgba8888_ws_9x75_curiosity_720x720_round/debug/_ext/259815437/legato_widget_line_graph_skin_classic.o
 .debug_aranges
                0x00000000       0x18 build/dsi_xlcdc_rgba8888_ws_9x75_curiosity_720x720_round/debug/_ext/259815437/legato_widget_line_graph_skin_classic.o
 .debug_line    0x00000000       0xd0 build/dsi_xlcdc_rgba8888_ws_9x75_curiosity_720x720_round/debug/_ext/259815437/legato_widget_line_graph_skin_classic.o
 .debug_str     0x00000000        0x9 build/dsi_xlcdc_rgba8888_ws_9x75_curiosity_720x720_round/debug/_ext/259815437/legato_widget_line_graph_skin_classic.o
 .comment       0x00000000       0x2c build/dsi_xlcdc_rgba8888_ws_9x75_curiosity_720x720_round/debug/_ext/259815437/legato_widget_line_graph_skin_classic.o
 .ARM.attributes
                0x00000000       0x32 build/dsi_xlcdc_rgba8888_ws_9x75_curiosity_720x720_round/debug/_ext/259815437/legato_widget_line_graph_skin_classic.o
 .text          0x00000000        0x0 build/dsi_xlcdc_rgba8888_ws_9x75_curiosity_720x720_round/debug/_ext/1888407179/legato_widget_list.o
 .data          0x00000000        0x0 build/dsi_xlcdc_rgba8888_ws_9x75_curiosity_720x720_round/debug/_ext/1888407179/legato_widget_list.o
 .bss           0x00000000        0x0 build/dsi_xlcdc_rgba8888_ws_9x75_curiosity_720x720_round/debug/_ext/1888407179/legato_widget_list.o
 .debug_info    0x00000000      0x661 build/dsi_xlcdc_rgba8888_ws_9x75_curiosity_720x720_round/debug/_ext/1888407179/legato_widget_list.o
 .debug_abbrev  0x00000000       0xe8 build/dsi_xlcdc_rgba8888_ws_9x75_curiosity_720x720_round/debug/_ext/1888407179/legato_widget_list.o
 .debug_aranges
                0x00000000       0x18 build/dsi_xlcdc_rgba8888_ws_9x75_curiosity_720x720_round/debug/_ext/1888407179/legato_widget_list.o
 .debug_line    0x00000000      0x13d build/dsi_xlcdc_rgba8888_ws_9x75_curiosity_720x720_round/debug/_ext/1888407179/legato_widget_list.o
 .debug_str     0x00000000       0x1f build/dsi_xlcdc_rgba8888_ws_9x75_curiosity_720x720_round/debug/_ext/1888407179/legato_widget_list.o
 .comment       0x00000000       0x2c build/dsi_xlcdc_rgba8888_ws_9x75_curiosity_720x720_round/debug/_ext/1888407179/legato_widget_list.o
 .ARM.attributes
                0x00000000       0x32 build/dsi_xlcdc_rgba8888_ws_9x75_curiosity_720x720_round/debug/_ext/1888407179/legato_widget_list.o
 .text          0x00000000        0x0 build/dsi_xlcdc_rgba8888_ws_9x75_curiosity_720x720_round/debug/_ext/1888407179/legato_widget_list_skin_classic.o
 .data          0x00000000        0x0 build/dsi_xlcdc_rgba8888_ws_9x75_curiosity_720x720_round/debug/_ext/1888407179/legato_widget_list_skin_classic.o
 .bss           0x00000000        0x0 build/dsi_xlcdc_rgba8888_ws_9x75_curiosity_720x720_round/debug/_ext/1888407179/legato_widget_list_skin_classic.o
 .debug_info    0x00000000      0x4a2 build/dsi_xlcdc_rgba8888_ws_9x75_curiosity_720x720_round/debug/_ext/1888407179/legato_widget_list_skin_classic.o
 .debug_abbrev  0x00000000       0xb5 build/dsi_xlcdc_rgba8888_ws_9x75_curiosity_720x720_round/debug/_ext/1888407179/legato_widget_list_skin_classic.o
 .debug_aranges
                0x00000000       0x18 build/dsi_xlcdc_rgba8888_ws_9x75_curiosity_720x720_round/debug/_ext/1888407179/legato_widget_list_skin_classic.o
 .debug_line    0x00000000       0xd0 build/dsi_xlcdc_rgba8888_ws_9x75_curiosity_720x720_round/debug/_ext/1888407179/legato_widget_list_skin_classic.o
 .debug_str     0x00000000        0x9 build/dsi_xlcdc_rgba8888_ws_9x75_curiosity_720x720_round/debug/_ext/1888407179/legato_widget_list_skin_classic.o
 .comment       0x00000000       0x2c build/dsi_xlcdc_rgba8888_ws_9x75_curiosity_720x720_round/debug/_ext/1888407179/legato_widget_list_skin_classic.o
 .ARM.attributes
                0x00000000       0x32 build/dsi_xlcdc_rgba8888_ws_9x75_curiosity_720x720_round/debug/_ext/1888407179/legato_widget_list_skin_classic.o
 .text          0x00000000        0x0 build/dsi_xlcdc_rgba8888_ws_9x75_curiosity_720x720_round/debug/_ext/846285744/legato_widget_listwheel.o
 .data          0x00000000        0x0 build/dsi_xlcdc_rgba8888_ws_9x75_curiosity_720x720_round/debug/_ext/846285744/legato_widget_listwheel.o
 .bss           0x00000000        0x0 build/dsi_xlcdc_rgba8888_ws_9x75_curiosity_720x720_round/debug/_ext/846285744/legato_widget_listwheel.o
 .debug_info    0x00000000      0x66b build/dsi_xlcdc_rgba8888_ws_9x75_curiosity_720x720_round/debug/_ext/846285744/legato_widget_listwheel.o
 .debug_abbrev  0x00000000       0xe8 build/dsi_xlcdc_rgba8888_ws_9x75_curiosity_720x720_round/debug/_ext/846285744/legato_widget_listwheel.o
 .debug_aranges
                0x00000000       0x18 build/dsi_xlcdc_rgba8888_ws_9x75_curiosity_720x720_round/debug/_ext/846285744/legato_widget_listwheel.o
 .debug_line    0x00000000      0x13d build/dsi_xlcdc_rgba8888_ws_9x75_curiosity_720x720_round/debug/_ext/846285744/legato_widget_listwheel.o
 .debug_str     0x00000000       0x1f build/dsi_xlcdc_rgba8888_ws_9x75_curiosity_720x720_round/debug/_ext/846285744/legato_widget_listwheel.o
 .comment       0x00000000       0x2c build/dsi_xlcdc_rgba8888_ws_9x75_curiosity_720x720_round/debug/_ext/846285744/legato_widget_listwheel.o
 .ARM.attributes
                0x00000000       0x32 build/dsi_xlcdc_rgba8888_ws_9x75_curiosity_720x720_round/debug/_ext/846285744/legato_widget_listwheel.o
 .text          0x00000000        0x0 build/dsi_xlcdc_rgba8888_ws_9x75_curiosity_720x720_round/debug/_ext/846285744/legato_widget_listwheel_skin_classic.o
 .data          0x00000000        0x0 build/dsi_xlcdc_rgba8888_ws_9x75_curiosity_720x720_round/debug/_ext/846285744/legato_widget_listwheel_skin_classic.o
 .bss           0x00000000        0x0 build/dsi_xlcdc_rgba8888_ws_9x75_curiosity_720x720_round/debug/_ext/846285744/legato_widget_listwheel_skin_classic.o
 .debug_info    0x00000000      0x4ac build/dsi_xlcdc_rgba8888_ws_9x75_curiosity_720x720_round/debug/_ext/846285744/legato_widget_listwheel_skin_classic.o
 .debug_abbrev  0x00000000       0xb5 build/dsi_xlcdc_rgba8888_ws_9x75_curiosity_720x720_round/debug/_ext/846285744/legato_widget_listwheel_skin_classic.o
 .debug_aranges
                0x00000000       0x18 build/dsi_xlcdc_rgba8888_ws_9x75_curiosity_720x720_round/debug/_ext/846285744/legato_widget_listwheel_skin_classic.o
 .debug_line    0x00000000       0xd0 build/dsi_xlcdc_rgba8888_ws_9x75_curiosity_720x720_round/debug/_ext/846285744/legato_widget_listwheel_skin_classic.o
 .debug_str     0x00000000        0x9 build/dsi_xlcdc_rgba8888_ws_9x75_curiosity_720x720_round/debug/_ext/846285744/legato_widget_listwheel_skin_classic.o
 .comment       0x00000000       0x2c build/dsi_xlcdc_rgba8888_ws_9x75_curiosity_720x720_round/debug/_ext/846285744/legato_widget_listwheel_skin_classic.o
 .ARM.attributes
                0x00000000       0x32 build/dsi_xlcdc_rgba8888_ws_9x75_curiosity_720x720_round/debug/_ext/846285744/legato_widget_listwheel_skin_classic.o
 .text          0x00000000        0x0 build/dsi_xlcdc_rgba8888_ws_9x75_curiosity_720x720_round/debug/_ext/1593875775/legato_widget_pie_chart_skin_classic.o
 .data          0x00000000        0x0 build/dsi_xlcdc_rgba8888_ws_9x75_curiosity_720x720_round/debug/_ext/1593875775/legato_widget_pie_chart_skin_classic.o
 .bss           0x00000000        0x0 build/dsi_xlcdc_rgba8888_ws_9x75_curiosity_720x720_round/debug/_ext/1593875775/legato_widget_pie_chart_skin_classic.o
 .debug_info    0x00000000      0x4ab build/dsi_xlcdc_rgba8888_ws_9x75_curiosity_720x720_round/debug/_ext/1593875775/legato_widget_pie_chart_skin_classic.o
 .debug_abbrev  0x00000000       0xb5 build/dsi_xlcdc_rgba8888_ws_9x75_curiosity_720x720_round/debug/_ext/1593875775/legato_widget_pie_chart_skin_classic.o
 .debug_aranges
                0x00000000       0x18 build/dsi_xlcdc_rgba8888_ws_9x75_curiosity_720x720_round/debug/_ext/1593875775/legato_widget_pie_chart_skin_classic.o
 .debug_line    0x00000000       0xd0 build/dsi_xlcdc_rgba8888_ws_9x75_curiosity_720x720_round/debug/_ext/1593875775/legato_widget_pie_chart_skin_classic.o
 .debug_str     0x00000000        0x9 build/dsi_xlcdc_rgba8888_ws_9x75_curiosity_720x720_round/debug/_ext/1593875775/legato_widget_pie_chart_skin_classic.o
 .comment       0x00000000       0x2c build/dsi_xlcdc_rgba8888_ws_9x75_curiosity_720x720_round/debug/_ext/1593875775/legato_widget_pie_chart_skin_classic.o
 .ARM.attributes
                0x00000000       0x32 build/dsi_xlcdc_rgba8888_ws_9x75_curiosity_720x720_round/debug/_ext/1593875775/legato_widget_pie_chart_skin_classic.o
 .text          0x00000000        0x0 build/dsi_xlcdc_rgba8888_ws_9x75_curiosity_720x720_round/debug/_ext/1593875775/legato_widget_pie_chart.o
 .data          0x00000000        0x0 build/dsi_xlcdc_rgba8888_ws_9x75_curiosity_720x720_round/debug/_ext/1593875775/legato_widget_pie_chart.o
 .bss           0x00000000        0x0 build/dsi_xlcdc_rgba8888_ws_9x75_curiosity_720x720_round/debug/_ext/1593875775/legato_widget_pie_chart.o
 .debug_info    0x00000000      0x49e build/dsi_xlcdc_rgba8888_ws_9x75_curiosity_720x720_round/debug/_ext/1593875775/legato_widget_pie_chart.o
 .debug_abbrev  0x00000000       0xb5 build/dsi_xlcdc_rgba8888_ws_9x75_curiosity_720x720_round/debug/_ext/1593875775/legato_widget_pie_chart.o
 .debug_aranges
                0x00000000       0x18 build/dsi_xlcdc_rgba8888_ws_9x75_curiosity_720x720_round/debug/_ext/1593875775/legato_widget_pie_chart.o
 .debug_line    0x00000000       0xd0 build/dsi_xlcdc_rgba8888_ws_9x75_curiosity_720x720_round/debug/_ext/1593875775/legato_widget_pie_chart.o
 .debug_str     0x00000000        0x9 build/dsi_xlcdc_rgba8888_ws_9x75_curiosity_720x720_round/debug/_ext/1593875775/legato_widget_pie_chart.o
 .comment       0x00000000       0x2c build/dsi_xlcdc_rgba8888_ws_9x75_curiosity_720x720_round/debug/_ext/1593875775/legato_widget_pie_chart.o
 .ARM.attributes
                0x00000000       0x32 build/dsi_xlcdc_rgba8888_ws_9x75_curiosity_720x720_round/debug/_ext/1593875775/legato_widget_pie_chart.o
 .text          0x00000000        0x0 build/dsi_xlcdc_rgba8888_ws_9x75_curiosity_720x720_round/debug/_ext/1591624647/legato_widget_progressbar.o
 .data          0x00000000        0x0 build/dsi_xlcdc_rgba8888_ws_9x75_curiosity_720x720_round/debug/_ext/1591624647/legato_widget_progressbar.o
 .bss           0x00000000        0x0 build/dsi_xlcdc_rgba8888_ws_9x75_curiosity_720x720_round/debug/_ext/1591624647/legato_widget_progressbar.o
 .debug_info    0x00000000      0x66f build/dsi_xlcdc_rgba8888_ws_9x75_curiosity_720x720_round/debug/_ext/1591624647/legato_widget_progressbar.o
 .debug_abbrev  0x00000000       0xe8 build/dsi_xlcdc_rgba8888_ws_9x75_curiosity_720x720_round/debug/_ext/1591624647/legato_widget_progressbar.o
 .debug_aranges
                0x00000000       0x18 build/dsi_xlcdc_rgba8888_ws_9x75_curiosity_720x720_round/debug/_ext/1591624647/legato_widget_progressbar.o
 .debug_line    0x00000000      0x13d build/dsi_xlcdc_rgba8888_ws_9x75_curiosity_720x720_round/debug/_ext/1591624647/legato_widget_progressbar.o
 .debug_str     0x00000000       0x1f build/dsi_xlcdc_rgba8888_ws_9x75_curiosity_720x720_round/debug/_ext/1591624647/legato_widget_progressbar.o
 .comment       0x00000000       0x2c build/dsi_xlcdc_rgba8888_ws_9x75_curiosity_720x720_round/debug/_ext/1591624647/legato_widget_progressbar.o
 .ARM.attributes
                0x00000000       0x32 build/dsi_xlcdc_rgba8888_ws_9x75_curiosity_720x720_round/debug/_ext/1591624647/legato_widget_progressbar.o
 .text          0x00000000        0x0 build/dsi_xlcdc_rgba8888_ws_9x75_curiosity_720x720_round/debug/_ext/1591624647/legato_widget_progressbar_skin_classic.o
 .data          0x00000000        0x0 build/dsi_xlcdc_rgba8888_ws_9x75_curiosity_720x720_round/debug/_ext/1591624647/legato_widget_progressbar_skin_classic.o
 .bss           0x00000000        0x0 build/dsi_xlcdc_rgba8888_ws_9x75_curiosity_720x720_round/debug/_ext/1591624647/legato_widget_progressbar_skin_classic.o
 .debug_info    0x00000000      0x4b0 build/dsi_xlcdc_rgba8888_ws_9x75_curiosity_720x720_round/debug/_ext/1591624647/legato_widget_progressbar_skin_classic.o
 .debug_abbrev  0x00000000       0xb5 build/dsi_xlcdc_rgba8888_ws_9x75_curiosity_720x720_round/debug/_ext/1591624647/legato_widget_progressbar_skin_classic.o
 .debug_aranges
                0x00000000       0x18 build/dsi_xlcdc_rgba8888_ws_9x75_curiosity_720x720_round/debug/_ext/1591624647/legato_widget_progressbar_skin_classic.o
 .debug_line    0x00000000       0xd0 build/dsi_xlcdc_rgba8888_ws_9x75_curiosity_720x720_round/debug/_ext/1591624647/legato_widget_progressbar_skin_classic.o
 .debug_str     0x00000000        0x9 build/dsi_xlcdc_rgba8888_ws_9x75_curiosity_720x720_round/debug/_ext/1591624647/legato_widget_progressbar_skin_classic.o
 .comment       0x00000000       0x2c build/dsi_xlcdc_rgba8888_ws_9x75_curiosity_720x720_round/debug/_ext/1591624647/legato_widget_progressbar_skin_classic.o
 .ARM.attributes
                0x00000000       0x32 build/dsi_xlcdc_rgba8888_ws_9x75_curiosity_720x720_round/debug/_ext/1591624647/legato_widget_progressbar_skin_classic.o
 .text          0x00000000        0x0 build/dsi_xlcdc_rgba8888_ws_9x75_curiosity_720x720_round/debug/_ext/1310158805/legato_widget_radial_menu.o
 .data          0x00000000        0x0 build/dsi_xlcdc_rgba8888_ws_9x75_curiosity_720x720_round/debug/_ext/1310158805/legato_widget_radial_menu.o
 .bss           0x00000000        0x0 build/dsi_xlcdc_rgba8888_ws_9x75_curiosity_720x720_round/debug/_ext/1310158805/legato_widget_radial_menu.o
 .debug_info    0x00000000      0x66e build/dsi_xlcdc_rgba8888_ws_9x75_curiosity_720x720_round/debug/_ext/1310158805/legato_widget_radial_menu.o
 .debug_abbrev  0x00000000       0xe8 build/dsi_xlcdc_rgba8888_ws_9x75_curiosity_720x720_round/debug/_ext/1310158805/legato_widget_radial_menu.o
 .debug_aranges
                0x00000000       0x18 build/dsi_xlcdc_rgba8888_ws_9x75_curiosity_720x720_round/debug/_ext/1310158805/legato_widget_radial_menu.o
 .debug_line    0x00000000      0x13d build/dsi_xlcdc_rgba8888_ws_9x75_curiosity_720x720_round/debug/_ext/1310158805/legato_widget_radial_menu.o
 .debug_str     0x00000000       0x1f build/dsi_xlcdc_rgba8888_ws_9x75_curiosity_720x720_round/debug/_ext/1310158805/legato_widget_radial_menu.o
 .comment       0x00000000       0x2c build/dsi_xlcdc_rgba8888_ws_9x75_curiosity_720x720_round/debug/_ext/1310158805/legato_widget_radial_menu.o
 .ARM.attributes
                0x00000000       0x32 build/dsi_xlcdc_rgba8888_ws_9x75_curiosity_720x720_round/debug/_ext/1310158805/legato_widget_radial_menu.o
 .text          0x00000000        0x0 build/dsi_xlcdc_rgba8888_ws_9x75_curiosity_720x720_round/debug/_ext/1310158805/legato_widget_radial_menu_skin_classic.o
 .data          0x00000000        0x0 build/dsi_xlcdc_rgba8888_ws_9x75_curiosity_720x720_round/debug/_ext/1310158805/legato_widget_radial_menu_skin_classic.o
 .bss           0x00000000        0x0 build/dsi_xlcdc_rgba8888_ws_9x75_curiosity_720x720_round/debug/_ext/1310158805/legato_widget_radial_menu_skin_classic.o
 .debug_info    0x00000000      0x67b build/dsi_xlcdc_rgba8888_ws_9x75_curiosity_720x720_round/debug/_ext/1310158805/legato_widget_radial_menu_skin_classic.o
 .debug_abbrev  0x00000000       0xe8 build/dsi_xlcdc_rgba8888_ws_9x75_curiosity_720x720_round/debug/_ext/1310158805/legato_widget_radial_menu_skin_classic.o
 .debug_aranges
                0x00000000       0x18 build/dsi_xlcdc_rgba8888_ws_9x75_curiosity_720x720_round/debug/_ext/1310158805/legato_widget_radial_menu_skin_classic.o
 .debug_line    0x00000000      0x13d build/dsi_xlcdc_rgba8888_ws_9x75_curiosity_720x720_round/debug/_ext/1310158805/legato_widget_radial_menu_skin_classic.o
 .debug_str     0x00000000       0x1f build/dsi_xlcdc_rgba8888_ws_9x75_curiosity_720x720_round/debug/_ext/1310158805/legato_widget_radial_menu_skin_classic.o
 .comment       0x00000000       0x2c build/dsi_xlcdc_rgba8888_ws_9x75_curiosity_720x720_round/debug/_ext/1310158805/legato_widget_radial_menu_skin_classic.o
 .ARM.attributes
                0x00000000       0x32 build/dsi_xlcdc_rgba8888_ws_9x75_curiosity_720x720_round/debug/_ext/1310158805/legato_widget_radial_menu_skin_classic.o
 .text          0x00000000        0x0 build/dsi_xlcdc_rgba8888_ws_9x75_curiosity_720x720_round/debug/_ext/1310158805/legato_widget_radial_menu_state.o
 .data          0x00000000        0x0 build/dsi_xlcdc_rgba8888_ws_9x75_curiosity_720x720_round/debug/_ext/1310158805/legato_widget_radial_menu_state.o
 .bss           0x00000000        0x0 build/dsi_xlcdc_rgba8888_ws_9x75_curiosity_720x720_round/debug/_ext/1310158805/legato_widget_radial_menu_state.o
 .debug_info    0x00000000      0x674 build/dsi_xlcdc_rgba8888_ws_9x75_curiosity_720x720_round/debug/_ext/1310158805/legato_widget_radial_menu_state.o
 .debug_abbrev  0x00000000       0xe8 build/dsi_xlcdc_rgba8888_ws_9x75_curiosity_720x720_round/debug/_ext/1310158805/legato_widget_radial_menu_state.o
 .debug_aranges
                0x00000000       0x18 build/dsi_xlcdc_rgba8888_ws_9x75_curiosity_720x720_round/debug/_ext/1310158805/legato_widget_radial_menu_state.o
 .debug_line    0x00000000      0x13d build/dsi_xlcdc_rgba8888_ws_9x75_curiosity_720x720_round/debug/_ext/1310158805/legato_widget_radial_menu_state.o
 .debug_str     0x00000000       0x1f build/dsi_xlcdc_rgba8888_ws_9x75_curiosity_720x720_round/debug/_ext/1310158805/legato_widget_radial_menu_state.o
 .comment       0x00000000       0x2c build/dsi_xlcdc_rgba8888_ws_9x75_curiosity_720x720_round/debug/_ext/1310158805/legato_widget_radial_menu_state.o
 .ARM.attributes
                0x00000000       0x32 build/dsi_xlcdc_rgba8888_ws_9x75_curiosity_720x720_round/debug/_ext/1310158805/legato_widget_radial_menu_state.o
 .text          0x00000000        0x0 build/dsi_xlcdc_rgba8888_ws_9x75_curiosity_720x720_round/debug/_ext/1596448864/legato_radiobutton_group.o
 .data          0x00000000        0x0 build/dsi_xlcdc_rgba8888_ws_9x75_curiosity_720x720_round/debug/_ext/1596448864/legato_radiobutton_group.o
 .bss           0x00000000        0x0 build/dsi_xlcdc_rgba8888_ws_9x75_curiosity_720x720_round/debug/_ext/1596448864/legato_radiobutton_group.o
 .debug_info    0x00000000      0x4a2 build/dsi_xlcdc_rgba8888_ws_9x75_curiosity_720x720_round/debug/_ext/1596448864/legato_radiobutton_group.o
 .debug_abbrev  0x00000000       0xb5 build/dsi_xlcdc_rgba8888_ws_9x75_curiosity_720x720_round/debug/_ext/1596448864/legato_radiobutton_group.o
 .debug_aranges
                0x00000000       0x18 build/dsi_xlcdc_rgba8888_ws_9x75_curiosity_720x720_round/debug/_ext/1596448864/legato_radiobutton_group.o
 .debug_line    0x00000000       0xd0 build/dsi_xlcdc_rgba8888_ws_9x75_curiosity_720x720_round/debug/_ext/1596448864/legato_radiobutton_group.o
 .debug_str     0x00000000        0x9 build/dsi_xlcdc_rgba8888_ws_9x75_curiosity_720x720_round/debug/_ext/1596448864/legato_radiobutton_group.o
 .comment       0x00000000       0x2c build/dsi_xlcdc_rgba8888_ws_9x75_curiosity_720x720_round/debug/_ext/1596448864/legato_radiobutton_group.o
 .ARM.attributes
                0x00000000       0x32 build/dsi_xlcdc_rgba8888_ws_9x75_curiosity_720x720_round/debug/_ext/1596448864/legato_radiobutton_group.o
 .text          0x00000000        0x0 build/dsi_xlcdc_rgba8888_ws_9x75_curiosity_720x720_round/debug/_ext/1596448864/legato_widget_radiobutton_skin_classic.o
 .data          0x00000000        0x0 build/dsi_xlcdc_rgba8888_ws_9x75_curiosity_720x720_round/debug/_ext/1596448864/legato_widget_radiobutton_skin_classic.o
 .bss           0x00000000        0x0 build/dsi_xlcdc_rgba8888_ws_9x75_curiosity_720x720_round/debug/_ext/1596448864/legato_widget_radiobutton_skin_classic.o
 .debug_info    0x00000000      0x4b0 build/dsi_xlcdc_rgba8888_ws_9x75_curiosity_720x720_round/debug/_ext/1596448864/legato_widget_radiobutton_skin_classic.o
 .debug_abbrev  0x00000000       0xb5 build/dsi_xlcdc_rgba8888_ws_9x75_curiosity_720x720_round/debug/_ext/1596448864/legato_widget_radiobutton_skin_classic.o
 .debug_aranges
                0x00000000       0x18 build/dsi_xlcdc_rgba8888_ws_9x75_curiosity_720x720_round/debug/_ext/1596448864/legato_widget_radiobutton_skin_classic.o
 .debug_line    0x00000000       0xd0 build/dsi_xlcdc_rgba8888_ws_9x75_curiosity_720x720_round/debug/_ext/1596448864/legato_widget_radiobutton_skin_classic.o
 .debug_str     0x00000000        0x9 build/dsi_xlcdc_rgba8888_ws_9x75_curiosity_720x720_round/debug/_ext/1596448864/legato_widget_radiobutton_skin_classic.o
 .comment       0x00000000       0x2c build/dsi_xlcdc_rgba8888_ws_9x75_curiosity_720x720_round/debug/_ext/1596448864/legato_widget_radiobutton_skin_classic.o
 .ARM.attributes
                0x00000000       0x32 build/dsi_xlcdc_rgba8888_ws_9x75_curiosity_720x720_round/debug/_ext/1596448864/legato_widget_radiobutton_skin_classic.o
 .text          0x00000000        0x0 build/dsi_xlcdc_rgba8888_ws_9x75_curiosity_720x720_round/debug/_ext/1596448864/legato_widget_radiobutton.o
 .data          0x00000000        0x0 build/dsi_xlcdc_rgba8888_ws_9x75_curiosity_720x720_round/debug/_ext/1596448864/legato_widget_radiobutton.o
 .bss           0x00000000        0x0 build/dsi_xlcdc_rgba8888_ws_9x75_curiosity_720x720_round/debug/_ext/1596448864/legato_widget_radiobutton.o
 .debug_info    0x00000000      0x66f build/dsi_xlcdc_rgba8888_ws_9x75_curiosity_720x720_round/debug/_ext/1596448864/legato_widget_radiobutton.o
 .debug_abbrev  0x00000000       0xe8 build/dsi_xlcdc_rgba8888_ws_9x75_curiosity_720x720_round/debug/_ext/1596448864/legato_widget_radiobutton.o
 .debug_aranges
                0x00000000       0x18 build/dsi_xlcdc_rgba8888_ws_9x75_curiosity_720x720_round/debug/_ext/1596448864/legato_widget_radiobutton.o
 .debug_line    0x00000000      0x13d build/dsi_xlcdc_rgba8888_ws_9x75_curiosity_720x720_round/debug/_ext/1596448864/legato_widget_radiobutton.o
 .debug_str     0x00000000       0x1f build/dsi_xlcdc_rgba8888_ws_9x75_curiosity_720x720_round/debug/_ext/1596448864/legato_widget_radiobutton.o
 .comment       0x00000000       0x2c build/dsi_xlcdc_rgba8888_ws_9x75_curiosity_720x720_round/debug/_ext/1596448864/legato_widget_radiobutton.o
 .ARM.attributes
                0x00000000       0x32 build/dsi_xlcdc_rgba8888_ws_9x75_curiosity_720x720_round/debug/_ext/1596448864/legato_widget_radiobutton.o
 .text          0x00000000        0x0 build/dsi_xlcdc_rgba8888_ws_9x75_curiosity_720x720_round/debug/_ext/1125106782/legato_widget_rectangle.o
 .data          0x00000000        0x0 build/dsi_xlcdc_rgba8888_ws_9x75_curiosity_720x720_round/debug/_ext/1125106782/legato_widget_rectangle.o
 .bss           0x00000000        0x0 build/dsi_xlcdc_rgba8888_ws_9x75_curiosity_720x720_round/debug/_ext/1125106782/legato_widget_rectangle.o
 .debug_info    0x00000000      0x49f build/dsi_xlcdc_rgba8888_ws_9x75_curiosity_720x720_round/debug/_ext/1125106782/legato_widget_rectangle.o
 .debug_abbrev  0x00000000       0xb5 build/dsi_xlcdc_rgba8888_ws_9x75_curiosity_720x720_round/debug/_ext/1125106782/legato_widget_rectangle.o
 .debug_aranges
                0x00000000       0x18 build/dsi_xlcdc_rgba8888_ws_9x75_curiosity_720x720_round/debug/_ext/1125106782/legato_widget_rectangle.o
 .debug_line    0x00000000       0xd0 build/dsi_xlcdc_rgba8888_ws_9x75_curiosity_720x720_round/debug/_ext/1125106782/legato_widget_rectangle.o
 .debug_str     0x00000000        0x9 build/dsi_xlcdc_rgba8888_ws_9x75_curiosity_720x720_round/debug/_ext/1125106782/legato_widget_rectangle.o
 .comment       0x00000000       0x2c build/dsi_xlcdc_rgba8888_ws_9x75_curiosity_720x720_round/debug/_ext/1125106782/legato_widget_rectangle.o
 .ARM.attributes
                0x00000000       0x32 build/dsi_xlcdc_rgba8888_ws_9x75_curiosity_720x720_round/debug/_ext/1125106782/legato_widget_rectangle.o
 .text          0x00000000        0x0 build/dsi_xlcdc_rgba8888_ws_9x75_curiosity_720x720_round/debug/_ext/1125106782/legato_widget_rectangle_skin_classic.o
 .data          0x00000000        0x0 build/dsi_xlcdc_rgba8888_ws_9x75_curiosity_720x720_round/debug/_ext/1125106782/legato_widget_rectangle_skin_classic.o
 .bss           0x00000000        0x0 build/dsi_xlcdc_rgba8888_ws_9x75_curiosity_720x720_round/debug/_ext/1125106782/legato_widget_rectangle_skin_classic.o
 .debug_info    0x00000000      0x4ac build/dsi_xlcdc_rgba8888_ws_9x75_curiosity_720x720_round/debug/_ext/1125106782/legato_widget_rectangle_skin_classic.o
 .debug_abbrev  0x00000000       0xb5 build/dsi_xlcdc_rgba8888_ws_9x75_curiosity_720x720_round/debug/_ext/1125106782/legato_widget_rectangle_skin_classic.o
 .debug_aranges
                0x00000000       0x18 build/dsi_xlcdc_rgba8888_ws_9x75_curiosity_720x720_round/debug/_ext/1125106782/legato_widget_rectangle_skin_classic.o
 .debug_line    0x00000000       0xd0 build/dsi_xlcdc_rgba8888_ws_9x75_curiosity_720x720_round/debug/_ext/1125106782/legato_widget_rectangle_skin_classic.o
 .debug_str     0x00000000        0x9 build/dsi_xlcdc_rgba8888_ws_9x75_curiosity_720x720_round/debug/_ext/1125106782/legato_widget_rectangle_skin_classic.o
 .comment       0x00000000       0x2c build/dsi_xlcdc_rgba8888_ws_9x75_curiosity_720x720_round/debug/_ext/1125106782/legato_widget_rectangle_skin_classic.o
 .ARM.attributes
                0x00000000       0x32 build/dsi_xlcdc_rgba8888_ws_9x75_curiosity_720x720_round/debug/_ext/1125106782/legato_widget_rectangle_skin_classic.o
 .text          0x00000000        0x0 build/dsi_xlcdc_rgba8888_ws_9x75_curiosity_720x720_round/debug/_ext/1828613031/legato_widget_scrollbar.o
 .data          0x00000000        0x0 build/dsi_xlcdc_rgba8888_ws_9x75_curiosity_720x720_round/debug/_ext/1828613031/legato_widget_scrollbar.o
 .bss           0x00000000        0x0 build/dsi_xlcdc_rgba8888_ws_9x75_curiosity_720x720_round/debug/_ext/1828613031/legato_widget_scrollbar.o
 .debug_info    0x00000000      0x66b build/dsi_xlcdc_rgba8888_ws_9x75_curiosity_720x720_round/debug/_ext/1828613031/legato_widget_scrollbar.o
 .debug_abbrev  0x00000000       0xe8 build/dsi_xlcdc_rgba8888_ws_9x75_curiosity_720x720_round/debug/_ext/1828613031/legato_widget_scrollbar.o
 .debug_aranges
                0x00000000       0x18 build/dsi_xlcdc_rgba8888_ws_9x75_curiosity_720x720_round/debug/_ext/1828613031/legato_widget_scrollbar.o
 .debug_line    0x00000000      0x13d build/dsi_xlcdc_rgba8888_ws_9x75_curiosity_720x720_round/debug/_ext/1828613031/legato_widget_scrollbar.o
 .debug_str     0x00000000       0x1f build/dsi_xlcdc_rgba8888_ws_9x75_curiosity_720x720_round/debug/_ext/1828613031/legato_widget_scrollbar.o
 .comment       0x00000000       0x2c build/dsi_xlcdc_rgba8888_ws_9x75_curiosity_720x720_round/debug/_ext/1828613031/legato_widget_scrollbar.o
 .ARM.attributes
                0x00000000       0x32 build/dsi_xlcdc_rgba8888_ws_9x75_curiosity_720x720_round/debug/_ext/1828613031/legato_widget_scrollbar.o
 .text          0x00000000        0x0 build/dsi_xlcdc_rgba8888_ws_9x75_curiosity_720x720_round/debug/_ext/1828613031/legato_widget_scrollbar_skin_classic.o
 .data          0x00000000        0x0 build/dsi_xlcdc_rgba8888_ws_9x75_curiosity_720x720_round/debug/_ext/1828613031/legato_widget_scrollbar_skin_classic.o
 .bss           0x00000000        0x0 build/dsi_xlcdc_rgba8888_ws_9x75_curiosity_720x720_round/debug/_ext/1828613031/legato_widget_scrollbar_skin_classic.o
 .debug_info    0x00000000      0x4ac build/dsi_xlcdc_rgba8888_ws_9x75_curiosity_720x720_round/debug/_ext/1828613031/legato_widget_scrollbar_skin_classic.o
 .debug_abbrev  0x00000000       0xb5 build/dsi_xlcdc_rgba8888_ws_9x75_curiosity_720x720_round/debug/_ext/1828613031/legato_widget_scrollbar_skin_classic.o
 .debug_aranges
                0x00000000       0x18 build/dsi_xlcdc_rgba8888_ws_9x75_curiosity_720x720_round/debug/_ext/1828613031/legato_widget_scrollbar_skin_classic.o
 .debug_line    0x00000000       0xd0 build/dsi_xlcdc_rgba8888_ws_9x75_curiosity_720x720_round/debug/_ext/1828613031/legato_widget_scrollbar_skin_classic.o
 .debug_str     0x00000000        0x9 build/dsi_xlcdc_rgba8888_ws_9x75_curiosity_720x720_round/debug/_ext/1828613031/legato_widget_scrollbar_skin_classic.o
 .comment       0x00000000       0x2c build/dsi_xlcdc_rgba8888_ws_9x75_curiosity_720x720_round/debug/_ext/1828613031/legato_widget_scrollbar_skin_classic.o
 .ARM.attributes
                0x00000000       0x32 build/dsi_xlcdc_rgba8888_ws_9x75_curiosity_720x720_round/debug/_ext/1828613031/legato_widget_scrollbar_skin_classic.o
 .text          0x00000000        0x0 build/dsi_xlcdc_rgba8888_ws_9x75_curiosity_720x720_round/debug/_ext/1809002610/legato_widget_slider_skin_classic.o
 .data          0x00000000        0x0 build/dsi_xlcdc_rgba8888_ws_9x75_curiosity_720x720_round/debug/_ext/1809002610/legato_widget_slider_skin_classic.o
 .bss           0x00000000        0x0 build/dsi_xlcdc_rgba8888_ws_9x75_curiosity_720x720_round/debug/_ext/1809002610/legato_widget_slider_skin_classic.o
 .debug_info    0x00000000      0x4a6 build/dsi_xlcdc_rgba8888_ws_9x75_curiosity_720x720_round/debug/_ext/1809002610/legato_widget_slider_skin_classic.o
 .debug_abbrev  0x00000000       0xb5 build/dsi_xlcdc_rgba8888_ws_9x75_curiosity_720x720_round/debug/_ext/1809002610/legato_widget_slider_skin_classic.o
 .debug_aranges
                0x00000000       0x18 build/dsi_xlcdc_rgba8888_ws_9x75_curiosity_720x720_round/debug/_ext/1809002610/legato_widget_slider_skin_classic.o
 .debug_line    0x00000000       0xd0 build/dsi_xlcdc_rgba8888_ws_9x75_curiosity_720x720_round/debug/_ext/1809002610/legato_widget_slider_skin_classic.o
 .debug_str     0x00000000        0x9 build/dsi_xlcdc_rgba8888_ws_9x75_curiosity_720x720_round/debug/_ext/1809002610/legato_widget_slider_skin_classic.o
 .comment       0x00000000       0x2c build/dsi_xlcdc_rgba8888_ws_9x75_curiosity_720x720_round/debug/_ext/1809002610/legato_widget_slider_skin_classic.o
 .ARM.attributes
                0x00000000       0x32 build/dsi_xlcdc_rgba8888_ws_9x75_curiosity_720x720_round/debug/_ext/1809002610/legato_widget_slider_skin_classic.o
 .text          0x00000000        0x0 build/dsi_xlcdc_rgba8888_ws_9x75_curiosity_720x720_round/debug/_ext/1809002610/legato_widget_slider.o
 .data          0x00000000        0x0 build/dsi_xlcdc_rgba8888_ws_9x75_curiosity_720x720_round/debug/_ext/1809002610/legato_widget_slider.o
 .bss           0x00000000        0x0 build/dsi_xlcdc_rgba8888_ws_9x75_curiosity_720x720_round/debug/_ext/1809002610/legato_widget_slider.o
 .debug_info    0x00000000      0x665 build/dsi_xlcdc_rgba8888_ws_9x75_curiosity_720x720_round/debug/_ext/1809002610/legato_widget_slider.o
 .debug_abbrev  0x00000000       0xe8 build/dsi_xlcdc_rgba8888_ws_9x75_curiosity_720x720_round/debug/_ext/1809002610/legato_widget_slider.o
 .debug_aranges
                0x00000000       0x18 build/dsi_xlcdc_rgba8888_ws_9x75_curiosity_720x720_round/debug/_ext/1809002610/legato_widget_slider.o
 .debug_line    0x00000000      0x13d build/dsi_xlcdc_rgba8888_ws_9x75_curiosity_720x720_round/debug/_ext/1809002610/legato_widget_slider.o
 .debug_str     0x00000000       0x1f build/dsi_xlcdc_rgba8888_ws_9x75_curiosity_720x720_round/debug/_ext/1809002610/legato_widget_slider.o
 .comment       0x00000000       0x2c build/dsi_xlcdc_rgba8888_ws_9x75_curiosity_720x720_round/debug/_ext/1809002610/legato_widget_slider.o
 .ARM.attributes
                0x00000000       0x32 build/dsi_xlcdc_rgba8888_ws_9x75_curiosity_720x720_round/debug/_ext/1809002610/legato_widget_slider.o
 .text          0x00000000        0x0 build/dsi_xlcdc_rgba8888_ws_9x75_curiosity_720x720_round/debug/_ext/1017126432/legato_widget_textfield.o
 .data          0x00000000        0x0 build/dsi_xlcdc_rgba8888_ws_9x75_curiosity_720x720_round/debug/_ext/1017126432/legato_widget_textfield.o
 .bss           0x00000000        0x0 build/dsi_xlcdc_rgba8888_ws_9x75_curiosity_720x720_round/debug/_ext/1017126432/legato_widget_textfield.o
 .debug_info    0x00000000      0x66b build/dsi_xlcdc_rgba8888_ws_9x75_curiosity_720x720_round/debug/_ext/1017126432/legato_widget_textfield.o
 .debug_abbrev  0x00000000       0xe8 build/dsi_xlcdc_rgba8888_ws_9x75_curiosity_720x720_round/debug/_ext/1017126432/legato_widget_textfield.o
 .debug_aranges
                0x00000000       0x18 build/dsi_xlcdc_rgba8888_ws_9x75_curiosity_720x720_round/debug/_ext/1017126432/legato_widget_textfield.o
 .debug_line    0x00000000      0x13d build/dsi_xlcdc_rgba8888_ws_9x75_curiosity_720x720_round/debug/_ext/1017126432/legato_widget_textfield.o
 .debug_str     0x00000000       0x1f build/dsi_xlcdc_rgba8888_ws_9x75_curiosity_720x720_round/debug/_ext/1017126432/legato_widget_textfield.o
 .comment       0x00000000       0x2c build/dsi_xlcdc_rgba8888_ws_9x75_curiosity_720x720_round/debug/_ext/1017126432/legato_widget_textfield.o
 .ARM.attributes
                0x00000000       0x32 build/dsi_xlcdc_rgba8888_ws_9x75_curiosity_720x720_round/debug/_ext/1017126432/legato_widget_textfield.o
 .text          0x00000000        0x0 build/dsi_xlcdc_rgba8888_ws_9x75_curiosity_720x720_round/debug/_ext/1017126432/legato_widget_textfield_skin_classic.o
 .data          0x00000000        0x0 build/dsi_xlcdc_rgba8888_ws_9x75_curiosity_720x720_round/debug/_ext/1017126432/legato_widget_textfield_skin_classic.o
 .bss           0x00000000        0x0 build/dsi_xlcdc_rgba8888_ws_9x75_curiosity_720x720_round/debug/_ext/1017126432/legato_widget_textfield_skin_classic.o
 .debug_info    0x00000000      0x678 build/dsi_xlcdc_rgba8888_ws_9x75_curiosity_720x720_round/debug/_ext/1017126432/legato_widget_textfield_skin_classic.o
 .debug_abbrev  0x00000000       0xe8 build/dsi_xlcdc_rgba8888_ws_9x75_curiosity_720x720_round/debug/_ext/1017126432/legato_widget_textfield_skin_classic.o
 .debug_aranges
                0x00000000       0x18 build/dsi_xlcdc_rgba8888_ws_9x75_curiosity_720x720_round/debug/_ext/1017126432/legato_widget_textfield_skin_classic.o
 .debug_line    0x00000000      0x13d build/dsi_xlcdc_rgba8888_ws_9x75_curiosity_720x720_round/debug/_ext/1017126432/legato_widget_textfield_skin_classic.o
 .debug_str     0x00000000       0x1f build/dsi_xlcdc_rgba8888_ws_9x75_curiosity_720x720_round/debug/_ext/1017126432/legato_widget_textfield_skin_classic.o
 .comment       0x00000000       0x2c build/dsi_xlcdc_rgba8888_ws_9x75_curiosity_720x720_round/debug/_ext/1017126432/legato_widget_textfield_skin_classic.o
 .ARM.attributes
                0x00000000       0x32 build/dsi_xlcdc_rgba8888_ws_9x75_curiosity_720x720_round/debug/_ext/1017126432/legato_widget_textfield_skin_classic.o
 .text          0x00000000        0x0 build/dsi_xlcdc_rgba8888_ws_9x75_curiosity_720x720_round/debug/_ext/1881671036/legato_widget_touchtest_skin_classic.o
 .data          0x00000000        0x0 build/dsi_xlcdc_rgba8888_ws_9x75_curiosity_720x720_round/debug/_ext/1881671036/legato_widget_touchtest_skin_classic.o
 .bss           0x00000000        0x0 build/dsi_xlcdc_rgba8888_ws_9x75_curiosity_720x720_round/debug/_ext/1881671036/legato_widget_touchtest_skin_classic.o
 .debug_info    0x00000000      0x678 build/dsi_xlcdc_rgba8888_ws_9x75_curiosity_720x720_round/debug/_ext/1881671036/legato_widget_touchtest_skin_classic.o
 .debug_abbrev  0x00000000       0xe8 build/dsi_xlcdc_rgba8888_ws_9x75_curiosity_720x720_round/debug/_ext/1881671036/legato_widget_touchtest_skin_classic.o
 .debug_aranges
                0x00000000       0x18 build/dsi_xlcdc_rgba8888_ws_9x75_curiosity_720x720_round/debug/_ext/1881671036/legato_widget_touchtest_skin_classic.o
 .debug_line    0x00000000      0x13d build/dsi_xlcdc_rgba8888_ws_9x75_curiosity_720x720_round/debug/_ext/1881671036/legato_widget_touchtest_skin_classic.o
 .debug_str     0x00000000       0x1f build/dsi_xlcdc_rgba8888_ws_9x75_curiosity_720x720_round/debug/_ext/1881671036/legato_widget_touchtest_skin_classic.o
 .comment       0x00000000       0x2c build/dsi_xlcdc_rgba8888_ws_9x75_curiosity_720x720_round/debug/_ext/1881671036/legato_widget_touchtest_skin_classic.o
 .ARM.attributes
                0x00000000       0x32 build/dsi_xlcdc_rgba8888_ws_9x75_curiosity_720x720_round/debug/_ext/1881671036/legato_widget_touchtest_skin_classic.o
 .text          0x00000000        0x0 build/dsi_xlcdc_rgba8888_ws_9x75_curiosity_720x720_round/debug/_ext/1881671036/legato_widget_touchtest.o
 .data          0x00000000        0x0 build/dsi_xlcdc_rgba8888_ws_9x75_curiosity_720x720_round/debug/_ext/1881671036/legato_widget_touchtest.o
 .bss           0x00000000        0x0 build/dsi_xlcdc_rgba8888_ws_9x75_curiosity_720x720_round/debug/_ext/1881671036/legato_widget_touchtest.o
 .debug_info    0x00000000      0x49f build/dsi_xlcdc_rgba8888_ws_9x75_curiosity_720x720_round/debug/_ext/1881671036/legato_widget_touchtest.o
 .debug_abbrev  0x00000000       0xb5 build/dsi_xlcdc_rgba8888_ws_9x75_curiosity_720x720_round/debug/_ext/1881671036/legato_widget_touchtest.o
 .debug_aranges
                0x00000000       0x18 build/dsi_xlcdc_rgba8888_ws_9x75_curiosity_720x720_round/debug/_ext/1881671036/legato_widget_touchtest.o
 .debug_line    0x00000000       0xd0 build/dsi_xlcdc_rgba8888_ws_9x75_curiosity_720x720_round/debug/_ext/1881671036/legato_widget_touchtest.o
 .debug_str     0x00000000        0x9 build/dsi_xlcdc_rgba8888_ws_9x75_curiosity_720x720_round/debug/_ext/1881671036/legato_widget_touchtest.o
 .comment       0x00000000       0x2c build/dsi_xlcdc_rgba8888_ws_9x75_curiosity_720x720_round/debug/_ext/1881671036/legato_widget_touchtest.o
 .ARM.attributes
                0x00000000       0x32 build/dsi_xlcdc_rgba8888_ws_9x75_curiosity_720x720_round/debug/_ext/1881671036/legato_widget_touchtest.o
 .text          0x00000000        0x0 build/dsi_xlcdc_rgba8888_ws_9x75_curiosity_720x720_round/debug/_ext/1697107299/legato_widget_window_skin_classic.o
 .data          0x00000000        0x0 build/dsi_xlcdc_rgba8888_ws_9x75_curiosity_720x720_round/debug/_ext/1697107299/legato_widget_window_skin_classic.o
 .bss           0x00000000        0x0 build/dsi_xlcdc_rgba8888_ws_9x75_curiosity_720x720_round/debug/_ext/1697107299/legato_widget_window_skin_classic.o
 .debug_info    0x00000000      0x4a6 build/dsi_xlcdc_rgba8888_ws_9x75_curiosity_720x720_round/debug/_ext/1697107299/legato_widget_window_skin_classic.o
 .debug_abbrev  0x00000000       0xb5 build/dsi_xlcdc_rgba8888_ws_9x75_curiosity_720x720_round/debug/_ext/1697107299/legato_widget_window_skin_classic.o
 .debug_aranges
                0x00000000       0x18 build/dsi_xlcdc_rgba8888_ws_9x75_curiosity_720x720_round/debug/_ext/1697107299/legato_widget_window_skin_classic.o
 .debug_line    0x00000000       0xd0 build/dsi_xlcdc_rgba8888_ws_9x75_curiosity_720x720_round/debug/_ext/1697107299/legato_widget_window_skin_classic.o
 .debug_str     0x00000000        0x9 build/dsi_xlcdc_rgba8888_ws_9x75_curiosity_720x720_round/debug/_ext/1697107299/legato_widget_window_skin_classic.o
 .comment       0x00000000       0x2c build/dsi_xlcdc_rgba8888_ws_9x75_curiosity_720x720_round/debug/_ext/1697107299/legato_widget_window_skin_classic.o
 .ARM.attributes
                0x00000000       0x32 build/dsi_xlcdc_rgba8888_ws_9x75_curiosity_720x720_round/debug/_ext/1697107299/legato_widget_window_skin_classic.o
 .text          0x00000000        0x0 build/dsi_xlcdc_rgba8888_ws_9x75_curiosity_720x720_round/debug/_ext/1697107299/legato_widget_window.o
 .data          0x00000000        0x0 build/dsi_xlcdc_rgba8888_ws_9x75_curiosity_720x720_round/debug/_ext/1697107299/legato_widget_window.o
 .bss           0x00000000        0x0 build/dsi_xlcdc_rgba8888_ws_9x75_curiosity_720x720_round/debug/_ext/1697107299/legato_widget_window.o
 .debug_info    0x00000000      0x499 build/dsi_xlcdc_rgba8888_ws_9x75_curiosity_720x720_round/debug/_ext/1697107299/legato_widget_window.o
 .debug_abbrev  0x00000000       0xb5 build/dsi_xlcdc_rgba8888_ws_9x75_curiosity_720x720_round/debug/_ext/1697107299/legato_widget_window.o
 .debug_aranges
                0x00000000       0x18 build/dsi_xlcdc_rgba8888_ws_9x75_curiosity_720x720_round/debug/_ext/1697107299/legato_widget_window.o
 .debug_line    0x00000000       0xd0 build/dsi_xlcdc_rgba8888_ws_9x75_curiosity_720x720_round/debug/_ext/1697107299/legato_widget_window.o
 .debug_str     0x00000000        0x9 build/dsi_xlcdc_rgba8888_ws_9x75_curiosity_720x720_round/debug/_ext/1697107299/legato_widget_window.o
 .comment       0x00000000       0x2c build/dsi_xlcdc_rgba8888_ws_9x75_curiosity_720x720_round/debug/_ext/1697107299/legato_widget_window.o
 .ARM.attributes
                0x00000000       0x32 build/dsi_xlcdc_rgba8888_ws_9x75_curiosity_720x720_round/debug/_ext/1697107299/legato_widget_window.o
 .text          0x00000000        0x0 build/dsi_xlcdc_rgba8888_ws_9x75_curiosity_720x720_round/debug/_ext/461530114/legato_widget_skin_classic_common.o
 .data          0x00000000        0x0 build/dsi_xlcdc_rgba8888_ws_9x75_curiosity_720x720_round/debug/_ext/461530114/legato_widget_skin_classic_common.o
 .bss           0x00000000        0x0 build/dsi_xlcdc_rgba8888_ws_9x75_curiosity_720x720_round/debug/_ext/461530114/legato_widget_skin_classic_common.o
 .text.leDraw_2x1BevelBorder
                0x00000000       0xfc build/dsi_xlcdc_rgba8888_ws_9x75_curiosity_720x720_round/debug/_ext/461530114/legato_widget_skin_classic_common.o
 .text.leDraw_1x2BevelBorder
                0x00000000      0x108 build/dsi_xlcdc_rgba8888_ws_9x75_curiosity_720x720_round/debug/_ext/461530114/legato_widget_skin_classic_common.o
 .text.leDraw_2x2BevelBorder
                0x00000000      0x158 build/dsi_xlcdc_rgba8888_ws_9x75_curiosity_720x720_round/debug/_ext/461530114/legato_widget_skin_classic_common.o
 .text.leWidget_SkinClassic_Draw1x2BeveledBorder
                0x00000000      0x104 build/dsi_xlcdc_rgba8888_ws_9x75_curiosity_720x720_round/debug/_ext/461530114/legato_widget_skin_classic_common.o
 .text.leWidget_SkinClassic_DrawStandardRoundCornerLineBorder
                0x00000000       0x48 build/dsi_xlcdc_rgba8888_ws_9x75_curiosity_720x720_round/debug/_ext/461530114/legato_widget_skin_classic_common.o
 .text.leWidget_SkinClassic_DrawStandardLoweredBorder
                0x00000000       0x80 build/dsi_xlcdc_rgba8888_ws_9x75_curiosity_720x720_round/debug/_ext/461530114/legato_widget_skin_classic_common.o
 .text.leWidget_SkinClassic_DrawStandardHybridBorder
                0x00000000       0x6c build/dsi_xlcdc_rgba8888_ws_9x75_curiosity_720x720_round/debug/_ext/461530114/legato_widget_skin_classic_common.o
 .text          0x00000000        0x0 build/dsi_xlcdc_rgba8888_ws_9x75_curiosity_720x720_round/debug/_ext/461530114/legato_widget_skin_classic.o
 .data          0x00000000        0x0 build/dsi_xlcdc_rgba8888_ws_9x75_curiosity_720x720_round/debug/_ext/461530114/legato_widget_skin_classic.o
 .bss           0x00000000        0x0 build/dsi_xlcdc_rgba8888_ws_9x75_curiosity_720x720_round/debug/_ext/461530114/legato_widget_skin_classic.o
 .text          0x00000000        0x0 build/dsi_xlcdc_rgba8888_ws_9x75_curiosity_720x720_round/debug/_ext/461530114/legato_widget.o
 .data          0x00000000        0x0 build/dsi_xlcdc_rgba8888_ws_9x75_curiosity_720x720_round/debug/_ext/461530114/legato_widget.o
 .bss           0x00000000        0x0 build/dsi_xlcdc_rgba8888_ws_9x75_curiosity_720x720_round/debug/_ext/461530114/legato_widget.o
 .text          0x00000000        0x0 build/dsi_xlcdc_rgba8888_ws_9x75_curiosity_720x720_round/debug/_ext/461530114/legato_editwidget.o
 .data          0x00000000        0x0 build/dsi_xlcdc_rgba8888_ws_9x75_curiosity_720x720_round/debug/_ext/461530114/legato_editwidget.o
 .bss           0x00000000        0x0 build/dsi_xlcdc_rgba8888_ws_9x75_curiosity_720x720_round/debug/_ext/461530114/legato_editwidget.o
 .text._leEditWidget_EditStart
                0x00000000        0x8 build/dsi_xlcdc_rgba8888_ws_9x75_curiosity_720x720_round/debug/_ext/461530114/legato_editwidget.o
 .text._leEditWidget_EditEnd
                0x00000000        0x4 build/dsi_xlcdc_rgba8888_ws_9x75_curiosity_720x720_round/debug/_ext/461530114/legato_editwidget.o
 .text._leEditWidget_EditSet
                0x00000000        0x4 build/dsi_xlcdc_rgba8888_ws_9x75_curiosity_720x720_round/debug/_ext/461530114/legato_editwidget.o
 .text._leEditWidget_Destructor
                0x00000000        0x4 build/dsi_xlcdc_rgba8888_ws_9x75_curiosity_720x720_round/debug/_ext/461530114/legato_editwidget.o
 .text._leEditWidget_EditAppend
                0x00000000        0x4 build/dsi_xlcdc_rgba8888_ws_9x75_curiosity_720x720_round/debug/_ext/461530114/legato_editwidget.o
 .text._leEditWidget_EditAccept
                0x00000000        0x4 build/dsi_xlcdc_rgba8888_ws_9x75_curiosity_720x720_round/debug/_ext/461530114/legato_editwidget.o
 .text._leEditWidget_EditBackspace
                0x00000000        0x4 build/dsi_xlcdc_rgba8888_ws_9x75_curiosity_720x720_round/debug/_ext/461530114/legato_editwidget.o
 .text._leEditWidget_EditClear
                0x00000000        0x4 build/dsi_xlcdc_rgba8888_ws_9x75_curiosity_720x720_round/debug/_ext/461530114/legato_editwidget.o
 .text.leEditWidget_Constructor
                0x00000000       0x20 build/dsi_xlcdc_rgba8888_ws_9x75_curiosity_720x720_round/debug/_ext/461530114/legato_editwidget.o
 .text._leEditWidget_Clear
                0x00000000       0x20 build/dsi_xlcdc_rgba8888_ws_9x75_curiosity_720x720_round/debug/_ext/461530114/legato_editwidget.o
 .text._leEditWidget_Accept
                0x00000000       0x20 build/dsi_xlcdc_rgba8888_ws_9x75_curiosity_720x720_round/debug/_ext/461530114/legato_editwidget.o
 .text._leEditWidget_Set
                0x00000000       0x28 build/dsi_xlcdc_rgba8888_ws_9x75_curiosity_720x720_round/debug/_ext/461530114/legato_editwidget.o
 .text._leEditWidget_Append
                0x00000000       0x28 build/dsi_xlcdc_rgba8888_ws_9x75_curiosity_720x720_round/debug/_ext/461530114/legato_editwidget.o
 .text._leEditWidget_Backspace
                0x00000000       0x20 build/dsi_xlcdc_rgba8888_ws_9x75_curiosity_720x720_round/debug/_ext/461530114/legato_editwidget.o
 .rodata.editWidgetVTable
                0x00000000      0x150 build/dsi_xlcdc_rgba8888_ws_9x75_curiosity_720x720_round/debug/_ext/461530114/legato_editwidget.o
 .debug_info    0x00000000     0x31fd build/dsi_xlcdc_rgba8888_ws_9x75_curiosity_720x720_round/debug/_ext/461530114/legato_editwidget.o
 .debug_abbrev  0x00000000      0x380 build/dsi_xlcdc_rgba8888_ws_9x75_curiosity_720x720_round/debug/_ext/461530114/legato_editwidget.o
 .debug_loc     0x00000000      0x24f build/dsi_xlcdc_rgba8888_ws_9x75_curiosity_720x720_round/debug/_ext/461530114/legato_editwidget.o
 .debug_aranges
                0x00000000       0x68 build/dsi_xlcdc_rgba8888_ws_9x75_curiosity_720x720_round/debug/_ext/461530114/legato_editwidget.o
 .debug_ranges  0x00000000       0x58 build/dsi_xlcdc_rgba8888_ws_9x75_curiosity_720x720_round/debug/_ext/461530114/legato_editwidget.o
 .debug_line    0x00000000      0x549 build/dsi_xlcdc_rgba8888_ws_9x75_curiosity_720x720_round/debug/_ext/461530114/legato_editwidget.o
 .debug_str     0x00000000      0x5b9 build/dsi_xlcdc_rgba8888_ws_9x75_curiosity_720x720_round/debug/_ext/461530114/legato_editwidget.o
 .comment       0x00000000       0x2c build/dsi_xlcdc_rgba8888_ws_9x75_curiosity_720x720_round/debug/_ext/461530114/legato_editwidget.o
 .debug_frame   0x00000000      0x134 build/dsi_xlcdc_rgba8888_ws_9x75_curiosity_720x720_round/debug/_ext/461530114/legato_editwidget.o
 .ARM.attributes
                0x00000000       0x2c build/dsi_xlcdc_rgba8888_ws_9x75_curiosity_720x720_round/debug/_ext/461530114/legato_editwidget.o
 .text          0x00000000        0x0 build/dsi_xlcdc_rgba8888_ws_9x75_curiosity_720x720_round/debug/_ext/1886844053/plib_aic.o
 .data          0x00000000        0x0 build/dsi_xlcdc_rgba8888_ws_9x75_curiosity_720x720_round/debug/_ext/1886844053/plib_aic.o
 .bss           0x00000000        0x0 build/dsi_xlcdc_rgba8888_ws_9x75_curiosity_720x720_round/debug/_ext/1886844053/plib_aic.o
 .text.AIC_INT_IrqEnable
                0x00000000       0x10 build/dsi_xlcdc_rgba8888_ws_9x75_curiosity_720x720_round/debug/_ext/1886844053/plib_aic.o
 .text          0x00000000        0x0 build/dsi_xlcdc_rgba8888_ws_9x75_curiosity_720x720_round/debug/_ext/1886846076/plib_clk.o
 .data          0x00000000        0x0 build/dsi_xlcdc_rgba8888_ws_9x75_curiosity_720x720_round/debug/_ext/1886846076/plib_clk.o
 .bss           0x00000000        0x0 build/dsi_xlcdc_rgba8888_ws_9x75_curiosity_720x720_round/debug/_ext/1886846076/plib_clk.o
 .text          0x00000000        0x0 build/dsi_xlcdc_rgba8888_ws_9x75_curiosity_720x720_round/debug/_ext/1637293614/plib_dbgu.o
 .data          0x00000000        0x0 build/dsi_xlcdc_rgba8888_ws_9x75_curiosity_720x720_round/debug/_ext/1637293614/plib_dbgu.o
 .bss           0x00000000        0x0 build/dsi_xlcdc_rgba8888_ws_9x75_curiosity_720x720_round/debug/_ext/1637293614/plib_dbgu.o
 .text.DBGU_ErrorGet
                0x00000000       0x38 build/dsi_xlcdc_rgba8888_ws_9x75_curiosity_720x720_round/debug/_ext/1637293614/plib_dbgu.o
 .text.DBGU_SerialSetup
                0x00000000       0x64 build/dsi_xlcdc_rgba8888_ws_9x75_curiosity_720x720_round/debug/_ext/1637293614/plib_dbgu.o
 .text.DBGU_ReadByte
                0x00000000       0x10 build/dsi_xlcdc_rgba8888_ws_9x75_curiosity_720x720_round/debug/_ext/1637293614/plib_dbgu.o
 .text.DBGU_WriteByte
                0x00000000       0x18 build/dsi_xlcdc_rgba8888_ws_9x75_curiosity_720x720_round/debug/_ext/1637293614/plib_dbgu.o
 .text.DBGU_TransmitterIsReady
                0x00000000       0x14 build/dsi_xlcdc_rgba8888_ws_9x75_curiosity_720x720_round/debug/_ext/1637293614/plib_dbgu.o
 .text.DBGU_ReceiverIsReady
                0x00000000       0x10 build/dsi_xlcdc_rgba8888_ws_9x75_curiosity_720x720_round/debug/_ext/1637293614/plib_dbgu.o
 .text.DBGU_TransmitComplete
                0x00000000       0x14 build/dsi_xlcdc_rgba8888_ws_9x75_curiosity_720x720_round/debug/_ext/1637293614/plib_dbgu.o
 .text          0x00000000        0x0 build/dsi_xlcdc_rgba8888_ws_9x75_curiosity_720x720_round/debug/_ext/545877704/plib_flexcom6_twi_master.o
 .data          0x00000000        0x0 build/dsi_xlcdc_rgba8888_ws_9x75_curiosity_720x720_round/debug/_ext/545877704/plib_flexcom6_twi_master.o
 .bss           0x00000000        0x0 build/dsi_xlcdc_rgba8888_ws_9x75_curiosity_720x720_round/debug/_ext/545877704/plib_flexcom6_twi_master.o
 .text.FLEXCOM6_TWI_IsBusy
                0x00000000       0x18 build/dsi_xlcdc_rgba8888_ws_9x75_curiosity_720x720_round/debug/_ext/545877704/plib_flexcom6_twi_master.o
 .text          0x00000000        0x0 build/dsi_xlcdc_rgba8888_ws_9x75_curiosity_720x720_round/debug/_ext/786409605/plib_gfx2d.o
 .data          0x00000000        0x0 build/dsi_xlcdc_rgba8888_ws_9x75_curiosity_720x720_round/debug/_ext/786409605/plib_gfx2d.o
 .bss           0x00000000        0x0 build/dsi_xlcdc_rgba8888_ws_9x75_curiosity_720x720_round/debug/_ext/786409605/plib_gfx2d.o
 .text.PLIB_GFX2D_SetMemoryAccess
                0x00000000       0x24 build/dsi_xlcdc_rgba8888_ws_9x75_curiosity_720x720_round/debug/_ext/786409605/plib_gfx2d.o
 .text.PLIB_GFX2D_SetGlobalStatusEnabled
                0x00000000       0x28 build/dsi_xlcdc_rgba8888_ws_9x75_curiosity_720x720_round/debug/_ext/786409605/plib_gfx2d.o
 .text.PLIB_GFX2D_GetGlobalStatusEnabled
                0x00000000       0x14 build/dsi_xlcdc_rgba8888_ws_9x75_curiosity_720x720_round/debug/_ext/786409605/plib_gfx2d.o
 .text.PLIB_GFX2D_GetGlobalStatusWaitForEvent
                0x00000000       0x18 build/dsi_xlcdc_rgba8888_ws_9x75_curiosity_720x720_round/debug/_ext/786409605/plib_gfx2d.o
 .text.PLIB_GFX2D_SetPerformanceFilter
                0x00000000       0x54 build/dsi_xlcdc_rgba8888_ws_9x75_curiosity_720x720_round/debug/_ext/786409605/plib_gfx2d.o
 .text.PLIB_GFX2D_SetPerformanceMetric
                0x00000000       0x54 build/dsi_xlcdc_rgba8888_ws_9x75_curiosity_720x720_round/debug/_ext/786409605/plib_gfx2d.o
 .text.PLIB_GFX2D_GetPerformanceMetric
                0x00000000       0x34 build/dsi_xlcdc_rgba8888_ws_9x75_curiosity_720x720_round/debug/_ext/786409605/plib_gfx2d.o
 .text.PLIB_GFX2D_SetSurfaceAddress
                0x00000000       0x14 build/dsi_xlcdc_rgba8888_ws_9x75_curiosity_720x720_round/debug/_ext/786409605/plib_gfx2d.o
 .text.PLIB_GFX2D_SetSurfacePitch
                0x00000000       0x18 build/dsi_xlcdc_rgba8888_ws_9x75_curiosity_720x720_round/debug/_ext/786409605/plib_gfx2d.o
 .text.PLIB_GFX2D_SetSurfaceColorLookupTable
                0x00000000       0x1c build/dsi_xlcdc_rgba8888_ws_9x75_curiosity_720x720_round/debug/_ext/786409605/plib_gfx2d.o
 .text.PLIB_GFX2D_SetSurfacePixelFormat
                0x00000000       0x18 build/dsi_xlcdc_rgba8888_ws_9x75_curiosity_720x720_round/debug/_ext/786409605/plib_gfx2d.o
 .text.PLIB_GFX2D_IRQ_Enable
                0x00000000       0x88 build/dsi_xlcdc_rgba8888_ws_9x75_curiosity_720x720_round/debug/_ext/786409605/plib_gfx2d.o
 .text.PLIB_GFX2D_IRQ_Disable
                0x00000000       0x88 build/dsi_xlcdc_rgba8888_ws_9x75_curiosity_720x720_round/debug/_ext/786409605/plib_gfx2d.o
 .text.PLIB_GFX2D_IRQ_Status
                0x00000000       0x10 build/dsi_xlcdc_rgba8888_ws_9x75_curiosity_720x720_round/debug/_ext/786409605/plib_gfx2d.o
 .text._gpu_instruction
                0x00000000       0xd0 build/dsi_xlcdc_rgba8888_ws_9x75_curiosity_720x720_round/debug/_ext/786409605/plib_gfx2d.o
 .text.PLIB_GFX2D_IRQ_CallbackRegister
                0x00000000       0x24 build/dsi_xlcdc_rgba8888_ws_9x75_curiosity_720x720_round/debug/_ext/786409605/plib_gfx2d.o
 .text.PLIB_GFX2D_DeInitialize
                0x00000000       0x20 build/dsi_xlcdc_rgba8888_ws_9x75_curiosity_720x720_round/debug/_ext/786409605/plib_gfx2d.o
 .text.PLIB_GFX2D_Disable
                0x00000000       0x34 build/dsi_xlcdc_rgba8888_ws_9x75_curiosity_720x720_round/debug/_ext/786409605/plib_gfx2d.o
 .text.PLIB_GFX2D_InterruptHandler
                0x00000000       0x3c build/dsi_xlcdc_rgba8888_ws_9x75_curiosity_720x720_round/debug/_ext/786409605/plib_gfx2d.o
 .text.PLIB_GFX2D_Blend
                0x00000000      0x1bc build/dsi_xlcdc_rgba8888_ws_9x75_curiosity_720x720_round/debug/_ext/786409605/plib_gfx2d.o
 .text.PLIB_GFX2D_Rop
                0x00000000      0x1f8 build/dsi_xlcdc_rgba8888_ws_9x75_curiosity_720x720_round/debug/_ext/786409605/plib_gfx2d.o
 .text.PLIB_GFX2D_IsBusy
                0x00000000       0x18 build/dsi_xlcdc_rgba8888_ws_9x75_curiosity_720x720_round/debug/_ext/786409605/plib_gfx2d.o
 .text.PLIB_GFX2D_StatusGet
                0x00000000       0x18 build/dsi_xlcdc_rgba8888_ws_9x75_curiosity_720x720_round/debug/_ext/786409605/plib_gfx2d.o
 .text.GFX2D_Handler
                0x00000000       0x1c build/dsi_xlcdc_rgba8888_ws_9x75_curiosity_720x720_round/debug/_ext/786409605/plib_gfx2d.o
 .bss.GFX2D_IRQ_CallbackObj
                0x00000000        0x8 build/dsi_xlcdc_rgba8888_ws_9x75_curiosity_720x720_round/debug/_ext/786409605/plib_gfx2d.o
 .bss.gfx2dObj  0x00000000        0xc build/dsi_xlcdc_rgba8888_ws_9x75_curiosity_720x720_round/debug/_ext/786409605/plib_gfx2d.o
 .text          0x00000000        0x0 build/dsi_xlcdc_rgba8888_ws_9x75_curiosity_720x720_round/debug/_ext/1886855727/plib_mmu.o
 .data          0x00000000        0x0 build/dsi_xlcdc_rgba8888_ws_9x75_curiosity_720x720_round/debug/_ext/1886855727/plib_mmu.o
 .bss           0x00000000        0x0 build/dsi_xlcdc_rgba8888_ws_9x75_curiosity_720x720_round/debug/_ext/1886855727/plib_mmu.o
 .text.icache_InvalidateAll
                0x00000000        0xc build/dsi_xlcdc_rgba8888_ws_9x75_curiosity_720x720_round/debug/_ext/1886855727/plib_mmu.o
 .text.icache_Enable
                0x00000000       0x1c build/dsi_xlcdc_rgba8888_ws_9x75_curiosity_720x720_round/debug/_ext/1886855727/plib_mmu.o
 .text.icache_Disable
                0x00000000       0x20 build/dsi_xlcdc_rgba8888_ws_9x75_curiosity_720x720_round/debug/_ext/1886855727/plib_mmu.o
 .text.dcache_InvalidateAll
                0x00000000       0x38 build/dsi_xlcdc_rgba8888_ws_9x75_curiosity_720x720_round/debug/_ext/1886855727/plib_mmu.o
 .text.dcache_CleanAll
                0x00000000       0x38 build/dsi_xlcdc_rgba8888_ws_9x75_curiosity_720x720_round/debug/_ext/1886855727/plib_mmu.o
 .text.dcache_CleanInvalidateAll
                0x00000000       0x38 build/dsi_xlcdc_rgba8888_ws_9x75_curiosity_720x720_round/debug/_ext/1886855727/plib_mmu.o
 .text.dcache_InvalidateByAddr
                0x00000000       0x48 build/dsi_xlcdc_rgba8888_ws_9x75_curiosity_720x720_round/debug/_ext/1886855727/plib_mmu.o
 .text.dcache_CleanByAddr
                0x00000000       0x48 build/dsi_xlcdc_rgba8888_ws_9x75_curiosity_720x720_round/debug/_ext/1886855727/plib_mmu.o
 .text.dcache_Enable
                0x00000000       0x48 build/dsi_xlcdc_rgba8888_ws_9x75_curiosity_720x720_round/debug/_ext/1886855727/plib_mmu.o
 .text.dcache_Disable
                0x00000000       0x7c build/dsi_xlcdc_rgba8888_ws_9x75_curiosity_720x720_round/debug/_ext/1886855727/plib_mmu.o
 .text          0x00000000        0x0 build/dsi_xlcdc_rgba8888_ws_9x75_curiosity_720x720_round/debug/_ext/1886858480/plib_pio.o
 .data          0x00000000        0x0 build/dsi_xlcdc_rgba8888_ws_9x75_curiosity_720x720_round/debug/_ext/1886858480/plib_pio.o
 .bss           0x00000000        0x0 build/dsi_xlcdc_rgba8888_ws_9x75_curiosity_720x720_round/debug/_ext/1886858480/plib_pio.o
 .text.PIO_PortRead
                0x00000000        0x8 build/dsi_xlcdc_rgba8888_ws_9x75_curiosity_720x720_round/debug/_ext/1886858480/plib_pio.o
 .text.PIO_PortWrite
                0x00000000       0x18 build/dsi_xlcdc_rgba8888_ws_9x75_curiosity_720x720_round/debug/_ext/1886858480/plib_pio.o
 .text.PIO_PortLatchRead
                0x00000000        0x8 build/dsi_xlcdc_rgba8888_ws_9x75_curiosity_720x720_round/debug/_ext/1886858480/plib_pio.o
 .text.PIO_PortSet
                0x00000000        0x8 build/dsi_xlcdc_rgba8888_ws_9x75_curiosity_720x720_round/debug/_ext/1886858480/plib_pio.o
 .text.PIO_PortClear
                0x00000000        0x8 build/dsi_xlcdc_rgba8888_ws_9x75_curiosity_720x720_round/debug/_ext/1886858480/plib_pio.o
 .text.PIO_PortToggle
                0x00000000       0x10 build/dsi_xlcdc_rgba8888_ws_9x75_curiosity_720x720_round/debug/_ext/1886858480/plib_pio.o
 .text.PIO_PortInputEnable
                0x00000000        0x8 build/dsi_xlcdc_rgba8888_ws_9x75_curiosity_720x720_round/debug/_ext/1886858480/plib_pio.o
 .text.PIO_PortOutputEnable
                0x00000000        0x8 build/dsi_xlcdc_rgba8888_ws_9x75_curiosity_720x720_round/debug/_ext/1886858480/plib_pio.o
 .text          0x00000000        0x0 build/dsi_xlcdc_rgba8888_ws_9x75_curiosity_720x720_round/debug/_ext/1886860748/plib_rtt.o
 .data          0x00000000        0x0 build/dsi_xlcdc_rgba8888_ws_9x75_curiosity_720x720_round/debug/_ext/1886860748/plib_rtt.o
 .bss           0x00000000        0x0 build/dsi_xlcdc_rgba8888_ws_9x75_curiosity_720x720_round/debug/_ext/1886860748/plib_rtt.o
 .text.RTT_PrescalarUpdate
                0x00000000       0x34 build/dsi_xlcdc_rgba8888_ws_9x75_curiosity_720x720_round/debug/_ext/1886860748/plib_rtt.o
 .text.RTT_EnableInterrupt
                0x00000000       0x14 build/dsi_xlcdc_rgba8888_ws_9x75_curiosity_720x720_round/debug/_ext/1886860748/plib_rtt.o
 .text.RTT_DisableInterrupt
                0x00000000       0x14 build/dsi_xlcdc_rgba8888_ws_9x75_curiosity_720x720_round/debug/_ext/1886860748/plib_rtt.o
 .text          0x00000000        0x0 build/dsi_xlcdc_rgba8888_ws_9x75_curiosity_720x720_round/debug/_ext/60866517/plib_tc1.o
 .data          0x00000000        0x0 build/dsi_xlcdc_rgba8888_ws_9x75_curiosity_720x720_round/debug/_ext/60866517/plib_tc1.o
 .bss           0x00000000        0x0 build/dsi_xlcdc_rgba8888_ws_9x75_curiosity_720x720_round/debug/_ext/60866517/plib_tc1.o
 .text.TC1_CH0_TimerFrequencyGet
                0x00000000        0xc build/dsi_xlcdc_rgba8888_ws_9x75_curiosity_720x720_round/debug/_ext/60866517/plib_tc1.o
 .text.TC1_CH0_TimerPeriodSet
                0x00000000       0x10 build/dsi_xlcdc_rgba8888_ws_9x75_curiosity_720x720_round/debug/_ext/60866517/plib_tc1.o
 .text.TC1_CH0_TimerPeriodGet
                0x00000000       0x10 build/dsi_xlcdc_rgba8888_ws_9x75_curiosity_720x720_round/debug/_ext/60866517/plib_tc1.o
 .text.TC1_CH0_TimerCounterGet
                0x00000000       0x10 build/dsi_xlcdc_rgba8888_ws_9x75_curiosity_720x720_round/debug/_ext/60866517/plib_tc1.o
 .text.TC1_CH0_InterruptHandler
                0x00000000       0x40 build/dsi_xlcdc_rgba8888_ws_9x75_curiosity_720x720_round/debug/_ext/60866517/plib_tc1.o
 .text.TC1_CH1_TimerFrequencyGet
                0x00000000        0xc build/dsi_xlcdc_rgba8888_ws_9x75_curiosity_720x720_round/debug/_ext/60866517/plib_tc1.o
 .text.TC1_CH1_TimerPeriodSet
                0x00000000       0x10 build/dsi_xlcdc_rgba8888_ws_9x75_curiosity_720x720_round/debug/_ext/60866517/plib_tc1.o
 .text.TC1_CH1_TimerPeriodGet
                0x00000000       0x10 build/dsi_xlcdc_rgba8888_ws_9x75_curiosity_720x720_round/debug/_ext/60866517/plib_tc1.o
 .text.TC1_CH1_TimerCounterGet
                0x00000000       0x10 build/dsi_xlcdc_rgba8888_ws_9x75_curiosity_720x720_round/debug/_ext/60866517/plib_tc1.o
 .text.TC1_CH1_InterruptHandler
                0x00000000       0x40 build/dsi_xlcdc_rgba8888_ws_9x75_curiosity_720x720_round/debug/_ext/60866517/plib_tc1.o
 .text          0x00000000        0x0 build/dsi_xlcdc_rgba8888_ws_9x75_curiosity_720x720_round/debug/_ext/1477359996/xc32_monitor.o
 .data          0x00000000        0x0 build/dsi_xlcdc_rgba8888_ws_9x75_curiosity_720x720_round/debug/_ext/1477359996/xc32_monitor.o
 .bss           0x00000000        0x0 build/dsi_xlcdc_rgba8888_ws_9x75_curiosity_720x720_round/debug/_ext/1477359996/xc32_monitor.o
 .text          0x00000000        0x0 build/dsi_xlcdc_rgba8888_ws_9x75_curiosity_720x720_round/debug/_ext/1955154609/sys_cache.o
 .data          0x00000000        0x0 build/dsi_xlcdc_rgba8888_ws_9x75_curiosity_720x720_round/debug/_ext/1955154609/sys_cache.o
 .bss           0x00000000        0x0 build/dsi_xlcdc_rgba8888_ws_9x75_curiosity_720x720_round/debug/_ext/1955154609/sys_cache.o
 .text.SYS_CACHE_EnableCaches
                0x00000000       0x10 build/dsi_xlcdc_rgba8888_ws_9x75_curiosity_720x720_round/debug/_ext/1955154609/sys_cache.o
 .text.SYS_CACHE_DisableCaches
                0x00000000       0x10 build/dsi_xlcdc_rgba8888_ws_9x75_curiosity_720x720_round/debug/_ext/1955154609/sys_cache.o
 .text.SYS_CACHE_EnableICache
                0x00000000        0x4 build/dsi_xlcdc_rgba8888_ws_9x75_curiosity_720x720_round/debug/_ext/1955154609/sys_cache.o
 .text.SYS_CACHE_DisableICache
                0x00000000        0x4 build/dsi_xlcdc_rgba8888_ws_9x75_curiosity_720x720_round/debug/_ext/1955154609/sys_cache.o
 .text.SYS_CACHE_InvalidateICache
                0x00000000        0x4 build/dsi_xlcdc_rgba8888_ws_9x75_curiosity_720x720_round/debug/_ext/1955154609/sys_cache.o
 .text.SYS_CACHE_EnableDCache
                0x00000000        0x4 build/dsi_xlcdc_rgba8888_ws_9x75_curiosity_720x720_round/debug/_ext/1955154609/sys_cache.o
 .text.SYS_CACHE_DisableDCache
                0x00000000        0x4 build/dsi_xlcdc_rgba8888_ws_9x75_curiosity_720x720_round/debug/_ext/1955154609/sys_cache.o
 .text.SYS_CACHE_InvalidateDCache
                0x00000000        0x4 build/dsi_xlcdc_rgba8888_ws_9x75_curiosity_720x720_round/debug/_ext/1955154609/sys_cache.o
 .text.SYS_CACHE_CleanDCache
                0x00000000        0x4 build/dsi_xlcdc_rgba8888_ws_9x75_curiosity_720x720_round/debug/_ext/1955154609/sys_cache.o
 .text.SYS_CACHE_CleanInvalidateDCache
                0x00000000        0x4 build/dsi_xlcdc_rgba8888_ws_9x75_curiosity_720x720_round/debug/_ext/1955154609/sys_cache.o
 .text.SYS_CACHE_InvalidateDCache_by_Addr
                0x00000000        0x4 build/dsi_xlcdc_rgba8888_ws_9x75_curiosity_720x720_round/debug/_ext/1955154609/sys_cache.o
 .text.SYS_CACHE_CleanDCache_by_Addr
                0x00000000        0x4 build/dsi_xlcdc_rgba8888_ws_9x75_curiosity_720x720_round/debug/_ext/1955154609/sys_cache.o
 .text.SYS_CACHE_CleanInvalidateDCache_by_Addr
                0x00000000        0x4 build/dsi_xlcdc_rgba8888_ws_9x75_curiosity_720x720_round/debug/_ext/1955154609/sys_cache.o
 .debug_info    0x00000000      0x79e build/dsi_xlcdc_rgba8888_ws_9x75_curiosity_720x720_round/debug/_ext/1955154609/sys_cache.o
 .debug_abbrev  0x00000000       0xca build/dsi_xlcdc_rgba8888_ws_9x75_curiosity_720x720_round/debug/_ext/1955154609/sys_cache.o
 .debug_loc     0x00000000      0x136 build/dsi_xlcdc_rgba8888_ws_9x75_curiosity_720x720_round/debug/_ext/1955154609/sys_cache.o
 .debug_aranges
                0x00000000       0x80 build/dsi_xlcdc_rgba8888_ws_9x75_curiosity_720x720_round/debug/_ext/1955154609/sys_cache.o
 .debug_ranges  0x00000000       0x70 build/dsi_xlcdc_rgba8888_ws_9x75_curiosity_720x720_round/debug/_ext/1955154609/sys_cache.o
 .debug_line    0x00000000      0x25b build/dsi_xlcdc_rgba8888_ws_9x75_curiosity_720x720_round/debug/_ext/1955154609/sys_cache.o
 .debug_str     0x00000000       0xd6 build/dsi_xlcdc_rgba8888_ws_9x75_curiosity_720x720_round/debug/_ext/1955154609/sys_cache.o
 .comment       0x00000000       0x2c build/dsi_xlcdc_rgba8888_ws_9x75_curiosity_720x720_round/debug/_ext/1955154609/sys_cache.o
 .debug_frame   0x00000000       0xf8 build/dsi_xlcdc_rgba8888_ws_9x75_curiosity_720x720_round/debug/_ext/1955154609/sys_cache.o
 .ARM.attributes
                0x00000000       0x2c build/dsi_xlcdc_rgba8888_ws_9x75_curiosity_720x720_round/debug/_ext/1955154609/sys_cache.o
 .text          0x00000000        0x0 build/dsi_xlcdc_rgba8888_ws_9x75_curiosity_720x720_round/debug/_ext/1949213289/sys_input.o
 .data          0x00000000        0x0 build/dsi_xlcdc_rgba8888_ws_9x75_curiosity_720x720_round/debug/_ext/1949213289/sys_input.o
 .bss           0x00000000        0x0 build/dsi_xlcdc_rgba8888_ws_9x75_curiosity_720x720_round/debug/_ext/1949213289/sys_input.o
 .text.SYS_INP_RemoveListener
                0x00000000       0x34 build/dsi_xlcdc_rgba8888_ws_9x75_curiosity_720x720_round/debug/_ext/1949213289/sys_input.o
 .text.SYS_INP_InjectKeyDown
                0x00000000       0x48 build/dsi_xlcdc_rgba8888_ws_9x75_curiosity_720x720_round/debug/_ext/1949213289/sys_input.o
 .text.SYS_INP_InjectKeyUp
                0x00000000       0x48 build/dsi_xlcdc_rgba8888_ws_9x75_curiosity_720x720_round/debug/_ext/1949213289/sys_input.o
 .text.SYS_INP_InjectMouseButtonDown
                0x00000000       0x48 build/dsi_xlcdc_rgba8888_ws_9x75_curiosity_720x720_round/debug/_ext/1949213289/sys_input.o
 .text.SYS_INP_InjectMouseButtonUp
                0x00000000       0x48 build/dsi_xlcdc_rgba8888_ws_9x75_curiosity_720x720_round/debug/_ext/1949213289/sys_input.o
 .text.SYS_INP_InjectMouseMove
                0x00000000       0x4c build/dsi_xlcdc_rgba8888_ws_9x75_curiosity_720x720_round/debug/_ext/1949213289/sys_input.o
 .text.SYS_INP_InjectFlickGesture
                0x00000000       0x54 build/dsi_xlcdc_rgba8888_ws_9x75_curiosity_720x720_round/debug/_ext/1949213289/sys_input.o
 .text.SYS_INP_InjectPinchGesture
                0x00000000       0x54 build/dsi_xlcdc_rgba8888_ws_9x75_curiosity_720x720_round/debug/_ext/1949213289/sys_input.o
 .text.SYS_INP_InjectStretchGesture
                0x00000000       0x54 build/dsi_xlcdc_rgba8888_ws_9x75_curiosity_720x720_round/debug/_ext/1949213289/sys_input.o
 .text.SYS_INP_InjectRotateGesture
                0x00000000       0x5c build/dsi_xlcdc_rgba8888_ws_9x75_curiosity_720x720_round/debug/_ext/1949213289/sys_input.o
 .text.SYS_INP_InjectGenericGesture
                0x00000000       0x54 build/dsi_xlcdc_rgba8888_ws_9x75_curiosity_720x720_round/debug/_ext/1949213289/sys_input.o
 .text          0x00000000        0x0 build/dsi_xlcdc_rgba8888_ws_9x75_curiosity_720x720_round/debug/_ext/1949213289/sys_input_listener.o
 .data          0x00000000        0x0 build/dsi_xlcdc_rgba8888_ws_9x75_curiosity_720x720_round/debug/_ext/1949213289/sys_input_listener.o
 .bss           0x00000000        0x0 build/dsi_xlcdc_rgba8888_ws_9x75_curiosity_720x720_round/debug/_ext/1949213289/sys_input_listener.o
 .text.defaultKeyDownHandler
                0x00000000        0x4 build/dsi_xlcdc_rgba8888_ws_9x75_curiosity_720x720_round/debug/_ext/1949213289/sys_input_listener.o
 .text.defaultStretchEventHandler
                0x00000000        0x4 build/dsi_xlcdc_rgba8888_ws_9x75_curiosity_720x720_round/debug/_ext/1949213289/sys_input_listener.o
 .text.defaultRotateEventHandler
                0x00000000        0x4 build/dsi_xlcdc_rgba8888_ws_9x75_curiosity_720x720_round/debug/_ext/1949213289/sys_input_listener.o
 .text.defaultKeyUpHandler
                0x00000000        0x4 build/dsi_xlcdc_rgba8888_ws_9x75_curiosity_720x720_round/debug/_ext/1949213289/sys_input_listener.o
 .text.defaultMouseMoveHandler
                0x00000000        0x4 build/dsi_xlcdc_rgba8888_ws_9x75_curiosity_720x720_round/debug/_ext/1949213289/sys_input_listener.o
 .text.defaultMouseButtonHandler
                0x00000000        0x4 build/dsi_xlcdc_rgba8888_ws_9x75_curiosity_720x720_round/debug/_ext/1949213289/sys_input_listener.o
 .text.defaultTouchStateHandler
                0x00000000        0x4 build/dsi_xlcdc_rgba8888_ws_9x75_curiosity_720x720_round/debug/_ext/1949213289/sys_input_listener.o
 .text.defaultTouchMoveHandler
                0x00000000        0x4 build/dsi_xlcdc_rgba8888_ws_9x75_curiosity_720x720_round/debug/_ext/1949213289/sys_input_listener.o
 .text.defaultFlickGestureHandler
                0x00000000        0x4 build/dsi_xlcdc_rgba8888_ws_9x75_curiosity_720x720_round/debug/_ext/1949213289/sys_input_listener.o
 .text.defaultPinchEventHandler
                0x00000000        0x4 build/dsi_xlcdc_rgba8888_ws_9x75_curiosity_720x720_round/debug/_ext/1949213289/sys_input_listener.o
 .text.SYS_INP_ListenerInit
                0x00000000       0x90 build/dsi_xlcdc_rgba8888_ws_9x75_curiosity_720x720_round/debug/_ext/1949213289/sys_input_listener.o
 .debug_info    0x00000000     0x17b7 build/dsi_xlcdc_rgba8888_ws_9x75_curiosity_720x720_round/debug/_ext/1949213289/sys_input_listener.o
 .debug_abbrev  0x00000000      0x11f build/dsi_xlcdc_rgba8888_ws_9x75_curiosity_720x720_round/debug/_ext/1949213289/sys_input_listener.o
 .debug_loc     0x00000000       0x20 build/dsi_xlcdc_rgba8888_ws_9x75_curiosity_720x720_round/debug/_ext/1949213289/sys_input_listener.o
 .debug_aranges
                0x00000000       0x28 build/dsi_xlcdc_rgba8888_ws_9x75_curiosity_720x720_round/debug/_ext/1949213289/sys_input_listener.o
 .debug_ranges  0x00000000       0x18 build/dsi_xlcdc_rgba8888_ws_9x75_curiosity_720x720_round/debug/_ext/1949213289/sys_input_listener.o
 .debug_line    0x00000000      0x1f8 build/dsi_xlcdc_rgba8888_ws_9x75_curiosity_720x720_round/debug/_ext/1949213289/sys_input_listener.o
 .debug_str     0x00000000        0x0 build/dsi_xlcdc_rgba8888_ws_9x75_curiosity_720x720_round/debug/_ext/1949213289/sys_input_listener.o
 .comment       0x00000000       0x2c build/dsi_xlcdc_rgba8888_ws_9x75_curiosity_720x720_round/debug/_ext/1949213289/sys_input_listener.o
 .debug_frame   0x00000000       0xc8 build/dsi_xlcdc_rgba8888_ws_9x75_curiosity_720x720_round/debug/_ext/1949213289/sys_input_listener.o
 .ARM.attributes
                0x00000000       0x2c build/dsi_xlcdc_rgba8888_ws_9x75_curiosity_720x720_round/debug/_ext/1949213289/sys_input_listener.o
 .text          0x00000000        0x0 build/dsi_xlcdc_rgba8888_ws_9x75_curiosity_720x720_round/debug/_ext/586618287/sys_int.o
 .data          0x00000000        0x0 build/dsi_xlcdc_rgba8888_ws_9x75_curiosity_720x720_round/debug/_ext/586618287/sys_int.o
 .bss           0x00000000        0x0 build/dsi_xlcdc_rgba8888_ws_9x75_curiosity_720x720_round/debug/_ext/586618287/sys_int.o
 .text.SYS_INT_IsEnabled
                0x00000000       0x14 build/dsi_xlcdc_rgba8888_ws_9x75_curiosity_720x720_round/debug/_ext/586618287/sys_int.o
 .text.SYS_INT_Enable
                0x00000000        0x4 build/dsi_xlcdc_rgba8888_ws_9x75_curiosity_720x720_round/debug/_ext/586618287/sys_int.o
 .text.SYS_INT_SourceIsEnabled
                0x00000000       0x28 build/dsi_xlcdc_rgba8888_ws_9x75_curiosity_720x720_round/debug/_ext/586618287/sys_int.o
 .text.SYS_INT_SourceEnable
                0x00000000       0x28 build/dsi_xlcdc_rgba8888_ws_9x75_curiosity_720x720_round/debug/_ext/586618287/sys_int.o
 .text.SYS_INT_SourceStatusGet
                0x00000000       0x80 build/dsi_xlcdc_rgba8888_ws_9x75_curiosity_720x720_round/debug/_ext/586618287/sys_int.o
 .text.SYS_INT_SourceStatusSet
                0x00000000       0x28 build/dsi_xlcdc_rgba8888_ws_9x75_curiosity_720x720_round/debug/_ext/586618287/sys_int.o
 .text.SYS_INT_SourceStatusClear
                0x00000000       0x28 build/dsi_xlcdc_rgba8888_ws_9x75_curiosity_720x720_round/debug/_ext/586618287/sys_int.o
 .text          0x00000000        0x0 build/dsi_xlcdc_rgba8888_ws_9x75_curiosity_720x720_round/debug/_ext/690637493/sys_time.o
 .data          0x00000000        0x0 build/dsi_xlcdc_rgba8888_ws_9x75_curiosity_720x720_round/debug/_ext/690637493/sys_time.o
 .bss           0x00000000        0x0 build/dsi_xlcdc_rgba8888_ws_9x75_curiosity_720x720_round/debug/_ext/690637493/sys_time.o
 .text.SYS_TIME_Deinitialize
                0x00000000       0x48 build/dsi_xlcdc_rgba8888_ws_9x75_curiosity_720x720_round/debug/_ext/690637493/sys_time.o
 .text.SYS_TIME_Status
                0x00000000       0x18 build/dsi_xlcdc_rgba8888_ws_9x75_curiosity_720x720_round/debug/_ext/690637493/sys_time.o
 .text.SYS_TIME_FrequencyGet
                0x00000000       0x10 build/dsi_xlcdc_rgba8888_ws_9x75_curiosity_720x720_round/debug/_ext/690637493/sys_time.o
 .text.SYS_TIME_Counter64Get
                0x00000000       0x48 build/dsi_xlcdc_rgba8888_ws_9x75_curiosity_720x720_round/debug/_ext/690637493/sys_time.o
 .text.SYS_TIME_CounterGet
                0x00000000       0x44 build/dsi_xlcdc_rgba8888_ws_9x75_curiosity_720x720_round/debug/_ext/690637493/sys_time.o
 .text.SYS_TIME_CounterSet
                0x00000000       0x24 build/dsi_xlcdc_rgba8888_ws_9x75_curiosity_720x720_round/debug/_ext/690637493/sys_time.o
 .text.SYS_TIME_CountToUS
                0x00000000       0x2c build/dsi_xlcdc_rgba8888_ws_9x75_curiosity_720x720_round/debug/_ext/690637493/sys_time.o
 .text.SYS_TIME_CountToMS
                0x00000000       0x28 build/dsi_xlcdc_rgba8888_ws_9x75_curiosity_720x720_round/debug/_ext/690637493/sys_time.o
 .text.SYS_TIME_USToCount
                0x00000000       0x30 build/dsi_xlcdc_rgba8888_ws_9x75_curiosity_720x720_round/debug/_ext/690637493/sys_time.o
 .text.SYS_TIME_MSToCount
                0x00000000       0x2c build/dsi_xlcdc_rgba8888_ws_9x75_curiosity_720x720_round/debug/_ext/690637493/sys_time.o
 .text.SYS_TIME_TimerCreate
                0x00000000      0x190 build/dsi_xlcdc_rgba8888_ws_9x75_curiosity_720x720_round/debug/_ext/690637493/sys_time.o
 .text.SYS_TIME_TimerReload
                0x00000000      0x2c0 build/dsi_xlcdc_rgba8888_ws_9x75_curiosity_720x720_round/debug/_ext/690637493/sys_time.o
 .text.SYS_TIME_TimerCounterGet
                0x00000000      0x160 build/dsi_xlcdc_rgba8888_ws_9x75_curiosity_720x720_round/debug/_ext/690637493/sys_time.o
 .text.SYS_TIME_TimerPeriodHasExpired
                0x00000000       0xbc build/dsi_xlcdc_rgba8888_ws_9x75_curiosity_720x720_round/debug/_ext/690637493/sys_time.o
 .text.SYS_TIME_DelayUS
                0x00000000      0x1d4 build/dsi_xlcdc_rgba8888_ws_9x75_curiosity_720x720_round/debug/_ext/690637493/sys_time.o
 .text.SYS_TIME_CallbackRegisterUS
                0x00000000      0x1d8 build/dsi_xlcdc_rgba8888_ws_9x75_curiosity_720x720_round/debug/_ext/690637493/sys_time.o
 .data          0x00000000        0x0 build/dsi_xlcdc_rgba8888_ws_9x75_curiosity_720x720_round/debug/_ext/1295507646/cstartup.o
 .bss           0x00000000        0x0 build/dsi_xlcdc_rgba8888_ws_9x75_curiosity_720x720_round/debug/_ext/1295507646/cstartup.o
 .text          0x00000000        0x0 build/dsi_xlcdc_rgba8888_ws_9x75_curiosity_720x720_round/debug/_ext/1295507646/interrupts.o
 .data          0x00000000        0x0 build/dsi_xlcdc_rgba8888_ws_9x75_curiosity_720x720_round/debug/_ext/1295507646/interrupts.o
 .bss           0x00000000        0x0 build/dsi_xlcdc_rgba8888_ws_9x75_curiosity_720x720_round/debug/_ext/1295507646/interrupts.o
 .text          0x00000000        0x0 build/dsi_xlcdc_rgba8888_ws_9x75_curiosity_720x720_round/debug/_ext/1295507646/initialization.o
 .data          0x00000000        0x0 build/dsi_xlcdc_rgba8888_ws_9x75_curiosity_720x720_round/debug/_ext/1295507646/initialization.o
 .bss           0x00000000        0x0 build/dsi_xlcdc_rgba8888_ws_9x75_curiosity_720x720_round/debug/_ext/1295507646/initialization.o
 .text          0x00000000        0x0 build/dsi_xlcdc_rgba8888_ws_9x75_curiosity_720x720_round/debug/_ext/1295507646/fault_handlers.o
 .data          0x00000000        0x0 build/dsi_xlcdc_rgba8888_ws_9x75_curiosity_720x720_round/debug/_ext/1295507646/fault_handlers.o
 .bss           0x00000000        0x0 build/dsi_xlcdc_rgba8888_ws_9x75_curiosity_720x720_round/debug/_ext/1295507646/fault_handlers.o
 .text          0x00000000        0x0 build/dsi_xlcdc_rgba8888_ws_9x75_curiosity_720x720_round/debug/_ext/1295507646/tasks.o
 .data          0x00000000        0x0 build/dsi_xlcdc_rgba8888_ws_9x75_curiosity_720x720_round/debug/_ext/1295507646/tasks.o
 .bss           0x00000000        0x0 build/dsi_xlcdc_rgba8888_ws_9x75_curiosity_720x720_round/debug/_ext/1295507646/tasks.o
 .text          0x00000000        0x0 build/dsi_xlcdc_rgba8888_ws_9x75_curiosity_720x720_round/debug/_ext/1360937237/main.o
 .data          0x00000000        0x0 build/dsi_xlcdc_rgba8888_ws_9x75_curiosity_720x720_round/debug/_ext/1360937237/main.o
 .bss           0x00000000        0x0 build/dsi_xlcdc_rgba8888_ws_9x75_curiosity_720x720_round/debug/_ext/1360937237/main.o
 .text          0x00000000        0x0 build/dsi_xlcdc_rgba8888_ws_9x75_curiosity_720x720_round/debug/_ext/1360937237/app.o
 .data          0x00000000        0x0 build/dsi_xlcdc_rgba8888_ws_9x75_curiosity_720x720_round/debug/_ext/1360937237/app.o
 .bss           0x00000000        0x0 build/dsi_xlcdc_rgba8888_ws_9x75_curiosity_720x720_round/debug/_ext/1360937237/app.o
 .text.pulseBlur
                0x00000000       0x58 build/dsi_xlcdc_rgba8888_ws_9x75_curiosity_720x720_round/debug/_ext/1360937237/app.o
 .text          0x00000000        0x0 build/dsi_xlcdc_rgba8888_ws_9x75_curiosity_720x720_round/debug/_ext/1360937237/app_drive.o
 .data          0x00000000        0x0 build/dsi_xlcdc_rgba8888_ws_9x75_curiosity_720x720_round/debug/_ext/1360937237/app_drive.o
 .bss           0x00000000        0x0 build/dsi_xlcdc_rgba8888_ws_9x75_curiosity_720x720_round/debug/_ext/1360937237/app_drive.o
 .text.APP_InitMap
                0x00000000       0x30 build/dsi_xlcdc_rgba8888_ws_9x75_curiosity_720x720_round/debug/_ext/1360937237/app_drive.o
 .rodata.totDist
                0x00000000        0x4 build/dsi_xlcdc_rgba8888_ws_9x75_curiosity_720x720_round/debug/_ext/1360937237/app_drive.o
 .data          0x00000000        0x0 c:/program files/microchip/xc32/v4.35/bin/bin/../../lib/gcc/pic32c/8.3.1/arm/v5te/nofp\libgcc.a(_udivsi3.o)
 .bss           0x00000000        0x0 c:/program files/microchip/xc32/v4.35/bin/bin/../../lib/gcc/pic32c/8.3.1/arm/v5te/nofp\libgcc.a(_udivsi3.o)
 .xc_stack_usage.hdr
                0x00000000        0xe c:/program files/microchip/xc32/v4.35/bin/bin/../../lib/gcc/pic32c/8.3.1/arm/v5te/nofp\libgcc.a(_udivsi3.o)
 .xc_stack_usage
                0x00000000       0x35 c:/program files/microchip/xc32/v4.35/bin/bin/../../lib/gcc/pic32c/8.3.1/arm/v5te/nofp\libgcc.a(_udivsi3.o)
 .data          0x00000000        0x0 c:/program files/microchip/xc32/v4.35/bin/bin/../../lib/gcc/pic32c/8.3.1/arm/v5te/nofp\libgcc.a(_divsi3.o)
 .bss           0x00000000        0x0 c:/program files/microchip/xc32/v4.35/bin/bin/../../lib/gcc/pic32c/8.3.1/arm/v5te/nofp\libgcc.a(_divsi3.o)
 .xc_stack_usage.hdr
                0x00000000        0xe c:/program files/microchip/xc32/v4.35/bin/bin/../../lib/gcc/pic32c/8.3.1/arm/v5te/nofp\libgcc.a(_divsi3.o)
 .xc_stack_usage
                0x00000000       0x33 c:/program files/microchip/xc32/v4.35/bin/bin/../../lib/gcc/pic32c/8.3.1/arm/v5te/nofp\libgcc.a(_divsi3.o)
 .data          0x00000000        0x0 c:/program files/microchip/xc32/v4.35/bin/bin/../../lib/gcc/pic32c/8.3.1/arm/v5te/nofp\libgcc.a(_dvmd_tls.o)
 .bss           0x00000000        0x0 c:/program files/microchip/xc32/v4.35/bin/bin/../../lib/gcc/pic32c/8.3.1/arm/v5te/nofp\libgcc.a(_dvmd_tls.o)
 .xc_stack_usage.hdr
                0x00000000        0xe c:/program files/microchip/xc32/v4.35/bin/bin/../../lib/gcc/pic32c/8.3.1/arm/v5te/nofp\libgcc.a(_dvmd_tls.o)
 .xc_stack_usage
                0x00000000       0x36 c:/program files/microchip/xc32/v4.35/bin/bin/../../lib/gcc/pic32c/8.3.1/arm/v5te/nofp\libgcc.a(_dvmd_tls.o)
 .data          0x00000000        0x0 c:/program files/microchip/xc32/v4.35/bin/bin/../../lib/gcc/pic32c/8.3.1/arm/v5te/nofp\libgcc.a(_arm_addsubsf3.o)
 .bss           0x00000000        0x0 c:/program files/microchip/xc32/v4.35/bin/bin/../../lib/gcc/pic32c/8.3.1/arm/v5te/nofp\libgcc.a(_arm_addsubsf3.o)
 .xc_stack_usage.hdr
                0x00000000        0xe c:/program files/microchip/xc32/v4.35/bin/bin/../../lib/gcc/pic32c/8.3.1/arm/v5te/nofp\libgcc.a(_arm_addsubsf3.o)
 .xc_stack_usage
                0x00000000       0xaf c:/program files/microchip/xc32/v4.35/bin/bin/../../lib/gcc/pic32c/8.3.1/arm/v5te/nofp\libgcc.a(_arm_addsubsf3.o)
 .data          0x00000000        0x0 c:/program files/microchip/xc32/v4.35/bin/bin/../../lib/gcc/pic32c/8.3.1/arm/v5te/nofp\libgcc.a(_arm_muldivsf3.o)
 .bss           0x00000000        0x0 c:/program files/microchip/xc32/v4.35/bin/bin/../../lib/gcc/pic32c/8.3.1/arm/v5te/nofp\libgcc.a(_arm_muldivsf3.o)
 .xc_stack_usage.hdr
                0x00000000        0xe c:/program files/microchip/xc32/v4.35/bin/bin/../../lib/gcc/pic32c/8.3.1/arm/v5te/nofp\libgcc.a(_arm_muldivsf3.o)
 .xc_stack_usage
                0x00000000       0x2c c:/program files/microchip/xc32/v4.35/bin/bin/../../lib/gcc/pic32c/8.3.1/arm/v5te/nofp\libgcc.a(_arm_muldivsf3.o)
 .data          0x00000000        0x0 c:/program files/microchip/xc32/v4.35/bin/bin/../../lib/gcc/pic32c/8.3.1/arm/v5te/nofp\libgcc.a(_arm_cmpsf2.o)
 .bss           0x00000000        0x0 c:/program files/microchip/xc32/v4.35/bin/bin/../../lib/gcc/pic32c/8.3.1/arm/v5te/nofp\libgcc.a(_arm_cmpsf2.o)
 .xc_stack_usage.hdr
                0x00000000        0xe c:/program files/microchip/xc32/v4.35/bin/bin/../../lib/gcc/pic32c/8.3.1/arm/v5te/nofp\libgcc.a(_arm_cmpsf2.o)
 .xc_stack_usage
                0x00000000      0x107 c:/program files/microchip/xc32/v4.35/bin/bin/../../lib/gcc/pic32c/8.3.1/arm/v5te/nofp\libgcc.a(_arm_cmpsf2.o)
 .data          0x00000000        0x0 c:/program files/microchip/xc32/v4.35/bin/bin/../../lib/gcc/pic32c/8.3.1/arm/v5te/nofp\libgcc.a(_arm_fixsfsi.o)
 .bss           0x00000000        0x0 c:/program files/microchip/xc32/v4.35/bin/bin/../../lib/gcc/pic32c/8.3.1/arm/v5te/nofp\libgcc.a(_arm_fixsfsi.o)
 .xc_stack_usage.hdr
                0x00000000        0xe c:/program files/microchip/xc32/v4.35/bin/bin/../../lib/gcc/pic32c/8.3.1/arm/v5te/nofp\libgcc.a(_arm_fixsfsi.o)
 .xc_stack_usage
                0x00000000       0x17 c:/program files/microchip/xc32/v4.35/bin/bin/../../lib/gcc/pic32c/8.3.1/arm/v5te/nofp\libgcc.a(_arm_fixsfsi.o)
 .data          0x00000000        0x0 c:/program files/microchip/xc32/v4.35/bin/bin/../../lib/gcc/pic32c/8.3.1/arm/v5te/nofp\libgcc.a(_arm_fixunssfsi.o)
 .bss           0x00000000        0x0 c:/program files/microchip/xc32/v4.35/bin/bin/../../lib/gcc/pic32c/8.3.1/arm/v5te/nofp\libgcc.a(_arm_fixunssfsi.o)
 .xc_stack_usage.hdr
                0x00000000        0xe c:/program files/microchip/xc32/v4.35/bin/bin/../../lib/gcc/pic32c/8.3.1/arm/v5te/nofp\libgcc.a(_arm_fixunssfsi.o)
 .xc_stack_usage
                0x00000000       0x1a c:/program files/microchip/xc32/v4.35/bin/bin/../../lib/gcc/pic32c/8.3.1/arm/v5te/nofp\libgcc.a(_arm_fixunssfsi.o)
 .text          0x00000000       0xd4 c:/program files/microchip/xc32/v4.35/bin/bin/../../lib/gcc/pic32c/8.3.1/arm/v5te/nofp\libgcc.a(_aeabi_ldivmod.o)
 .data          0x00000000        0x0 c:/program files/microchip/xc32/v4.35/bin/bin/../../lib/gcc/pic32c/8.3.1/arm/v5te/nofp\libgcc.a(_aeabi_ldivmod.o)
 .bss           0x00000000        0x0 c:/program files/microchip/xc32/v4.35/bin/bin/../../lib/gcc/pic32c/8.3.1/arm/v5te/nofp\libgcc.a(_aeabi_ldivmod.o)
 .xc_stack_usage.hdr
                0x00000000        0xe c:/program files/microchip/xc32/v4.35/bin/bin/../../lib/gcc/pic32c/8.3.1/arm/v5te/nofp\libgcc.a(_aeabi_ldivmod.o)
 .xc_stack_usage
                0x00000000       0x1d c:/program files/microchip/xc32/v4.35/bin/bin/../../lib/gcc/pic32c/8.3.1/arm/v5te/nofp\libgcc.a(_aeabi_ldivmod.o)
 .debug_line    0x00000000       0xb2 c:/program files/microchip/xc32/v4.35/bin/bin/../../lib/gcc/pic32c/8.3.1/arm/v5te/nofp\libgcc.a(_aeabi_ldivmod.o)
 .debug_info    0x00000000       0x26 c:/program files/microchip/xc32/v4.35/bin/bin/../../lib/gcc/pic32c/8.3.1/arm/v5te/nofp\libgcc.a(_aeabi_ldivmod.o)
 .debug_abbrev  0x00000000       0x14 c:/program files/microchip/xc32/v4.35/bin/bin/../../lib/gcc/pic32c/8.3.1/arm/v5te/nofp\libgcc.a(_aeabi_ldivmod.o)
 .debug_aranges
                0x00000000       0x20 c:/program files/microchip/xc32/v4.35/bin/bin/../../lib/gcc/pic32c/8.3.1/arm/v5te/nofp\libgcc.a(_aeabi_ldivmod.o)
 .debug_str     0x00000000       0xe2 c:/program files/microchip/xc32/v4.35/bin/bin/../../lib/gcc/pic32c/8.3.1/arm/v5te/nofp\libgcc.a(_aeabi_ldivmod.o)
 .debug_frame   0x00000000       0x44 c:/program files/microchip/xc32/v4.35/bin/bin/../../lib/gcc/pic32c/8.3.1/arm/v5te/nofp\libgcc.a(_aeabi_ldivmod.o)
 .ARM.attributes
                0x00000000       0x1d c:/program files/microchip/xc32/v4.35/bin/bin/../../lib/gcc/pic32c/8.3.1/arm/v5te/nofp\libgcc.a(_aeabi_ldivmod.o)
 .data          0x00000000        0x0 c:/program files/microchip/xc32/v4.35/bin/bin/../../lib/gcc/pic32c/8.3.1/arm/v5te/nofp\libgcc.a(_aeabi_uldivmod.o)
 .bss           0x00000000        0x0 c:/program files/microchip/xc32/v4.35/bin/bin/../../lib/gcc/pic32c/8.3.1/arm/v5te/nofp\libgcc.a(_aeabi_uldivmod.o)
 .xc_stack_usage.hdr
                0x00000000        0xe c:/program files/microchip/xc32/v4.35/bin/bin/../../lib/gcc/pic32c/8.3.1/arm/v5te/nofp\libgcc.a(_aeabi_uldivmod.o)
 .xc_stack_usage
                0x00000000       0x1e c:/program files/microchip/xc32/v4.35/bin/bin/../../lib/gcc/pic32c/8.3.1/arm/v5te/nofp\libgcc.a(_aeabi_uldivmod.o)
 .data          0x00000000        0x0 c:/program files/microchip/xc32/v4.35/bin/bin/../../lib/gcc/pic32c/8.3.1/arm/v5te/nofp\libgcc.a(_udivmoddi4.o)
 .bss           0x00000000        0x0 c:/program files/microchip/xc32/v4.35/bin/bin/../../lib/gcc/pic32c/8.3.1/arm/v5te/nofp\libgcc.a(_udivmoddi4.o)
 .xc_stack_usage
                0x00000000       0x1a c:/program files/microchip/xc32/v4.35/bin/bin/../../lib/gcc/pic32c/8.3.1/arm/v5te/nofp\libgcc.a(_udivmoddi4.o)
 .ARM.extab     0x00000000        0x0 c:/program files/microchip/xc32/v4.35/bin/bin/../../lib/gcc/pic32c/8.3.1/arm/v5te/nofp\libgcc.a(_udivmoddi4.o)
 .xc_stack_usage.hdr
                0x00000000        0xe c:/program files/microchip/xc32/v4.35/bin/bin/../../lib/gcc/pic32c/8.3.1/arm/v5te/nofp\libgcc.a(_udivmoddi4.o)
 .text          0x00000000        0x0 c:/program files/microchip/xc32/v4.35/bin/bin/../../lib/gcc/pic32c/8.3.1/../../../../pic32c/lib/arm/v5te/nofp\libm-musl.a(atan.o)
 .data          0x00000000        0x0 c:/program files/microchip/xc32/v4.35/bin/bin/../../lib/gcc/pic32c/8.3.1/../../../../pic32c/lib/arm/v5te/nofp\libm-musl.a(atan.o)
 .bss           0x00000000        0x0 c:/program files/microchip/xc32/v4.35/bin/bin/../../lib/gcc/pic32c/8.3.1/../../../../pic32c/lib/arm/v5te/nofp\libm-musl.a(atan.o)
 .xc_stack_usage
                0x00000000       0x12 c:/program files/microchip/xc32/v4.35/bin/bin/../../lib/gcc/pic32c/8.3.1/../../../../pic32c/lib/arm/v5te/nofp\libm-musl.a(atan.o)
 .text.atan     0x00000000      0x438 c:/program files/microchip/xc32/v4.35/bin/bin/../../lib/gcc/pic32c/8.3.1/../../../../pic32c/lib/arm/v5te/nofp\libm-musl.a(atan.o)
 .rodata        0x00000000       0x40 c:/program files/microchip/xc32/v4.35/bin/bin/../../lib/gcc/pic32c/8.3.1/../../../../pic32c/lib/arm/v5te/nofp\libm-musl.a(atan.o)
 .xc_stack_usage.hdr
                0x00000000        0xe c:/program files/microchip/xc32/v4.35/bin/bin/../../lib/gcc/pic32c/8.3.1/../../../../pic32c/lib/arm/v5te/nofp\libm-musl.a(atan.o)
 .debug_info    0x00000000      0x599 c:/program files/microchip/xc32/v4.35/bin/bin/../../lib/gcc/pic32c/8.3.1/../../../../pic32c/lib/arm/v5te/nofp\libm-musl.a(atan.o)
 .debug_abbrev  0x00000000      0x178 c:/program files/microchip/xc32/v4.35/bin/bin/../../lib/gcc/pic32c/8.3.1/../../../../pic32c/lib/arm/v5te/nofp\libm-musl.a(atan.o)
 .debug_loc     0x00000000      0x2db c:/program files/microchip/xc32/v4.35/bin/bin/../../lib/gcc/pic32c/8.3.1/../../../../pic32c/lib/arm/v5te/nofp\libm-musl.a(atan.o)
 .debug_aranges
                0x00000000       0x20 c:/program files/microchip/xc32/v4.35/bin/bin/../../lib/gcc/pic32c/8.3.1/../../../../pic32c/lib/arm/v5te/nofp\libm-musl.a(atan.o)
 .debug_ranges  0x00000000       0x10 c:/program files/microchip/xc32/v4.35/bin/bin/../../lib/gcc/pic32c/8.3.1/../../../../pic32c/lib/arm/v5te/nofp\libm-musl.a(atan.o)
 .debug_line    0x00000000      0x2e5 c:/program files/microchip/xc32/v4.35/bin/bin/../../lib/gcc/pic32c/8.3.1/../../../../pic32c/lib/arm/v5te/nofp\libm-musl.a(atan.o)
 .debug_str     0x00000000        0x0 c:/program files/microchip/xc32/v4.35/bin/bin/../../lib/gcc/pic32c/8.3.1/../../../../pic32c/lib/arm/v5te/nofp\libm-musl.a(atan.o)
 .comment       0x00000000       0x2c c:/program files/microchip/xc32/v4.35/bin/bin/../../lib/gcc/pic32c/8.3.1/../../../../pic32c/lib/arm/v5te/nofp\libm-musl.a(atan.o)
 .note.GNU-stack
                0x00000000        0x0 c:/program files/microchip/xc32/v4.35/bin/bin/../../lib/gcc/pic32c/8.3.1/../../../../pic32c/lib/arm/v5te/nofp\libm-musl.a(atan.o)
 .debug_frame   0x00000000       0x3c c:/program files/microchip/xc32/v4.35/bin/bin/../../lib/gcc/pic32c/8.3.1/../../../../pic32c/lib/arm/v5te/nofp\libm-musl.a(atan.o)
 .ARM.attributes
                0x00000000       0x2d c:/program files/microchip/xc32/v4.35/bin/bin/../../lib/gcc/pic32c/8.3.1/../../../../pic32c/lib/arm/v5te/nofp\libm-musl.a(atan.o)
 .text          0x00000000        0x0 c:/program files/microchip/xc32/v4.35/bin/bin/../../lib/gcc/pic32c/8.3.1/../../../../pic32c/lib/arm/v5te/nofp\libm-musl.a(fabs.o)
 .data          0x00000000        0x0 c:/program files/microchip/xc32/v4.35/bin/bin/../../lib/gcc/pic32c/8.3.1/../../../../pic32c/lib/arm/v5te/nofp\libm-musl.a(fabs.o)
 .bss           0x00000000        0x0 c:/program files/microchip/xc32/v4.35/bin/bin/../../lib/gcc/pic32c/8.3.1/../../../../pic32c/lib/arm/v5te/nofp\libm-musl.a(fabs.o)
 .xc_stack_usage
                0x00000000       0x12 c:/program files/microchip/xc32/v4.35/bin/bin/../../lib/gcc/pic32c/8.3.1/../../../../pic32c/lib/arm/v5te/nofp\libm-musl.a(fabs.o)
 .text.fabs     0x00000000        0xc c:/program files/microchip/xc32/v4.35/bin/bin/../../lib/gcc/pic32c/8.3.1/../../../../pic32c/lib/arm/v5te/nofp\libm-musl.a(fabs.o)
 .xc_stack_usage.hdr
                0x00000000        0xe c:/program files/microchip/xc32/v4.35/bin/bin/../../lib/gcc/pic32c/8.3.1/../../../../pic32c/lib/arm/v5te/nofp\libm-musl.a(fabs.o)
 .debug_info    0x00000000      0x320 c:/program files/microchip/xc32/v4.35/bin/bin/../../lib/gcc/pic32c/8.3.1/../../../../pic32c/lib/arm/v5te/nofp\libm-musl.a(fabs.o)
 .debug_abbrev  0x00000000       0x8a c:/program files/microchip/xc32/v4.35/bin/bin/../../lib/gcc/pic32c/8.3.1/../../../../pic32c/lib/arm/v5te/nofp\libm-musl.a(fabs.o)
 .debug_aranges
                0x00000000       0x20 c:/program files/microchip/xc32/v4.35/bin/bin/../../lib/gcc/pic32c/8.3.1/../../../../pic32c/lib/arm/v5te/nofp\libm-musl.a(fabs.o)
 .debug_ranges  0x00000000       0x10 c:/program files/microchip/xc32/v4.35/bin/bin/../../lib/gcc/pic32c/8.3.1/../../../../pic32c/lib/arm/v5te/nofp\libm-musl.a(fabs.o)
 .debug_line    0x00000000       0xd2 c:/program files/microchip/xc32/v4.35/bin/bin/../../lib/gcc/pic32c/8.3.1/../../../../pic32c/lib/arm/v5te/nofp\libm-musl.a(fabs.o)
 .debug_str     0x00000000        0x0 c:/program files/microchip/xc32/v4.35/bin/bin/../../lib/gcc/pic32c/8.3.1/../../../../pic32c/lib/arm/v5te/nofp\libm-musl.a(fabs.o)
 .comment       0x00000000       0x2c c:/program files/microchip/xc32/v4.35/bin/bin/../../lib/gcc/pic32c/8.3.1/../../../../pic32c/lib/arm/v5te/nofp\libm-musl.a(fabs.o)
 .note.GNU-stack
                0x00000000        0x0 c:/program files/microchip/xc32/v4.35/bin/bin/../../lib/gcc/pic32c/8.3.1/../../../../pic32c/lib/arm/v5te/nofp\libm-musl.a(fabs.o)
 .debug_frame   0x00000000       0x20 c:/program files/microchip/xc32/v4.35/bin/bin/../../lib/gcc/pic32c/8.3.1/../../../../pic32c/lib/arm/v5te/nofp\libm-musl.a(fabs.o)
 .ARM.attributes
                0x00000000       0x2d c:/program files/microchip/xc32/v4.35/bin/bin/../../lib/gcc/pic32c/8.3.1/../../../../pic32c/lib/arm/v5te/nofp\libm-musl.a(fabs.o)
 .text          0x00000000        0x0 c:/program files/microchip/xc32/v4.35/bin/bin/../../lib/gcc/pic32c/8.3.1/../../../../pic32c/lib/arm/v5te/nofp\libg-musl.a(__libc_start_main.o)
 .data          0x00000000        0x0 c:/program files/microchip/xc32/v4.35/bin/bin/../../lib/gcc/pic32c/8.3.1/../../../../pic32c/lib/arm/v5te/nofp\libg-musl.a(__libc_start_main.o)
 .bss           0x00000000        0x0 c:/program files/microchip/xc32/v4.35/bin/bin/../../lib/gcc/pic32c/8.3.1/../../../../pic32c/lib/arm/v5te/nofp\libg-musl.a(__libc_start_main.o)
 .xc_stack_usage
                0x00000000       0x34 c:/program files/microchip/xc32/v4.35/bin/bin/../../lib/gcc/pic32c/8.3.1/../../../../pic32c/lib/arm/v5te/nofp\libg-musl.a(__libc_start_main.o)
 .xc_stack_usage.hdr
                0x00000000        0xe c:/program files/microchip/xc32/v4.35/bin/bin/../../lib/gcc/pic32c/8.3.1/../../../../pic32c/lib/arm/v5te/nofp\libg-musl.a(__libc_start_main.o)
 .text          0x00000000        0x0 c:/program files/microchip/xc32/v4.35/bin/bin/../../lib/gcc/pic32c/8.3.1/../../../../pic32c/lib/arm/v5te/nofp\libg-musl.a(libc.o)
 .data          0x00000000        0x0 c:/program files/microchip/xc32/v4.35/bin/bin/../../lib/gcc/pic32c/8.3.1/../../../../pic32c/lib/arm/v5te/nofp\libg-musl.a(libc.o)
 .xc_stack_usage.hdr
                0x00000000        0xe c:/program files/microchip/xc32/v4.35/bin/bin/../../lib/gcc/pic32c/8.3.1/../../../../pic32c/lib/arm/v5te/nofp\libg-musl.a(libc.o)
 .text          0x00000000        0x0 c:/program files/microchip/xc32/v4.35/bin/bin/../../lib/gcc/pic32c/8.3.1/../../../../pic32c/lib/arm/v5te/nofp\libg-musl.a(__sio_printf_dnpuxX.o)
 .data          0x00000000        0x0 c:/program files/microchip/xc32/v4.35/bin/bin/../../lib/gcc/pic32c/8.3.1/../../../../pic32c/lib/arm/v5te/nofp\libg-musl.a(__sio_printf_dnpuxX.o)
 .bss           0x00000000        0x0 c:/program files/microchip/xc32/v4.35/bin/bin/../../lib/gcc/pic32c/8.3.1/../../../../pic32c/lib/arm/v5te/nofp\libg-musl.a(__sio_printf_dnpuxX.o)
 .xc_stack_usage
                0x00000000       0x3c c:/program files/microchip/xc32/v4.35/bin/bin/../../lib/gcc/pic32c/8.3.1/../../../../pic32c/lib/arm/v5te/nofp\libg-musl.a(__sio_printf_dnpuxX.o)
 .text.__wrap_printf
                0x00000000       0x38 c:/program files/microchip/xc32/v4.35/bin/bin/../../lib/gcc/pic32c/8.3.1/../../../../pic32c/lib/arm/v5te/nofp\libg-musl.a(__sio_printf_dnpuxX.o)
 .text.__sio_printf_dnpuxX
                0x00000000       0x1c c:/program files/microchip/xc32/v4.35/bin/bin/../../lib/gcc/pic32c/8.3.1/../../../../pic32c/lib/arm/v5te/nofp\libg-musl.a(__sio_printf_dnpuxX.o)
 .xc_stack_usage.hdr
                0x00000000        0xe c:/program files/microchip/xc32/v4.35/bin/bin/../../lib/gcc/pic32c/8.3.1/../../../../pic32c/lib/arm/v5te/nofp\libg-musl.a(__sio_printf_dnpuxX.o)
 .debug_info    0x00000000      0x45d c:/program files/microchip/xc32/v4.35/bin/bin/../../lib/gcc/pic32c/8.3.1/../../../../pic32c/lib/arm/v5te/nofp\libg-musl.a(__sio_printf_dnpuxX.o)
 .debug_abbrev  0x00000000      0x145 c:/program files/microchip/xc32/v4.35/bin/bin/../../lib/gcc/pic32c/8.3.1/../../../../pic32c/lib/arm/v5te/nofp\libg-musl.a(__sio_printf_dnpuxX.o)
 .debug_loc     0x00000000       0x91 c:/program files/microchip/xc32/v4.35/bin/bin/../../lib/gcc/pic32c/8.3.1/../../../../pic32c/lib/arm/v5te/nofp\libg-musl.a(__sio_printf_dnpuxX.o)
 .debug_aranges
                0x00000000       0x28 c:/program files/microchip/xc32/v4.35/bin/bin/../../lib/gcc/pic32c/8.3.1/../../../../pic32c/lib/arm/v5te/nofp\libg-musl.a(__sio_printf_dnpuxX.o)
 .debug_ranges  0x00000000       0x18 c:/program files/microchip/xc32/v4.35/bin/bin/../../lib/gcc/pic32c/8.3.1/../../../../pic32c/lib/arm/v5te/nofp\libg-musl.a(__sio_printf_dnpuxX.o)
 .debug_line    0x00000000      0x1be c:/program files/microchip/xc32/v4.35/bin/bin/../../lib/gcc/pic32c/8.3.1/../../../../pic32c/lib/arm/v5te/nofp\libg-musl.a(__sio_printf_dnpuxX.o)
 .debug_str     0x00000000       0x5a c:/program files/microchip/xc32/v4.35/bin/bin/../../lib/gcc/pic32c/8.3.1/../../../../pic32c/lib/arm/v5te/nofp\libg-musl.a(__sio_printf_dnpuxX.o)
 .comment       0x00000000       0x2c c:/program files/microchip/xc32/v4.35/bin/bin/../../lib/gcc/pic32c/8.3.1/../../../../pic32c/lib/arm/v5te/nofp\libg-musl.a(__sio_printf_dnpuxX.o)
 .note.GNU-stack
                0x00000000        0x0 c:/program files/microchip/xc32/v4.35/bin/bin/../../lib/gcc/pic32c/8.3.1/../../../../pic32c/lib/arm/v5te/nofp\libg-musl.a(__sio_printf_dnpuxX.o)
 .debug_frame   0x00000000       0x5c c:/program files/microchip/xc32/v4.35/bin/bin/../../lib/gcc/pic32c/8.3.1/../../../../pic32c/lib/arm/v5te/nofp\libg-musl.a(__sio_printf_dnpuxX.o)
 .ARM.attributes
                0x00000000       0x2d c:/program files/microchip/xc32/v4.35/bin/bin/../../lib/gcc/pic32c/8.3.1/../../../../pic32c/lib/arm/v5te/nofp\libg-musl.a(__sio_printf_dnpuxX.o)
 .text          0x00000000        0x0 c:/program files/microchip/xc32/v4.35/bin/bin/../../lib/gcc/pic32c/8.3.1/../../../../pic32c/lib/arm/v5te/nofp\libg-musl.a(__sio_sprintf_dnpuxX.o)
 .data          0x00000000        0x0 c:/program files/microchip/xc32/v4.35/bin/bin/../../lib/gcc/pic32c/8.3.1/../../../../pic32c/lib/arm/v5te/nofp\libg-musl.a(__sio_sprintf_dnpuxX.o)
 .bss           0x00000000        0x0 c:/program files/microchip/xc32/v4.35/bin/bin/../../lib/gcc/pic32c/8.3.1/../../../../pic32c/lib/arm/v5te/nofp\libg-musl.a(__sio_sprintf_dnpuxX.o)
 .xc_stack_usage
                0x00000000       0x3e c:/program files/microchip/xc32/v4.35/bin/bin/../../lib/gcc/pic32c/8.3.1/../../../../pic32c/lib/arm/v5te/nofp\libg-musl.a(__sio_sprintf_dnpuxX.o)
 .text.__sio_sprintf_dnpuxX
                0x00000000       0x1c c:/program files/microchip/xc32/v4.35/bin/bin/../../lib/gcc/pic32c/8.3.1/../../../../pic32c/lib/arm/v5te/nofp\libg-musl.a(__sio_sprintf_dnpuxX.o)
 .xc_stack_usage.hdr
                0x00000000        0xe c:/program files/microchip/xc32/v4.35/bin/bin/../../lib/gcc/pic32c/8.3.1/../../../../pic32c/lib/arm/v5te/nofp\libg-musl.a(__sio_sprintf_dnpuxX.o)
 .text          0x00000000        0x0 c:/program files/microchip/xc32/v4.35/bin/bin/../../lib/gcc/pic32c/8.3.1/../../../../pic32c/lib/arm/v5te/nofp\libg-musl.a(__fmt_d.o)
 .data          0x00000000        0x0 c:/program files/microchip/xc32/v4.35/bin/bin/../../lib/gcc/pic32c/8.3.1/../../../../pic32c/lib/arm/v5te/nofp\libg-musl.a(__fmt_d.o)
 .bss           0x00000000        0x0 c:/program files/microchip/xc32/v4.35/bin/bin/../../lib/gcc/pic32c/8.3.1/../../../../pic32c/lib/arm/v5te/nofp\libg-musl.a(__fmt_d.o)
 .xc_stack_usage
                0x00000000       0x15 c:/program files/microchip/xc32/v4.35/bin/bin/../../lib/gcc/pic32c/8.3.1/../../../../pic32c/lib/arm/v5te/nofp\libg-musl.a(__fmt_d.o)
 .xc_stack_usage.hdr
                0x00000000        0xe c:/program files/microchip/xc32/v4.35/bin/bin/../../lib/gcc/pic32c/8.3.1/../../../../pic32c/lib/arm/v5te/nofp\libg-musl.a(__fmt_d.o)
 .text          0x00000000        0x0 c:/program files/microchip/xc32/v4.35/bin/bin/../../lib/gcc/pic32c/8.3.1/../../../../pic32c/lib/arm/v5te/nofp\libg-musl.a(__fmt_u.o)
 .data          0x00000000        0x0 c:/program files/microchip/xc32/v4.35/bin/bin/../../lib/gcc/pic32c/8.3.1/../../../../pic32c/lib/arm/v5te/nofp\libg-musl.a(__fmt_u.o)
 .bss           0x00000000        0x0 c:/program files/microchip/xc32/v4.35/bin/bin/../../lib/gcc/pic32c/8.3.1/../../../../pic32c/lib/arm/v5te/nofp\libg-musl.a(__fmt_u.o)
 .xc_stack_usage
                0x00000000       0x15 c:/program files/microchip/xc32/v4.35/bin/bin/../../lib/gcc/pic32c/8.3.1/../../../../pic32c/lib/arm/v5te/nofp\libg-musl.a(__fmt_u.o)
 .xc_stack_usage.hdr
                0x00000000        0xe c:/program files/microchip/xc32/v4.35/bin/bin/../../lib/gcc/pic32c/8.3.1/../../../../pic32c/lib/arm/v5te/nofp\libg-musl.a(__fmt_u.o)
 .text          0x00000000        0x0 c:/program files/microchip/xc32/v4.35/bin/bin/../../lib/gcc/pic32c/8.3.1/../../../../pic32c/lib/arm/v5te/nofp\libg-musl.a(__fmt_x.o)
 .data          0x00000000        0x0 c:/program files/microchip/xc32/v4.35/bin/bin/../../lib/gcc/pic32c/8.3.1/../../../../pic32c/lib/arm/v5te/nofp\libg-musl.a(__fmt_x.o)
 .bss           0x00000000        0x0 c:/program files/microchip/xc32/v4.35/bin/bin/../../lib/gcc/pic32c/8.3.1/../../../../pic32c/lib/arm/v5te/nofp\libg-musl.a(__fmt_x.o)
 .xc_stack_usage
                0x00000000       0x15 c:/program files/microchip/xc32/v4.35/bin/bin/../../lib/gcc/pic32c/8.3.1/../../../../pic32c/lib/arm/v5te/nofp\libg-musl.a(__fmt_x.o)
 .xc_stack_usage.hdr
                0x00000000        0xe c:/program files/microchip/xc32/v4.35/bin/bin/../../lib/gcc/pic32c/8.3.1/../../../../pic32c/lib/arm/v5te/nofp\libg-musl.a(__fmt_x.o)
 .text          0x00000000        0x0 c:/program files/microchip/xc32/v4.35/bin/bin/../../lib/gcc/pic32c/8.3.1/../../../../pic32c/lib/arm/v5te/nofp\libg-musl.a(__pop_int.o)
 .data          0x00000000        0x0 c:/program files/microchip/xc32/v4.35/bin/bin/../../lib/gcc/pic32c/8.3.1/../../../../pic32c/lib/arm/v5te/nofp\libg-musl.a(__pop_int.o)
 .bss           0x00000000        0x0 c:/program files/microchip/xc32/v4.35/bin/bin/../../lib/gcc/pic32c/8.3.1/../../../../pic32c/lib/arm/v5te/nofp\libg-musl.a(__pop_int.o)
 .xc_stack_usage
                0x00000000       0x17 c:/program files/microchip/xc32/v4.35/bin/bin/../../lib/gcc/pic32c/8.3.1/../../../../pic32c/lib/arm/v5te/nofp\libg-musl.a(__pop_int.o)
 .xc_stack_usage.hdr
                0x00000000        0xe c:/program files/microchip/xc32/v4.35/bin/bin/../../lib/gcc/pic32c/8.3.1/../../../../pic32c/lib/arm/v5te/nofp\libg-musl.a(__pop_int.o)
 .text          0x00000000        0x0 c:/program files/microchip/xc32/v4.35/bin/bin/../../lib/gcc/pic32c/8.3.1/../../../../pic32c/lib/arm/v5te/nofp\libg-musl.a(__pop_ptr.o)
 .data          0x00000000        0x0 c:/program files/microchip/xc32/v4.35/bin/bin/../../lib/gcc/pic32c/8.3.1/../../../../pic32c/lib/arm/v5te/nofp\libg-musl.a(__pop_ptr.o)
 .bss           0x00000000        0x0 c:/program files/microchip/xc32/v4.35/bin/bin/../../lib/gcc/pic32c/8.3.1/../../../../pic32c/lib/arm/v5te/nofp\libg-musl.a(__pop_ptr.o)
 .xc_stack_usage
                0x00000000       0x17 c:/program files/microchip/xc32/v4.35/bin/bin/../../lib/gcc/pic32c/8.3.1/../../../../pic32c/lib/arm/v5te/nofp\libg-musl.a(__pop_ptr.o)
 .xc_stack_usage.hdr
                0x00000000        0xe c:/program files/microchip/xc32/v4.35/bin/bin/../../lib/gcc/pic32c/8.3.1/../../../../pic32c/lib/arm/v5te/nofp\libg-musl.a(__pop_ptr.o)
 .text          0x00000000        0x0 c:/program files/microchip/xc32/v4.35/bin/bin/../../lib/gcc/pic32c/8.3.1/../../../../pic32c/lib/arm/v5te/nofp\libg-musl.a(__printf_core.o)
 .data          0x00000000        0x0 c:/program files/microchip/xc32/v4.35/bin/bin/../../lib/gcc/pic32c/8.3.1/../../../../pic32c/lib/arm/v5te/nofp\libg-musl.a(__printf_core.o)
 .bss           0x00000000        0x0 c:/program files/microchip/xc32/v4.35/bin/bin/../../lib/gcc/pic32c/8.3.1/../../../../pic32c/lib/arm/v5te/nofp\libg-musl.a(__printf_core.o)
 .xc_stack_usage
                0x00000000       0xaf c:/program files/microchip/xc32/v4.35/bin/bin/../../lib/gcc/pic32c/8.3.1/../../../../pic32c/lib/arm/v5te/nofp\libg-musl.a(__printf_core.o)
 .text.__string_out
                0x00000000       0x44 c:/program files/microchip/xc32/v4.35/bin/bin/../../lib/gcc/pic32c/8.3.1/../../../../pic32c/lib/arm/v5te/nofp\libg-musl.a(__printf_core.o)
 .xc_stack_usage.hdr
                0x00000000        0xe c:/program files/microchip/xc32/v4.35/bin/bin/../../lib/gcc/pic32c/8.3.1/../../../../pic32c/lib/arm/v5te/nofp\libg-musl.a(__printf_core.o)
 .text          0x00000000        0x0 c:/program files/microchip/xc32/v4.35/bin/bin/../../lib/gcc/pic32c/8.3.1/../../../../pic32c/lib/arm/v5te/nofp\libg-musl.a(stdin.o)
 .xc_stack_usage
                0x00000000       0x33 c:/program files/microchip/xc32/v4.35/bin/bin/../../lib/gcc/pic32c/8.3.1/../../../../pic32c/lib/arm/v5te/nofp\libg-musl.a(stdin.o)
 .xc_stack_usage.hdr
                0x00000000        0xe c:/program files/microchip/xc32/v4.35/bin/bin/../../lib/gcc/pic32c/8.3.1/../../../../pic32c/lib/arm/v5te/nofp\libg-musl.a(stdin.o)
 .text          0x00000000        0x0 c:/program files/microchip/xc32/v4.35/bin/bin/../../lib/gcc/pic32c/8.3.1/../../../../pic32c/lib/arm/v5te/nofp\libg-musl.a(stdout.o)
 .xc_stack_usage
                0x00000000       0x51 c:/program files/microchip/xc32/v4.35/bin/bin/../../lib/gcc/pic32c/8.3.1/../../../../pic32c/lib/arm/v5te/nofp\libg-musl.a(stdout.o)
 .text.__dummy  0x00000000        0xc c:/program files/microchip/xc32/v4.35/bin/bin/../../lib/gcc/pic32c/8.3.1/../../../../pic32c/lib/arm/v5te/nofp\libg-musl.a(stdout.o)
 .xc_stack_usage.hdr
                0x00000000        0xe c:/program files/microchip/xc32/v4.35/bin/bin/../../lib/gcc/pic32c/8.3.1/../../../../pic32c/lib/arm/v5te/nofp\libg-musl.a(stdout.o)
 .text          0x00000000        0x0 c:/program files/microchip/xc32/v4.35/bin/bin/../../lib/gcc/pic32c/8.3.1/../../../../pic32c/lib/arm/v5te/nofp\libg-musl.a(putchar.o)
 .data          0x00000000        0x0 c:/program files/microchip/xc32/v4.35/bin/bin/../../lib/gcc/pic32c/8.3.1/../../../../pic32c/lib/arm/v5te/nofp\libg-musl.a(putchar.o)
 .bss           0x00000000        0x0 c:/program files/microchip/xc32/v4.35/bin/bin/../../lib/gcc/pic32c/8.3.1/../../../../pic32c/lib/arm/v5te/nofp\libg-musl.a(putchar.o)
 .xc_stack_usage
                0x00000000       0x15 c:/program files/microchip/xc32/v4.35/bin/bin/../../lib/gcc/pic32c/8.3.1/../../../../pic32c/lib/arm/v5te/nofp\libg-musl.a(putchar.o)
 .text.putchar  0x00000000       0x14 c:/program files/microchip/xc32/v4.35/bin/bin/../../lib/gcc/pic32c/8.3.1/../../../../pic32c/lib/arm/v5te/nofp\libg-musl.a(putchar.o)
 .xc_stack_usage.hdr
                0x00000000        0xe c:/program files/microchip/xc32/v4.35/bin/bin/../../lib/gcc/pic32c/8.3.1/../../../../pic32c/lib/arm/v5te/nofp\libg-musl.a(putchar.o)
 .debug_info    0x00000000      0x2c7 c:/program files/microchip/xc32/v4.35/bin/bin/../../lib/gcc/pic32c/8.3.1/../../../../pic32c/lib/arm/v5te/nofp\libg-musl.a(putchar.o)
 .debug_abbrev  0x00000000       0xbc c:/program files/microchip/xc32/v4.35/bin/bin/../../lib/gcc/pic32c/8.3.1/../../../../pic32c/lib/arm/v5te/nofp\libg-musl.a(putchar.o)
 .debug_loc     0x00000000       0x25 c:/program files/microchip/xc32/v4.35/bin/bin/../../lib/gcc/pic32c/8.3.1/../../../../pic32c/lib/arm/v5te/nofp\libg-musl.a(putchar.o)
 .debug_aranges
                0x00000000       0x20 c:/program files/microchip/xc32/v4.35/bin/bin/../../lib/gcc/pic32c/8.3.1/../../../../pic32c/lib/arm/v5te/nofp\libg-musl.a(putchar.o)
 .debug_ranges  0x00000000       0x10 c:/program files/microchip/xc32/v4.35/bin/bin/../../lib/gcc/pic32c/8.3.1/../../../../pic32c/lib/arm/v5te/nofp\libg-musl.a(putchar.o)
 .debug_line    0x00000000      0x135 c:/program files/microchip/xc32/v4.35/bin/bin/../../lib/gcc/pic32c/8.3.1/../../../../pic32c/lib/arm/v5te/nofp\libg-musl.a(putchar.o)
 .debug_str     0x00000000        0x0 c:/program files/microchip/xc32/v4.35/bin/bin/../../lib/gcc/pic32c/8.3.1/../../../../pic32c/lib/arm/v5te/nofp\libg-musl.a(putchar.o)
 .comment       0x00000000       0x2c c:/program files/microchip/xc32/v4.35/bin/bin/../../lib/gcc/pic32c/8.3.1/../../../../pic32c/lib/arm/v5te/nofp\libg-musl.a(putchar.o)
 .note.GNU-stack
                0x00000000        0x0 c:/program files/microchip/xc32/v4.35/bin/bin/../../lib/gcc/pic32c/8.3.1/../../../../pic32c/lib/arm/v5te/nofp\libg-musl.a(putchar.o)
 .debug_frame   0x00000000       0x20 c:/program files/microchip/xc32/v4.35/bin/bin/../../lib/gcc/pic32c/8.3.1/../../../../pic32c/lib/arm/v5te/nofp\libg-musl.a(putchar.o)
 .ARM.attributes
                0x00000000       0x2d c:/program files/microchip/xc32/v4.35/bin/bin/../../lib/gcc/pic32c/8.3.1/../../../../pic32c/lib/arm/v5te/nofp\libg-musl.a(putchar.o)
 .text          0x00000000        0x0 c:/program files/microchip/xc32/v4.35/bin/bin/../../lib/gcc/pic32c/8.3.1/../../../../pic32c/lib/arm/v5te/nofp\libg-musl.a(puts.o)
 .data          0x00000000        0x0 c:/program files/microchip/xc32/v4.35/bin/bin/../../lib/gcc/pic32c/8.3.1/../../../../pic32c/lib/arm/v5te/nofp\libg-musl.a(puts.o)
 .bss           0x00000000        0x0 c:/program files/microchip/xc32/v4.35/bin/bin/../../lib/gcc/pic32c/8.3.1/../../../../pic32c/lib/arm/v5te/nofp\libg-musl.a(puts.o)
 .xc_stack_usage
                0x00000000       0x12 c:/program files/microchip/xc32/v4.35/bin/bin/../../lib/gcc/pic32c/8.3.1/../../../../pic32c/lib/arm/v5te/nofp\libg-musl.a(puts.o)
 .xc_stack_usage.hdr
                0x00000000        0xe c:/program files/microchip/xc32/v4.35/bin/bin/../../lib/gcc/pic32c/8.3.1/../../../../pic32c/lib/arm/v5te/nofp\libg-musl.a(puts.o)
 .text          0x00000000        0x0 c:/program files/microchip/xc32/v4.35/bin/bin/../../lib/gcc/pic32c/8.3.1/../../../../pic32c/lib/arm/v5te/nofp\libg-musl.a(setbuf.o)
 .data          0x00000000        0x0 c:/program files/microchip/xc32/v4.35/bin/bin/../../lib/gcc/pic32c/8.3.1/../../../../pic32c/lib/arm/v5te/nofp\libg-musl.a(setbuf.o)
 .bss           0x00000000        0x0 c:/program files/microchip/xc32/v4.35/bin/bin/../../lib/gcc/pic32c/8.3.1/../../../../pic32c/lib/arm/v5te/nofp\libg-musl.a(setbuf.o)
 .xc_stack_usage
                0x00000000       0x14 c:/program files/microchip/xc32/v4.35/bin/bin/../../lib/gcc/pic32c/8.3.1/../../../../pic32c/lib/arm/v5te/nofp\libg-musl.a(setbuf.o)
 .xc_stack_usage.hdr
                0x00000000        0xe c:/program files/microchip/xc32/v4.35/bin/bin/../../lib/gcc/pic32c/8.3.1/../../../../pic32c/lib/arm/v5te/nofp\libg-musl.a(setbuf.o)
 .text          0x00000000        0x0 c:/program files/microchip/xc32/v4.35/bin/bin/../../lib/gcc/pic32c/8.3.1/../../../../pic32c/lib/arm/v5te/nofp\libg-musl.a(atoi.o)
 .data          0x00000000        0x0 c:/program files/microchip/xc32/v4.35/bin/bin/../../lib/gcc/pic32c/8.3.1/../../../../pic32c/lib/arm/v5te/nofp\libg-musl.a(atoi.o)
 .bss           0x00000000        0x0 c:/program files/microchip/xc32/v4.35/bin/bin/../../lib/gcc/pic32c/8.3.1/../../../../pic32c/lib/arm/v5te/nofp\libg-musl.a(atoi.o)
 .xc_stack_usage
                0x00000000       0x12 c:/program files/microchip/xc32/v4.35/bin/bin/../../lib/gcc/pic32c/8.3.1/../../../../pic32c/lib/arm/v5te/nofp\libg-musl.a(atoi.o)
 .xc_stack_usage.hdr
                0x00000000        0xe c:/program files/microchip/xc32/v4.35/bin/bin/../../lib/gcc/pic32c/8.3.1/../../../../pic32c/lib/arm/v5te/nofp\libg-musl.a(atoi.o)
 .text          0x00000000        0x0 c:/program files/microchip/xc32/v4.35/bin/bin/../../lib/gcc/pic32c/8.3.1/../../../../pic32c/lib/arm/v5te/nofp\libg-musl.a(memcpy.o)
 .data          0x00000000        0x0 c:/program files/microchip/xc32/v4.35/bin/bin/../../lib/gcc/pic32c/8.3.1/../../../../pic32c/lib/arm/v5te/nofp\libg-musl.a(memcpy.o)
 .bss           0x00000000        0x0 c:/program files/microchip/xc32/v4.35/bin/bin/../../lib/gcc/pic32c/8.3.1/../../../../pic32c/lib/arm/v5te/nofp\libg-musl.a(memcpy.o)
 .xc_stack_usage
                0x00000000       0x14 c:/program files/microchip/xc32/v4.35/bin/bin/../../lib/gcc/pic32c/8.3.1/../../../../pic32c/lib/arm/v5te/nofp\libg-musl.a(memcpy.o)
 .xc_stack_usage.hdr
                0x00000000        0xe c:/program files/microchip/xc32/v4.35/bin/bin/../../lib/gcc/pic32c/8.3.1/../../../../pic32c/lib/arm/v5te/nofp\libg-musl.a(memcpy.o)
 .text          0x00000000        0x0 c:/program files/microchip/xc32/v4.35/bin/bin/../../lib/gcc/pic32c/8.3.1/../../../../pic32c/lib/arm/v5te/nofp\libg-musl.a(memmove.o)
 .data          0x00000000        0x0 c:/program files/microchip/xc32/v4.35/bin/bin/../../lib/gcc/pic32c/8.3.1/../../../../pic32c/lib/arm/v5te/nofp\libg-musl.a(memmove.o)
 .bss           0x00000000        0x0 c:/program files/microchip/xc32/v4.35/bin/bin/../../lib/gcc/pic32c/8.3.1/../../../../pic32c/lib/arm/v5te/nofp\libg-musl.a(memmove.o)
 .xc_stack_usage
                0x00000000       0x15 c:/program files/microchip/xc32/v4.35/bin/bin/../../lib/gcc/pic32c/8.3.1/../../../../pic32c/lib/arm/v5te/nofp\libg-musl.a(memmove.o)
 .xc_stack_usage.hdr
                0x00000000        0xe c:/program files/microchip/xc32/v4.35/bin/bin/../../lib/gcc/pic32c/8.3.1/../../../../pic32c/lib/arm/v5te/nofp\libg-musl.a(memmove.o)
 .text          0x00000000        0x0 c:/program files/microchip/xc32/v4.35/bin/bin/../../lib/gcc/pic32c/8.3.1/../../../../pic32c/lib/arm/v5te/nofp\libg-musl.a(memset.o)
 .data          0x00000000        0x0 c:/program files/microchip/xc32/v4.35/bin/bin/../../lib/gcc/pic32c/8.3.1/../../../../pic32c/lib/arm/v5te/nofp\libg-musl.a(memset.o)
 .bss           0x00000000        0x0 c:/program files/microchip/xc32/v4.35/bin/bin/../../lib/gcc/pic32c/8.3.1/../../../../pic32c/lib/arm/v5te/nofp\libg-musl.a(memset.o)
 .xc_stack_usage
                0x00000000       0x14 c:/program files/microchip/xc32/v4.35/bin/bin/../../lib/gcc/pic32c/8.3.1/../../../../pic32c/lib/arm/v5te/nofp\libg-musl.a(memset.o)
 .xc_stack_usage.hdr
                0x00000000        0xe c:/program files/microchip/xc32/v4.35/bin/bin/../../lib/gcc/pic32c/8.3.1/../../../../pic32c/lib/arm/v5te/nofp\libg-musl.a(memset.o)
 .text          0x00000000        0x0 c:/program files/microchip/xc32/v4.35/bin/bin/../../lib/gcc/pic32c/8.3.1/../../../../pic32c/lib/arm/v5te/nofp\libg-musl.a(strlen.o)
 .data          0x00000000        0x0 c:/program files/microchip/xc32/v4.35/bin/bin/../../lib/gcc/pic32c/8.3.1/../../../../pic32c/lib/arm/v5te/nofp\libg-musl.a(strlen.o)
 .bss           0x00000000        0x0 c:/program files/microchip/xc32/v4.35/bin/bin/../../lib/gcc/pic32c/8.3.1/../../../../pic32c/lib/arm/v5te/nofp\libg-musl.a(strlen.o)
 .xc_stack_usage
                0x00000000       0x14 c:/program files/microchip/xc32/v4.35/bin/bin/../../lib/gcc/pic32c/8.3.1/../../../../pic32c/lib/arm/v5te/nofp\libg-musl.a(strlen.o)
 .xc_stack_usage.hdr
                0x00000000        0xe c:/program files/microchip/xc32/v4.35/bin/bin/../../lib/gcc/pic32c/8.3.1/../../../../pic32c/lib/arm/v5te/nofp\libg-musl.a(strlen.o)
 .text          0x00000000        0x0 c:/program files/microchip/xc32/v4.35/bin/bin/../../lib/gcc/pic32c/8.3.1/../../../../pic32c/lib/arm/v5te/nofp\libg-musl.a(tolower.o)
 .data          0x00000000        0x0 c:/program files/microchip/xc32/v4.35/bin/bin/../../lib/gcc/pic32c/8.3.1/../../../../pic32c/lib/arm/v5te/nofp\libg-musl.a(tolower.o)
 .bss           0x00000000        0x0 c:/program files/microchip/xc32/v4.35/bin/bin/../../lib/gcc/pic32c/8.3.1/../../../../pic32c/lib/arm/v5te/nofp\libg-musl.a(tolower.o)
 .xc_stack_usage
                0x00000000       0x2e c:/program files/microchip/xc32/v4.35/bin/bin/../../lib/gcc/pic32c/8.3.1/../../../../pic32c/lib/arm/v5te/nofp\libg-musl.a(tolower.o)
 .text.__tolower_l
                0x00000000        0x4 c:/program files/microchip/xc32/v4.35/bin/bin/../../lib/gcc/pic32c/8.3.1/../../../../pic32c/lib/arm/v5te/nofp\libg-musl.a(tolower.o)
 .xc_stack_usage.hdr
                0x00000000        0xe c:/program files/microchip/xc32/v4.35/bin/bin/../../lib/gcc/pic32c/8.3.1/../../../../pic32c/lib/arm/v5te/nofp\libg-musl.a(tolower.o)
 .text          0x00000000        0x0 c:/program files/microchip/xc32/v4.35/bin/bin/../../lib/gcc/pic32c/8.3.1/../../../../pic32c/lib/arm/v5te/nofp\libg-musl.a(toupper.o)
 .data          0x00000000        0x0 c:/program files/microchip/xc32/v4.35/bin/bin/../../lib/gcc/pic32c/8.3.1/../../../../pic32c/lib/arm/v5te/nofp\libg-musl.a(toupper.o)
 .bss           0x00000000        0x0 c:/program files/microchip/xc32/v4.35/bin/bin/../../lib/gcc/pic32c/8.3.1/../../../../pic32c/lib/arm/v5te/nofp\libg-musl.a(toupper.o)
 .xc_stack_usage
                0x00000000       0x2e c:/program files/microchip/xc32/v4.35/bin/bin/../../lib/gcc/pic32c/8.3.1/../../../../pic32c/lib/arm/v5te/nofp\libg-musl.a(toupper.o)
 .text.__toupper_l
                0x00000000        0x4 c:/program files/microchip/xc32/v4.35/bin/bin/../../lib/gcc/pic32c/8.3.1/../../../../pic32c/lib/arm/v5te/nofp\libg-musl.a(toupper.o)
 .xc_stack_usage.hdr
                0x00000000        0xe c:/program files/microchip/xc32/v4.35/bin/bin/../../lib/gcc/pic32c/8.3.1/../../../../pic32c/lib/arm/v5te/nofp\libg-musl.a(toupper.o)
 .text          0x00000000        0x0 c:/program files/microchip/xc32/v4.35/bin/bin/../../lib/gcc/pic32c/8.3.1/../../../../pic32c/lib/arm/v5te/nofp\libg-musl.a(__environ.o)
 .data          0x00000000        0x0 c:/program files/microchip/xc32/v4.35/bin/bin/../../lib/gcc/pic32c/8.3.1/../../../../pic32c/lib/arm/v5te/nofp\libg-musl.a(__environ.o)
 .xc_stack_usage.hdr
                0x00000000        0xe c:/program files/microchip/xc32/v4.35/bin/bin/../../lib/gcc/pic32c/8.3.1/../../../../pic32c/lib/arm/v5te/nofp\libg-musl.a(__environ.o)
 .text          0x00000000        0x0 c:/program files/microchip/xc32/v4.35/bin/bin/../../lib/gcc/pic32c/8.3.1/../../../../pic32c/lib/arm/v5te/nofp\libg-musl.a(__errno_location.o)
 .data          0x00000000        0x0 c:/program files/microchip/xc32/v4.35/bin/bin/../../lib/gcc/pic32c/8.3.1/../../../../pic32c/lib/arm/v5te/nofp\libg-musl.a(__errno_location.o)
 .xc_stack_usage.hdr
                0x00000000        0xe c:/program files/microchip/xc32/v4.35/bin/bin/../../lib/gcc/pic32c/8.3.1/../../../../pic32c/lib/arm/v5te/nofp\libg-musl.a(__errno_location.o)
 .text          0x00000000        0x0 c:/program files/microchip/xc32/v4.35/bin/bin/../../lib/gcc/pic32c/8.3.1/../../../../pic32c/lib/arm/v5te/nofp\libg-musl.a(__int_vfprintf.o)
 .data          0x00000000        0x0 c:/program files/microchip/xc32/v4.35/bin/bin/../../lib/gcc/pic32c/8.3.1/../../../../pic32c/lib/arm/v5te/nofp\libg-musl.a(__int_vfprintf.o)
 .bss           0x00000000        0x0 c:/program files/microchip/xc32/v4.35/bin/bin/../../lib/gcc/pic32c/8.3.1/../../../../pic32c/lib/arm/v5te/nofp\libg-musl.a(__int_vfprintf.o)
 .xc_stack_usage
                0x00000000       0x18 c:/program files/microchip/xc32/v4.35/bin/bin/../../lib/gcc/pic32c/8.3.1/../../../../pic32c/lib/arm/v5te/nofp\libg-musl.a(__int_vfprintf.o)
 .xc_stack_usage.hdr
                0x00000000        0xe c:/program files/microchip/xc32/v4.35/bin/bin/../../lib/gcc/pic32c/8.3.1/../../../../pic32c/lib/arm/v5te/nofp\libg-musl.a(__int_vfprintf.o)
 .text          0x00000000        0x0 c:/program files/microchip/xc32/v4.35/bin/bin/../../lib/gcc/pic32c/8.3.1/../../../../pic32c/lib/arm/v5te/nofp\libg-musl.a(__int_vsprintf.o)
 .data          0x00000000        0x0 c:/program files/microchip/xc32/v4.35/bin/bin/../../lib/gcc/pic32c/8.3.1/../../../../pic32c/lib/arm/v5te/nofp\libg-musl.a(__int_vsprintf.o)
 .bss           0x00000000        0x0 c:/program files/microchip/xc32/v4.35/bin/bin/../../lib/gcc/pic32c/8.3.1/../../../../pic32c/lib/arm/v5te/nofp\libg-musl.a(__int_vsprintf.o)
 .xc_stack_usage
                0x00000000       0x18 c:/program files/microchip/xc32/v4.35/bin/bin/../../lib/gcc/pic32c/8.3.1/../../../../pic32c/lib/arm/v5te/nofp\libg-musl.a(__int_vsprintf.o)
 .xc_stack_usage.hdr
                0x00000000        0xe c:/program files/microchip/xc32/v4.35/bin/bin/../../lib/gcc/pic32c/8.3.1/../../../../pic32c/lib/arm/v5te/nofp\libg-musl.a(__int_vsprintf.o)
 .text          0x00000000        0x0 c:/program files/microchip/xc32/v4.35/bin/bin/../../lib/gcc/pic32c/8.3.1/../../../../pic32c/lib/arm/v5te/nofp\libg-musl.a(fputs.o)
 .data          0x00000000        0x0 c:/program files/microchip/xc32/v4.35/bin/bin/../../lib/gcc/pic32c/8.3.1/../../../../pic32c/lib/arm/v5te/nofp\libg-musl.a(fputs.o)
 .bss           0x00000000        0x0 c:/program files/microchip/xc32/v4.35/bin/bin/../../lib/gcc/pic32c/8.3.1/../../../../pic32c/lib/arm/v5te/nofp\libg-musl.a(fputs.o)
 .xc_stack_usage
                0x00000000       0x13 c:/program files/microchip/xc32/v4.35/bin/bin/../../lib/gcc/pic32c/8.3.1/../../../../pic32c/lib/arm/v5te/nofp\libg-musl.a(fputs.o)
 .xc_stack_usage.hdr
                0x00000000        0xe c:/program files/microchip/xc32/v4.35/bin/bin/../../lib/gcc/pic32c/8.3.1/../../../../pic32c/lib/arm/v5te/nofp\libg-musl.a(fputs.o)
 .text          0x00000000        0x0 c:/program files/microchip/xc32/v4.35/bin/bin/../../lib/gcc/pic32c/8.3.1/../../../../pic32c/lib/arm/v5te/nofp\libg-musl.a(__cvt_u.o)
 .data          0x00000000        0x0 c:/program files/microchip/xc32/v4.35/bin/bin/../../lib/gcc/pic32c/8.3.1/../../../../pic32c/lib/arm/v5te/nofp\libg-musl.a(__cvt_u.o)
 .bss           0x00000000        0x0 c:/program files/microchip/xc32/v4.35/bin/bin/../../lib/gcc/pic32c/8.3.1/../../../../pic32c/lib/arm/v5te/nofp\libg-musl.a(__cvt_u.o)
 .xc_stack_usage
                0x00000000       0x15 c:/program files/microchip/xc32/v4.35/bin/bin/../../lib/gcc/pic32c/8.3.1/../../../../pic32c/lib/arm/v5te/nofp\libg-musl.a(__cvt_u.o)
 .xc_stack_usage.hdr
                0x00000000        0xe c:/program files/microchip/xc32/v4.35/bin/bin/../../lib/gcc/pic32c/8.3.1/../../../../pic32c/lib/arm/v5te/nofp\libg-musl.a(__cvt_u.o)
 .text          0x00000000        0x0 c:/program files/microchip/xc32/v4.35/bin/bin/../../lib/gcc/pic32c/8.3.1/../../../../pic32c/lib/arm/v5te/nofp\libg-musl.a(__io_init_needed.o)
 .data          0x00000000        0x0 c:/program files/microchip/xc32/v4.35/bin/bin/../../lib/gcc/pic32c/8.3.1/../../../../pic32c/lib/arm/v5te/nofp\libg-musl.a(__io_init_needed.o)
 .bss           0x00000000        0x0 c:/program files/microchip/xc32/v4.35/bin/bin/../../lib/gcc/pic32c/8.3.1/../../../../pic32c/lib/arm/v5te/nofp\libg-musl.a(__io_init_needed.o)
 .xc_stack_usage
                0x00000000       0x40 c:/program files/microchip/xc32/v4.35/bin/bin/../../lib/gcc/pic32c/8.3.1/../../../../pic32c/lib/arm/v5te/nofp\libg-musl.a(__io_init_needed.o)
 .xc_stack_usage.hdr
                0x00000000        0xe c:/program files/microchip/xc32/v4.35/bin/bin/../../lib/gcc/pic32c/8.3.1/../../../../pic32c/lib/arm/v5te/nofp\libg-musl.a(__io_init_needed.o)
 .debug_info    0x00000000      0x355 c:/program files/microchip/xc32/v4.35/bin/bin/../../lib/gcc/pic32c/8.3.1/../../../../pic32c/lib/arm/v5te/nofp\libg-musl.a(__io_init_needed.o)
 .debug_abbrev  0x00000000       0x79 c:/program files/microchip/xc32/v4.35/bin/bin/../../lib/gcc/pic32c/8.3.1/../../../../pic32c/lib/arm/v5te/nofp\libg-musl.a(__io_init_needed.o)
 .debug_aranges
                0x00000000       0x28 c:/program files/microchip/xc32/v4.35/bin/bin/../../lib/gcc/pic32c/8.3.1/../../../../pic32c/lib/arm/v5te/nofp\libg-musl.a(__io_init_needed.o)
 .debug_ranges  0x00000000       0x18 c:/program files/microchip/xc32/v4.35/bin/bin/../../lib/gcc/pic32c/8.3.1/../../../../pic32c/lib/arm/v5te/nofp\libg-musl.a(__io_init_needed.o)
 .debug_line    0x00000000      0x12a c:/program files/microchip/xc32/v4.35/bin/bin/../../lib/gcc/pic32c/8.3.1/../../../../pic32c/lib/arm/v5te/nofp\libg-musl.a(__io_init_needed.o)
 .debug_str     0x00000000       0x25 c:/program files/microchip/xc32/v4.35/bin/bin/../../lib/gcc/pic32c/8.3.1/../../../../pic32c/lib/arm/v5te/nofp\libg-musl.a(__io_init_needed.o)
 .comment       0x00000000       0x2c c:/program files/microchip/xc32/v4.35/bin/bin/../../lib/gcc/pic32c/8.3.1/../../../../pic32c/lib/arm/v5te/nofp\libg-musl.a(__io_init_needed.o)
 .note.GNU-stack
                0x00000000        0x0 c:/program files/microchip/xc32/v4.35/bin/bin/../../lib/gcc/pic32c/8.3.1/../../../../pic32c/lib/arm/v5te/nofp\libg-musl.a(__io_init_needed.o)
 .debug_frame   0x00000000       0x30 c:/program files/microchip/xc32/v4.35/bin/bin/../../lib/gcc/pic32c/8.3.1/../../../../pic32c/lib/arm/v5te/nofp\libg-musl.a(__io_init_needed.o)
 .ARM.attributes
                0x00000000       0x2d c:/program files/microchip/xc32/v4.35/bin/bin/../../lib/gcc/pic32c/8.3.1/../../../../pic32c/lib/arm/v5te/nofp\libg-musl.a(__io_init_needed.o)
 .text          0x00000000        0x0 c:/program files/microchip/xc32/v4.35/bin/bin/../../lib/gcc/pic32c/8.3.1/../../../../pic32c/lib/arm/v5te/nofp\libg-musl.a(__io_rw_needed.o)
 .data          0x00000000        0x0 c:/program files/microchip/xc32/v4.35/bin/bin/../../lib/gcc/pic32c/8.3.1/../../../../pic32c/lib/arm/v5te/nofp\libg-musl.a(__io_rw_needed.o)
 .bss           0x00000000        0x0 c:/program files/microchip/xc32/v4.35/bin/bin/../../lib/gcc/pic32c/8.3.1/../../../../pic32c/lib/arm/v5te/nofp\libg-musl.a(__io_rw_needed.o)
 .xc_stack_usage
                0x00000000       0x1c c:/program files/microchip/xc32/v4.35/bin/bin/../../lib/gcc/pic32c/8.3.1/../../../../pic32c/lib/arm/v5te/nofp\libg-musl.a(__io_rw_needed.o)
 .xc_stack_usage.hdr
                0x00000000        0xe c:/program files/microchip/xc32/v4.35/bin/bin/../../lib/gcc/pic32c/8.3.1/../../../../pic32c/lib/arm/v5te/nofp\libg-musl.a(__io_rw_needed.o)
 .debug_info    0x00000000      0x354 c:/program files/microchip/xc32/v4.35/bin/bin/../../lib/gcc/pic32c/8.3.1/../../../../pic32c/lib/arm/v5te/nofp\libg-musl.a(__io_rw_needed.o)
 .debug_abbrev  0x00000000       0x6a c:/program files/microchip/xc32/v4.35/bin/bin/../../lib/gcc/pic32c/8.3.1/../../../../pic32c/lib/arm/v5te/nofp\libg-musl.a(__io_rw_needed.o)
 .debug_loc     0x00000000       0x2c c:/program files/microchip/xc32/v4.35/bin/bin/../../lib/gcc/pic32c/8.3.1/../../../../pic32c/lib/arm/v5te/nofp\libg-musl.a(__io_rw_needed.o)
 .debug_aranges
                0x00000000       0x20 c:/program files/microchip/xc32/v4.35/bin/bin/../../lib/gcc/pic32c/8.3.1/../../../../pic32c/lib/arm/v5te/nofp\libg-musl.a(__io_rw_needed.o)
 .debug_ranges  0x00000000       0x10 c:/program files/microchip/xc32/v4.35/bin/bin/../../lib/gcc/pic32c/8.3.1/../../../../pic32c/lib/arm/v5te/nofp\libg-musl.a(__io_rw_needed.o)
 .debug_line    0x00000000      0x136 c:/program files/microchip/xc32/v4.35/bin/bin/../../lib/gcc/pic32c/8.3.1/../../../../pic32c/lib/arm/v5te/nofp\libg-musl.a(__io_rw_needed.o)
 .debug_str     0x00000000       0x4d c:/program files/microchip/xc32/v4.35/bin/bin/../../lib/gcc/pic32c/8.3.1/../../../../pic32c/lib/arm/v5te/nofp\libg-musl.a(__io_rw_needed.o)
 .comment       0x00000000       0x2c c:/program files/microchip/xc32/v4.35/bin/bin/../../lib/gcc/pic32c/8.3.1/../../../../pic32c/lib/arm/v5te/nofp\libg-musl.a(__io_rw_needed.o)
 .note.GNU-stack
                0x00000000        0x0 c:/program files/microchip/xc32/v4.35/bin/bin/../../lib/gcc/pic32c/8.3.1/../../../../pic32c/lib/arm/v5te/nofp\libg-musl.a(__io_rw_needed.o)
 .debug_frame   0x00000000       0x2c c:/program files/microchip/xc32/v4.35/bin/bin/../../lib/gcc/pic32c/8.3.1/../../../../pic32c/lib/arm/v5te/nofp\libg-musl.a(__io_rw_needed.o)
 .ARM.attributes
                0x00000000       0x2d c:/program files/microchip/xc32/v4.35/bin/bin/../../lib/gcc/pic32c/8.3.1/../../../../pic32c/lib/arm/v5te/nofp\libg-musl.a(__io_rw_needed.o)
 .text          0x00000000        0x0 c:/program files/microchip/xc32/v4.35/bin/bin/../../lib/gcc/pic32c/8.3.1/../../../../pic32c/lib/arm/v5te/nofp\libg-musl.a(__pop_float.o)
 .data          0x00000000        0x0 c:/program files/microchip/xc32/v4.35/bin/bin/../../lib/gcc/pic32c/8.3.1/../../../../pic32c/lib/arm/v5te/nofp\libg-musl.a(__pop_float.o)
 .bss           0x00000000        0x0 c:/program files/microchip/xc32/v4.35/bin/bin/../../lib/gcc/pic32c/8.3.1/../../../../pic32c/lib/arm/v5te/nofp\libg-musl.a(__pop_float.o)
 .xc_stack_usage
                0x00000000       0x19 c:/program files/microchip/xc32/v4.35/bin/bin/../../lib/gcc/pic32c/8.3.1/../../../../pic32c/lib/arm/v5te/nofp\libg-musl.a(__pop_float.o)
 .xc_stack_usage.hdr
                0x00000000        0xe c:/program files/microchip/xc32/v4.35/bin/bin/../../lib/gcc/pic32c/8.3.1/../../../../pic32c/lib/arm/v5te/nofp\libg-musl.a(__pop_float.o)
 .text          0x00000000        0x0 c:/program files/microchip/xc32/v4.35/bin/bin/../../lib/gcc/pic32c/8.3.1/../../../../pic32c/lib/arm/v5te/nofp\libg-musl.a(__stdio_read.o)
 .data          0x00000000        0x0 c:/program files/microchip/xc32/v4.35/bin/bin/../../lib/gcc/pic32c/8.3.1/../../../../pic32c/lib/arm/v5te/nofp\libg-musl.a(__stdio_read.o)
 .bss           0x00000000        0x0 c:/program files/microchip/xc32/v4.35/bin/bin/../../lib/gcc/pic32c/8.3.1/../../../../pic32c/lib/arm/v5te/nofp\libg-musl.a(__stdio_read.o)
 .xc_stack_usage
                0x00000000       0x1a c:/program files/microchip/xc32/v4.35/bin/bin/../../lib/gcc/pic32c/8.3.1/../../../../pic32c/lib/arm/v5te/nofp\libg-musl.a(__stdio_read.o)
 .xc_stack_usage.hdr
                0x00000000        0xe c:/program files/microchip/xc32/v4.35/bin/bin/../../lib/gcc/pic32c/8.3.1/../../../../pic32c/lib/arm/v5te/nofp\libg-musl.a(__stdio_read.o)
 .text          0x00000000        0x0 c:/program files/microchip/xc32/v4.35/bin/bin/../../lib/gcc/pic32c/8.3.1/../../../../pic32c/lib/arm/v5te/nofp\libg-musl.a(__towrite_rw.o)
 .data          0x00000000        0x0 c:/program files/microchip/xc32/v4.35/bin/bin/../../lib/gcc/pic32c/8.3.1/../../../../pic32c/lib/arm/v5te/nofp\libg-musl.a(__towrite_rw.o)
 .bss           0x00000000        0x0 c:/program files/microchip/xc32/v4.35/bin/bin/../../lib/gcc/pic32c/8.3.1/../../../../pic32c/lib/arm/v5te/nofp\libg-musl.a(__towrite_rw.o)
 .xc_stack_usage
                0x00000000       0x1a c:/program files/microchip/xc32/v4.35/bin/bin/../../lib/gcc/pic32c/8.3.1/../../../../pic32c/lib/arm/v5te/nofp\libg-musl.a(__towrite_rw.o)
 .xc_stack_usage.hdr
                0x00000000        0xe c:/program files/microchip/xc32/v4.35/bin/bin/../../lib/gcc/pic32c/8.3.1/../../../../pic32c/lib/arm/v5te/nofp\libg-musl.a(__towrite_rw.o)
 .text          0x00000000        0x0 c:/program files/microchip/xc32/v4.35/bin/bin/../../lib/gcc/pic32c/8.3.1/../../../../pic32c/lib/arm/v5te/nofp\libg-musl.a(fwrite.o)
 .data          0x00000000        0x0 c:/program files/microchip/xc32/v4.35/bin/bin/../../lib/gcc/pic32c/8.3.1/../../../../pic32c/lib/arm/v5te/nofp\libg-musl.a(fwrite.o)
 .bss           0x00000000        0x0 c:/program files/microchip/xc32/v4.35/bin/bin/../../lib/gcc/pic32c/8.3.1/../../../../pic32c/lib/arm/v5te/nofp\libg-musl.a(fwrite.o)
 .xc_stack_usage
                0x00000000       0x2e c:/program files/microchip/xc32/v4.35/bin/bin/../../lib/gcc/pic32c/8.3.1/../../../../pic32c/lib/arm/v5te/nofp\libg-musl.a(fwrite.o)
 .text.__fwrite_min
                0x00000000        0x8 c:/program files/microchip/xc32/v4.35/bin/bin/../../lib/gcc/pic32c/8.3.1/../../../../pic32c/lib/arm/v5te/nofp\libg-musl.a(fwrite.o)
 .xc_stack_usage.hdr
                0x00000000        0xe c:/program files/microchip/xc32/v4.35/bin/bin/../../lib/gcc/pic32c/8.3.1/../../../../pic32c/lib/arm/v5te/nofp\libg-musl.a(fwrite.o)
 .text          0x00000000        0x0 c:/program files/microchip/xc32/v4.35/bin/bin/../../lib/gcc/pic32c/8.3.1/../../../../pic32c/lib/arm/v5te/nofp\libg-musl.a(putc.o)
 .data          0x00000000        0x0 c:/program files/microchip/xc32/v4.35/bin/bin/../../lib/gcc/pic32c/8.3.1/../../../../pic32c/lib/arm/v5te/nofp\libg-musl.a(putc.o)
 .bss           0x00000000        0x0 c:/program files/microchip/xc32/v4.35/bin/bin/../../lib/gcc/pic32c/8.3.1/../../../../pic32c/lib/arm/v5te/nofp\libg-musl.a(putc.o)
 .xc_stack_usage
                0x00000000       0x4f c:/program files/microchip/xc32/v4.35/bin/bin/../../lib/gcc/pic32c/8.3.1/../../../../pic32c/lib/arm/v5te/nofp\libg-musl.a(putc.o)
 .xc_stack_usage.hdr
                0x00000000        0xe c:/program files/microchip/xc32/v4.35/bin/bin/../../lib/gcc/pic32c/8.3.1/../../../../pic32c/lib/arm/v5te/nofp\libg-musl.a(putc.o)
 .text          0x00000000        0x0 c:/program files/microchip/xc32/v4.35/bin/bin/../../lib/gcc/pic32c/8.3.1/../../../../pic32c/lib/arm/v5te/nofp\libg-musl.a(setvbuf.o)
 .data          0x00000000        0x0 c:/program files/microchip/xc32/v4.35/bin/bin/../../lib/gcc/pic32c/8.3.1/../../../../pic32c/lib/arm/v5te/nofp\libg-musl.a(setvbuf.o)
 .bss           0x00000000        0x0 c:/program files/microchip/xc32/v4.35/bin/bin/../../lib/gcc/pic32c/8.3.1/../../../../pic32c/lib/arm/v5te/nofp\libg-musl.a(setvbuf.o)
 .xc_stack_usage
                0x00000000       0x36 c:/program files/microchip/xc32/v4.35/bin/bin/../../lib/gcc/pic32c/8.3.1/../../../../pic32c/lib/arm/v5te/nofp\libg-musl.a(setvbuf.o)
 .xc_stack_usage.hdr
                0x00000000        0xe c:/program files/microchip/xc32/v4.35/bin/bin/../../lib/gcc/pic32c/8.3.1/../../../../pic32c/lib/arm/v5te/nofp\libg-musl.a(setvbuf.o)
 .text          0x00000000        0x0 c:/program files/microchip/xc32/v4.35/bin/bin/../../lib/gcc/pic32c/8.3.1/../../../../pic32c/lib/arm/v5te/nofp\libg-musl.a(readv.o)
 .data          0x00000000        0x0 c:/program files/microchip/xc32/v4.35/bin/bin/../../lib/gcc/pic32c/8.3.1/../../../../pic32c/lib/arm/v5te/nofp\libg-musl.a(readv.o)
 .bss           0x00000000        0x0 c:/program files/microchip/xc32/v4.35/bin/bin/../../lib/gcc/pic32c/8.3.1/../../../../pic32c/lib/arm/v5te/nofp\libg-musl.a(readv.o)
 .xc_stack_usage
                0x00000000       0x15 c:/program files/microchip/xc32/v4.35/bin/bin/../../lib/gcc/pic32c/8.3.1/../../../../pic32c/lib/arm/v5te/nofp\libg-musl.a(readv.o)
 .xc_stack_usage.hdr
                0x00000000        0xe c:/program files/microchip/xc32/v4.35/bin/bin/../../lib/gcc/pic32c/8.3.1/../../../../pic32c/lib/arm/v5te/nofp\libg-musl.a(readv.o)
 .text          0x00000000        0x0 c:/program files/microchip/xc32/v4.35/bin/bin/../../lib/gcc/pic32c/8.3.1/../../../../pic32c/lib/arm/v5te/nofp\libg-musl.a(malloc.o)
 .data          0x00000000        0x0 c:/program files/microchip/xc32/v4.35/bin/bin/../../lib/gcc/pic32c/8.3.1/../../../../pic32c/lib/arm/v5te/nofp\libg-musl.a(malloc.o)
 .xc_stack_usage
                0x00000000       0xeb c:/program files/microchip/xc32/v4.35/bin/bin/../../lib/gcc/pic32c/8.3.1/../../../../pic32c/lib/arm/v5te/nofp\libg-musl.a(malloc.o)
 .text.__malloc0
                0x00000000       0x40 c:/program files/microchip/xc32/v4.35/bin/bin/../../lib/gcc/pic32c/8.3.1/../../../../pic32c/lib/arm/v5te/nofp\libg-musl.a(malloc.o)
 .text.realloc  0x00000000       0xe0 c:/program files/microchip/xc32/v4.35/bin/bin/../../lib/gcc/pic32c/8.3.1/../../../../pic32c/lib/arm/v5te/nofp\libg-musl.a(malloc.o)
 .xc_stack_usage.hdr
                0x00000000        0xe c:/program files/microchip/xc32/v4.35/bin/bin/../../lib/gcc/pic32c/8.3.1/../../../../pic32c/lib/arm/v5te/nofp\libg-musl.a(malloc.o)
 .text          0x00000000        0x0 c:/program files/microchip/xc32/v4.35/bin/bin/../../lib/gcc/pic32c/8.3.1/../../../../pic32c/lib/arm/v5te/nofp\libg-musl.a(expand_heap.o)
 .data          0x00000000        0x0 c:/program files/microchip/xc32/v4.35/bin/bin/../../lib/gcc/pic32c/8.3.1/../../../../pic32c/lib/arm/v5te/nofp\libg-musl.a(expand_heap.o)
 .bss           0x00000000        0x0 c:/program files/microchip/xc32/v4.35/bin/bin/../../lib/gcc/pic32c/8.3.1/../../../../pic32c/lib/arm/v5te/nofp\libg-musl.a(expand_heap.o)
 .xc_stack_usage
                0x00000000       0x1b c:/program files/microchip/xc32/v4.35/bin/bin/../../lib/gcc/pic32c/8.3.1/../../../../pic32c/lib/arm/v5te/nofp\libg-musl.a(expand_heap.o)
 .xc_stack_usage.hdr
                0x00000000        0xe c:/program files/microchip/xc32/v4.35/bin/bin/../../lib/gcc/pic32c/8.3.1/../../../../pic32c/lib/arm/v5te/nofp\libg-musl.a(expand_heap.o)
 .text          0x00000000        0x0 c:/program files/microchip/xc32/v4.35/bin/bin/../../lib/gcc/pic32c/8.3.1/../../../../pic32c/lib/arm/v5te/nofp\libg-musl.a(__int_vsnprintf.o)
 .data          0x00000000        0x0 c:/program files/microchip/xc32/v4.35/bin/bin/../../lib/gcc/pic32c/8.3.1/../../../../pic32c/lib/arm/v5te/nofp\libg-musl.a(__int_vsnprintf.o)
 .bss           0x00000000        0x0 c:/program files/microchip/xc32/v4.35/bin/bin/../../lib/gcc/pic32c/8.3.1/../../../../pic32c/lib/arm/v5te/nofp\libg-musl.a(__int_vsnprintf.o)
 .xc_stack_usage
                0x00000000       0x19 c:/program files/microchip/xc32/v4.35/bin/bin/../../lib/gcc/pic32c/8.3.1/../../../../pic32c/lib/arm/v5te/nofp\libg-musl.a(__int_vsnprintf.o)
 .xc_stack_usage.hdr
                0x00000000        0xe c:/program files/microchip/xc32/v4.35/bin/bin/../../lib/gcc/pic32c/8.3.1/../../../../pic32c/lib/arm/v5te/nofp\libg-musl.a(__int_vsnprintf.o)
 .text          0x00000000        0x0 c:/program files/microchip/xc32/v4.35/bin/bin/../../lib/gcc/pic32c/8.3.1/../../../../pic32c/lib/arm/v5te/nofp\libg-musl.a(__fopen_rw.o)
 .data          0x00000000        0x0 c:/program files/microchip/xc32/v4.35/bin/bin/../../lib/gcc/pic32c/8.3.1/../../../../pic32c/lib/arm/v5te/nofp\libg-musl.a(__fopen_rw.o)
 .bss           0x00000000        0x0 c:/program files/microchip/xc32/v4.35/bin/bin/../../lib/gcc/pic32c/8.3.1/../../../../pic32c/lib/arm/v5te/nofp\libg-musl.a(__fopen_rw.o)
 .xc_stack_usage
                0x00000000       0x18 c:/program files/microchip/xc32/v4.35/bin/bin/../../lib/gcc/pic32c/8.3.1/../../../../pic32c/lib/arm/v5te/nofp\libg-musl.a(__fopen_rw.o)
 .text.__fopen_rw
                0x00000000       0x74 c:/program files/microchip/xc32/v4.35/bin/bin/../../lib/gcc/pic32c/8.3.1/../../../../pic32c/lib/arm/v5te/nofp\libg-musl.a(__fopen_rw.o)
 .xc_stack_usage.hdr
                0x00000000        0xe c:/program files/microchip/xc32/v4.35/bin/bin/../../lib/gcc/pic32c/8.3.1/../../../../pic32c/lib/arm/v5te/nofp\libg-musl.a(__fopen_rw.o)
 .debug_info    0x00000000      0x680 c:/program files/microchip/xc32/v4.35/bin/bin/../../lib/gcc/pic32c/8.3.1/../../../../pic32c/lib/arm/v5te/nofp\libg-musl.a(__fopen_rw.o)
 .debug_abbrev  0x00000000      0x110 c:/program files/microchip/xc32/v4.35/bin/bin/../../lib/gcc/pic32c/8.3.1/../../../../pic32c/lib/arm/v5te/nofp\libg-musl.a(__fopen_rw.o)
 .debug_loc     0x00000000       0x42 c:/program files/microchip/xc32/v4.35/bin/bin/../../lib/gcc/pic32c/8.3.1/../../../../pic32c/lib/arm/v5te/nofp\libg-musl.a(__fopen_rw.o)
 .debug_aranges
                0x00000000       0x20 c:/program files/microchip/xc32/v4.35/bin/bin/../../lib/gcc/pic32c/8.3.1/../../../../pic32c/lib/arm/v5te/nofp\libg-musl.a(__fopen_rw.o)
 .debug_ranges  0x00000000       0x10 c:/program files/microchip/xc32/v4.35/bin/bin/../../lib/gcc/pic32c/8.3.1/../../../../pic32c/lib/arm/v5te/nofp\libg-musl.a(__fopen_rw.o)
 .debug_line    0x00000000      0x290 c:/program files/microchip/xc32/v4.35/bin/bin/../../lib/gcc/pic32c/8.3.1/../../../../pic32c/lib/arm/v5te/nofp\libg-musl.a(__fopen_rw.o)
 .debug_str     0x00000000        0x0 c:/program files/microchip/xc32/v4.35/bin/bin/../../lib/gcc/pic32c/8.3.1/../../../../pic32c/lib/arm/v5te/nofp\libg-musl.a(__fopen_rw.o)
 .comment       0x00000000       0x2c c:/program files/microchip/xc32/v4.35/bin/bin/../../lib/gcc/pic32c/8.3.1/../../../../pic32c/lib/arm/v5te/nofp\libg-musl.a(__fopen_rw.o)
 .note.GNU-stack
                0x00000000        0x0 c:/program files/microchip/xc32/v4.35/bin/bin/../../lib/gcc/pic32c/8.3.1/../../../../pic32c/lib/arm/v5te/nofp\libg-musl.a(__fopen_rw.o)
 .debug_frame   0x00000000       0x28 c:/program files/microchip/xc32/v4.35/bin/bin/../../lib/gcc/pic32c/8.3.1/../../../../pic32c/lib/arm/v5te/nofp\libg-musl.a(__fopen_rw.o)
 .ARM.attributes
                0x00000000       0x2d c:/program files/microchip/xc32/v4.35/bin/bin/../../lib/gcc/pic32c/8.3.1/../../../../pic32c/lib/arm/v5te/nofp\libg-musl.a(__fopen_rw.o)
 .text          0x00000000        0x0 c:/program files/microchip/xc32/v4.35/bin/bin/../../lib/gcc/pic32c/8.3.1/../../../../pic32c/lib/arm/v5te/nofp\libg-musl.a(__ftello_rw.o)
 .data          0x00000000        0x0 c:/program files/microchip/xc32/v4.35/bin/bin/../../lib/gcc/pic32c/8.3.1/../../../../pic32c/lib/arm/v5te/nofp\libg-musl.a(__ftello_rw.o)
 .bss           0x00000000        0x0 c:/program files/microchip/xc32/v4.35/bin/bin/../../lib/gcc/pic32c/8.3.1/../../../../pic32c/lib/arm/v5te/nofp\libg-musl.a(__ftello_rw.o)
 .xc_stack_usage
                0x00000000       0x1d c:/program files/microchip/xc32/v4.35/bin/bin/../../lib/gcc/pic32c/8.3.1/../../../../pic32c/lib/arm/v5te/nofp\libg-musl.a(__ftello_rw.o)
 .text.__ftello_adj_rw
                0x00000000       0x44 c:/program files/microchip/xc32/v4.35/bin/bin/../../lib/gcc/pic32c/8.3.1/../../../../pic32c/lib/arm/v5te/nofp\libg-musl.a(__ftello_rw.o)
 .xc_stack_usage.hdr
                0x00000000        0xe c:/program files/microchip/xc32/v4.35/bin/bin/../../lib/gcc/pic32c/8.3.1/../../../../pic32c/lib/arm/v5te/nofp\libg-musl.a(__ftello_rw.o)
 .debug_info    0x00000000      0x5e1 c:/program files/microchip/xc32/v4.35/bin/bin/../../lib/gcc/pic32c/8.3.1/../../../../pic32c/lib/arm/v5te/nofp\libg-musl.a(__ftello_rw.o)
 .debug_abbrev  0x00000000       0xef c:/program files/microchip/xc32/v4.35/bin/bin/../../lib/gcc/pic32c/8.3.1/../../../../pic32c/lib/arm/v5te/nofp\libg-musl.a(__ftello_rw.o)
 .debug_loc     0x00000000       0x45 c:/program files/microchip/xc32/v4.35/bin/bin/../../lib/gcc/pic32c/8.3.1/../../../../pic32c/lib/arm/v5te/nofp\libg-musl.a(__ftello_rw.o)
 .debug_aranges
                0x00000000       0x20 c:/program files/microchip/xc32/v4.35/bin/bin/../../lib/gcc/pic32c/8.3.1/../../../../pic32c/lib/arm/v5te/nofp\libg-musl.a(__ftello_rw.o)
 .debug_ranges  0x00000000       0x10 c:/program files/microchip/xc32/v4.35/bin/bin/../../lib/gcc/pic32c/8.3.1/../../../../pic32c/lib/arm/v5te/nofp\libg-musl.a(__ftello_rw.o)
 .debug_line    0x00000000      0x1d9 c:/program files/microchip/xc32/v4.35/bin/bin/../../lib/gcc/pic32c/8.3.1/../../../../pic32c/lib/arm/v5te/nofp\libg-musl.a(__ftello_rw.o)
 .debug_str     0x00000000        0x0 c:/program files/microchip/xc32/v4.35/bin/bin/../../lib/gcc/pic32c/8.3.1/../../../../pic32c/lib/arm/v5te/nofp\libg-musl.a(__ftello_rw.o)
 .comment       0x00000000       0x2c c:/program files/microchip/xc32/v4.35/bin/bin/../../lib/gcc/pic32c/8.3.1/../../../../pic32c/lib/arm/v5te/nofp\libg-musl.a(__ftello_rw.o)
 .note.GNU-stack
                0x00000000        0x0 c:/program files/microchip/xc32/v4.35/bin/bin/../../lib/gcc/pic32c/8.3.1/../../../../pic32c/lib/arm/v5te/nofp\libg-musl.a(__ftello_rw.o)
 .debug_frame   0x00000000       0x28 c:/program files/microchip/xc32/v4.35/bin/bin/../../lib/gcc/pic32c/8.3.1/../../../../pic32c/lib/arm/v5te/nofp\libg-musl.a(__ftello_rw.o)
 .ARM.attributes
                0x00000000       0x2d c:/program files/microchip/xc32/v4.35/bin/bin/../../lib/gcc/pic32c/8.3.1/../../../../pic32c/lib/arm/v5te/nofp\libg-musl.a(__ftello_rw.o)
 .text          0x00000000        0x0 c:/program files/microchip/xc32/v4.35/bin/bin/../../lib/gcc/pic32c/8.3.1/../../../../pic32c/lib/arm/v5te/nofp\libg-musl.a(__init_stdio.o)
 .data          0x00000000        0x0 c:/program files/microchip/xc32/v4.35/bin/bin/../../lib/gcc/pic32c/8.3.1/../../../../pic32c/lib/arm/v5te/nofp\libg-musl.a(__init_stdio.o)
 .bss           0x00000000        0x0 c:/program files/microchip/xc32/v4.35/bin/bin/../../lib/gcc/pic32c/8.3.1/../../../../pic32c/lib/arm/v5te/nofp\libg-musl.a(__init_stdio.o)
 .xc_stack_usage
                0x00000000       0x2f c:/program files/microchip/xc32/v4.35/bin/bin/../../lib/gcc/pic32c/8.3.1/../../../../pic32c/lib/arm/v5te/nofp\libg-musl.a(__init_stdio.o)
 .xc_stack_usage.hdr
                0x00000000        0xe c:/program files/microchip/xc32/v4.35/bin/bin/../../lib/gcc/pic32c/8.3.1/../../../../pic32c/lib/arm/v5te/nofp\libg-musl.a(__init_stdio.o)
 .text          0x00000000        0x0 c:/program files/microchip/xc32/v4.35/bin/bin/../../lib/gcc/pic32c/8.3.1/../../../../pic32c/lib/arm/v5te/nofp\libg-musl.a(__io_buf_needed.o)
 .data          0x00000000        0x0 c:/program files/microchip/xc32/v4.35/bin/bin/../../lib/gcc/pic32c/8.3.1/../../../../pic32c/lib/arm/v5te/nofp\libg-musl.a(__io_buf_needed.o)
 .bss           0x00000000        0x0 c:/program files/microchip/xc32/v4.35/bin/bin/../../lib/gcc/pic32c/8.3.1/../../../../pic32c/lib/arm/v5te/nofp\libg-musl.a(__io_buf_needed.o)
 .xc_stack_usage
                0x00000000       0x1d c:/program files/microchip/xc32/v4.35/bin/bin/../../lib/gcc/pic32c/8.3.1/../../../../pic32c/lib/arm/v5te/nofp\libg-musl.a(__io_buf_needed.o)
 .xc_stack_usage.hdr
                0x00000000        0xe c:/program files/microchip/xc32/v4.35/bin/bin/../../lib/gcc/pic32c/8.3.1/../../../../pic32c/lib/arm/v5te/nofp\libg-musl.a(__io_buf_needed.o)
 .debug_info    0x00000000      0x39b c:/program files/microchip/xc32/v4.35/bin/bin/../../lib/gcc/pic32c/8.3.1/../../../../pic32c/lib/arm/v5te/nofp\libg-musl.a(__io_buf_needed.o)
 .debug_abbrev  0x00000000       0x6a c:/program files/microchip/xc32/v4.35/bin/bin/../../lib/gcc/pic32c/8.3.1/../../../../pic32c/lib/arm/v5te/nofp\libg-musl.a(__io_buf_needed.o)
 .debug_loc     0x00000000       0x2c c:/program files/microchip/xc32/v4.35/bin/bin/../../lib/gcc/pic32c/8.3.1/../../../../pic32c/lib/arm/v5te/nofp\libg-musl.a(__io_buf_needed.o)
 .debug_aranges
                0x00000000       0x20 c:/program files/microchip/xc32/v4.35/bin/bin/../../lib/gcc/pic32c/8.3.1/../../../../pic32c/lib/arm/v5te/nofp\libg-musl.a(__io_buf_needed.o)
 .debug_ranges  0x00000000       0x10 c:/program files/microchip/xc32/v4.35/bin/bin/../../lib/gcc/pic32c/8.3.1/../../../../pic32c/lib/arm/v5te/nofp\libg-musl.a(__io_buf_needed.o)
 .debug_line    0x00000000      0x13a c:/program files/microchip/xc32/v4.35/bin/bin/../../lib/gcc/pic32c/8.3.1/../../../../pic32c/lib/arm/v5te/nofp\libg-musl.a(__io_buf_needed.o)
 .debug_str     0x00000000       0x77 c:/program files/microchip/xc32/v4.35/bin/bin/../../lib/gcc/pic32c/8.3.1/../../../../pic32c/lib/arm/v5te/nofp\libg-musl.a(__io_buf_needed.o)
 .comment       0x00000000       0x2c c:/program files/microchip/xc32/v4.35/bin/bin/../../lib/gcc/pic32c/8.3.1/../../../../pic32c/lib/arm/v5te/nofp\libg-musl.a(__io_buf_needed.o)
 .note.GNU-stack
                0x00000000        0x0 c:/program files/microchip/xc32/v4.35/bin/bin/../../lib/gcc/pic32c/8.3.1/../../../../pic32c/lib/arm/v5te/nofp\libg-musl.a(__io_buf_needed.o)
 .debug_frame   0x00000000       0x2c c:/program files/microchip/xc32/v4.35/bin/bin/../../lib/gcc/pic32c/8.3.1/../../../../pic32c/lib/arm/v5te/nofp\libg-musl.a(__io_buf_needed.o)
 .ARM.attributes
                0x00000000       0x2d c:/program files/microchip/xc32/v4.35/bin/bin/../../lib/gcc/pic32c/8.3.1/../../../../pic32c/lib/arm/v5te/nofp\libg-musl.a(__io_buf_needed.o)
 .text          0x00000000        0x0 c:/program files/microchip/xc32/v4.35/bin/bin/../../lib/gcc/pic32c/8.3.1/../../../../pic32c/lib/arm/v5te/nofp\libg-musl.a(__io_file_needed.o)
 .data          0x00000000        0x0 c:/program files/microchip/xc32/v4.35/bin/bin/../../lib/gcc/pic32c/8.3.1/../../../../pic32c/lib/arm/v5te/nofp\libg-musl.a(__io_file_needed.o)
 .bss           0x00000000        0x0 c:/program files/microchip/xc32/v4.35/bin/bin/../../lib/gcc/pic32c/8.3.1/../../../../pic32c/lib/arm/v5te/nofp\libg-musl.a(__io_file_needed.o)
 .xc_stack_usage
                0x00000000       0x1e c:/program files/microchip/xc32/v4.35/bin/bin/../../lib/gcc/pic32c/8.3.1/../../../../pic32c/lib/arm/v5te/nofp\libg-musl.a(__io_file_needed.o)
 .xc_stack_usage.hdr
                0x00000000        0xe c:/program files/microchip/xc32/v4.35/bin/bin/../../lib/gcc/pic32c/8.3.1/../../../../pic32c/lib/arm/v5te/nofp\libg-musl.a(__io_file_needed.o)
 .debug_info    0x00000000      0x312 c:/program files/microchip/xc32/v4.35/bin/bin/../../lib/gcc/pic32c/8.3.1/../../../../pic32c/lib/arm/v5te/nofp\libg-musl.a(__io_file_needed.o)
 .debug_abbrev  0x00000000       0x5f c:/program files/microchip/xc32/v4.35/bin/bin/../../lib/gcc/pic32c/8.3.1/../../../../pic32c/lib/arm/v5te/nofp\libg-musl.a(__io_file_needed.o)
 .debug_aranges
                0x00000000       0x20 c:/program files/microchip/xc32/v4.35/bin/bin/../../lib/gcc/pic32c/8.3.1/../../../../pic32c/lib/arm/v5te/nofp\libg-musl.a(__io_file_needed.o)
 .debug_ranges  0x00000000       0x10 c:/program files/microchip/xc32/v4.35/bin/bin/../../lib/gcc/pic32c/8.3.1/../../../../pic32c/lib/arm/v5te/nofp\libg-musl.a(__io_file_needed.o)
 .debug_line    0x00000000       0xaf c:/program files/microchip/xc32/v4.35/bin/bin/../../lib/gcc/pic32c/8.3.1/../../../../pic32c/lib/arm/v5te/nofp\libg-musl.a(__io_file_needed.o)
 .debug_str     0x00000000        0xd c:/program files/microchip/xc32/v4.35/bin/bin/../../lib/gcc/pic32c/8.3.1/../../../../pic32c/lib/arm/v5te/nofp\libg-musl.a(__io_file_needed.o)
 .comment       0x00000000       0x2c c:/program files/microchip/xc32/v4.35/bin/bin/../../lib/gcc/pic32c/8.3.1/../../../../pic32c/lib/arm/v5te/nofp\libg-musl.a(__io_file_needed.o)
 .note.GNU-stack
                0x00000000        0x0 c:/program files/microchip/xc32/v4.35/bin/bin/../../lib/gcc/pic32c/8.3.1/../../../../pic32c/lib/arm/v5te/nofp\libg-musl.a(__io_file_needed.o)
 .debug_frame   0x00000000       0x20 c:/program files/microchip/xc32/v4.35/bin/bin/../../lib/gcc/pic32c/8.3.1/../../../../pic32c/lib/arm/v5te/nofp\libg-musl.a(__io_file_needed.o)
 .ARM.attributes
                0x00000000       0x2d c:/program files/microchip/xc32/v4.35/bin/bin/../../lib/gcc/pic32c/8.3.1/../../../../pic32c/lib/arm/v5te/nofp\libg-musl.a(__io_file_needed.o)
 .text          0x00000000        0x0 c:/program files/microchip/xc32/v4.35/bin/bin/../../lib/gcc/pic32c/8.3.1/../../../../pic32c/lib/arm/v5te/nofp\libg-musl.a(__io_std_needed.o)
 .data          0x00000000        0x0 c:/program files/microchip/xc32/v4.35/bin/bin/../../lib/gcc/pic32c/8.3.1/../../../../pic32c/lib/arm/v5te/nofp\libg-musl.a(__io_std_needed.o)
 .bss           0x00000000        0x0 c:/program files/microchip/xc32/v4.35/bin/bin/../../lib/gcc/pic32c/8.3.1/../../../../pic32c/lib/arm/v5te/nofp\libg-musl.a(__io_std_needed.o)
 .xc_stack_usage
                0x00000000       0x1d c:/program files/microchip/xc32/v4.35/bin/bin/../../lib/gcc/pic32c/8.3.1/../../../../pic32c/lib/arm/v5te/nofp\libg-musl.a(__io_std_needed.o)
 .xc_stack_usage.hdr
                0x00000000        0xe c:/program files/microchip/xc32/v4.35/bin/bin/../../lib/gcc/pic32c/8.3.1/../../../../pic32c/lib/arm/v5te/nofp\libg-musl.a(__io_std_needed.o)
 .debug_info    0x00000000      0x384 c:/program files/microchip/xc32/v4.35/bin/bin/../../lib/gcc/pic32c/8.3.1/../../../../pic32c/lib/arm/v5te/nofp\libg-musl.a(__io_std_needed.o)
 .debug_abbrev  0x00000000       0x6a c:/program files/microchip/xc32/v4.35/bin/bin/../../lib/gcc/pic32c/8.3.1/../../../../pic32c/lib/arm/v5te/nofp\libg-musl.a(__io_std_needed.o)
 .debug_loc     0x00000000       0x2c c:/program files/microchip/xc32/v4.35/bin/bin/../../lib/gcc/pic32c/8.3.1/../../../../pic32c/lib/arm/v5te/nofp\libg-musl.a(__io_std_needed.o)
 .debug_aranges
                0x00000000       0x20 c:/program files/microchip/xc32/v4.35/bin/bin/../../lib/gcc/pic32c/8.3.1/../../../../pic32c/lib/arm/v5te/nofp\libg-musl.a(__io_std_needed.o)
 .debug_ranges  0x00000000       0x10 c:/program files/microchip/xc32/v4.35/bin/bin/../../lib/gcc/pic32c/8.3.1/../../../../pic32c/lib/arm/v5te/nofp\libg-musl.a(__io_std_needed.o)
 .debug_line    0x00000000      0x139 c:/program files/microchip/xc32/v4.35/bin/bin/../../lib/gcc/pic32c/8.3.1/../../../../pic32c/lib/arm/v5te/nofp\libg-musl.a(__io_std_needed.o)
 .debug_str     0x00000000       0x6b c:/program files/microchip/xc32/v4.35/bin/bin/../../lib/gcc/pic32c/8.3.1/../../../../pic32c/lib/arm/v5te/nofp\libg-musl.a(__io_std_needed.o)
 .comment       0x00000000       0x2c c:/program files/microchip/xc32/v4.35/bin/bin/../../lib/gcc/pic32c/8.3.1/../../../../pic32c/lib/arm/v5te/nofp\libg-musl.a(__io_std_needed.o)
 .note.GNU-stack
                0x00000000        0x0 c:/program files/microchip/xc32/v4.35/bin/bin/../../lib/gcc/pic32c/8.3.1/../../../../pic32c/lib/arm/v5te/nofp\libg-musl.a(__io_std_needed.o)
 .debug_frame   0x00000000       0x2c c:/program files/microchip/xc32/v4.35/bin/bin/../../lib/gcc/pic32c/8.3.1/../../../../pic32c/lib/arm/v5te/nofp\libg-musl.a(__io_std_needed.o)
 .ARM.attributes
                0x00000000       0x2d c:/program files/microchip/xc32/v4.35/bin/bin/../../lib/gcc/pic32c/8.3.1/../../../../pic32c/lib/arm/v5te/nofp\libg-musl.a(__io_std_needed.o)
 .text          0x00000000        0x0 c:/program files/microchip/xc32/v4.35/bin/bin/../../lib/gcc/pic32c/8.3.1/../../../../pic32c/lib/arm/v5te/nofp\libg-musl.a(__out.o)
 .data          0x00000000        0x0 c:/program files/microchip/xc32/v4.35/bin/bin/../../lib/gcc/pic32c/8.3.1/../../../../pic32c/lib/arm/v5te/nofp\libg-musl.a(__out.o)
 .bss           0x00000000        0x0 c:/program files/microchip/xc32/v4.35/bin/bin/../../lib/gcc/pic32c/8.3.1/../../../../pic32c/lib/arm/v5te/nofp\libg-musl.a(__out.o)
 .xc_stack_usage
                0x00000000       0x2d c:/program files/microchip/xc32/v4.35/bin/bin/../../lib/gcc/pic32c/8.3.1/../../../../pic32c/lib/arm/v5te/nofp\libg-musl.a(__out.o)
 .xc_stack_usage.hdr
                0x00000000        0xe c:/program files/microchip/xc32/v4.35/bin/bin/../../lib/gcc/pic32c/8.3.1/../../../../pic32c/lib/arm/v5te/nofp\libg-musl.a(__out.o)
 .text          0x00000000        0x0 c:/program files/microchip/xc32/v4.35/bin/bin/../../lib/gcc/pic32c/8.3.1/../../../../pic32c/lib/arm/v5te/nofp\libg-musl.a(__putc.o)
 .data          0x00000000        0x0 c:/program files/microchip/xc32/v4.35/bin/bin/../../lib/gcc/pic32c/8.3.1/../../../../pic32c/lib/arm/v5te/nofp\libg-musl.a(__putc.o)
 .bss           0x00000000        0x0 c:/program files/microchip/xc32/v4.35/bin/bin/../../lib/gcc/pic32c/8.3.1/../../../../pic32c/lib/arm/v5te/nofp\libg-musl.a(__putc.o)
 .xc_stack_usage
                0x00000000       0x14 c:/program files/microchip/xc32/v4.35/bin/bin/../../lib/gcc/pic32c/8.3.1/../../../../pic32c/lib/arm/v5te/nofp\libg-musl.a(__putc.o)
 .xc_stack_usage.hdr
                0x00000000        0xe c:/program files/microchip/xc32/v4.35/bin/bin/../../lib/gcc/pic32c/8.3.1/../../../../pic32c/lib/arm/v5te/nofp\libg-musl.a(__putc.o)
 .text          0x00000000        0x0 c:/program files/microchip/xc32/v4.35/bin/bin/../../lib/gcc/pic32c/8.3.1/../../../../pic32c/lib/arm/v5te/nofp\libg-musl.a(__stderr.o)
 .data          0x00000000       0x60 c:/program files/microchip/xc32/v4.35/bin/bin/../../lib/gcc/pic32c/8.3.1/../../../../pic32c/lib/arm/v5te/nofp\libg-musl.a(__stderr.o)
 .bss           0x00000000        0x0 c:/program files/microchip/xc32/v4.35/bin/bin/../../lib/gcc/pic32c/8.3.1/../../../../pic32c/lib/arm/v5te/nofp\libg-musl.a(__stderr.o)
 .xc_stack_usage
                0x00000000       0x50 c:/program files/microchip/xc32/v4.35/bin/bin/../../lib/gcc/pic32c/8.3.1/../../../../pic32c/lib/arm/v5te/nofp\libg-musl.a(__stderr.o)
 .text.__get_stderr
                0x00000000        0xc c:/program files/microchip/xc32/v4.35/bin/bin/../../lib/gcc/pic32c/8.3.1/../../../../pic32c/lib/arm/v5te/nofp\libg-musl.a(__stderr.o)
 .xc_stack_usage.hdr
                0x00000000        0xe c:/program files/microchip/xc32/v4.35/bin/bin/../../lib/gcc/pic32c/8.3.1/../../../../pic32c/lib/arm/v5te/nofp\libg-musl.a(__stderr.o)
 .text          0x00000000        0x0 c:/program files/microchip/xc32/v4.35/bin/bin/../../lib/gcc/pic32c/8.3.1/../../../../pic32c/lib/arm/v5te/nofp\libg-musl.a(__stdio_close.o)
 .data          0x00000000        0x0 c:/program files/microchip/xc32/v4.35/bin/bin/../../lib/gcc/pic32c/8.3.1/../../../../pic32c/lib/arm/v5te/nofp\libg-musl.a(__stdio_close.o)
 .bss           0x00000000        0x0 c:/program files/microchip/xc32/v4.35/bin/bin/../../lib/gcc/pic32c/8.3.1/../../../../pic32c/lib/arm/v5te/nofp\libg-musl.a(__stdio_close.o)
 .xc_stack_usage
                0x00000000       0x39 c:/program files/microchip/xc32/v4.35/bin/bin/../../lib/gcc/pic32c/8.3.1/../../../../pic32c/lib/arm/v5te/nofp\libg-musl.a(__stdio_close.o)
 .text.__stdio_close
                0x00000000       0x7c c:/program files/microchip/xc32/v4.35/bin/bin/../../lib/gcc/pic32c/8.3.1/../../../../pic32c/lib/arm/v5te/nofp\libg-musl.a(__stdio_close.o)
 .xc_stack_usage.hdr
                0x00000000        0xe c:/program files/microchip/xc32/v4.35/bin/bin/../../lib/gcc/pic32c/8.3.1/../../../../pic32c/lib/arm/v5te/nofp\libg-musl.a(__stdio_close.o)
 .text          0x00000000        0x0 c:/program files/microchip/xc32/v4.35/bin/bin/../../lib/gcc/pic32c/8.3.1/../../../../pic32c/lib/arm/v5te/nofp\libg-musl.a(__stdio_exit.o)
 .data          0x00000000        0x0 c:/program files/microchip/xc32/v4.35/bin/bin/../../lib/gcc/pic32c/8.3.1/../../../../pic32c/lib/arm/v5te/nofp\libg-musl.a(__stdio_exit.o)
 .bss           0x00000000        0x4 c:/program files/microchip/xc32/v4.35/bin/bin/../../lib/gcc/pic32c/8.3.1/../../../../pic32c/lib/arm/v5te/nofp\libg-musl.a(__stdio_exit.o)
 .xc_stack_usage
                0x00000000       0x45 c:/program files/microchip/xc32/v4.35/bin/bin/../../lib/gcc/pic32c/8.3.1/../../../../pic32c/lib/arm/v5te/nofp\libg-musl.a(__stdio_exit.o)
 .text.__dummy  0x00000000        0x4 c:/program files/microchip/xc32/v4.35/bin/bin/../../lib/gcc/pic32c/8.3.1/../../../../pic32c/lib/arm/v5te/nofp\libg-musl.a(__stdio_exit.o)
 .text.__dummy1
                0x00000000        0x8 c:/program files/microchip/xc32/v4.35/bin/bin/../../lib/gcc/pic32c/8.3.1/../../../../pic32c/lib/arm/v5te/nofp\libg-musl.a(__stdio_exit.o)
 .text.__stdio_exit
                0x00000000       0x48 c:/program files/microchip/xc32/v4.35/bin/bin/../../lib/gcc/pic32c/8.3.1/../../../../pic32c/lib/arm/v5te/nofp\libg-musl.a(__stdio_exit.o)
 .xc_stack_usage.hdr
                0x00000000        0xe c:/program files/microchip/xc32/v4.35/bin/bin/../../lib/gcc/pic32c/8.3.1/../../../../pic32c/lib/arm/v5te/nofp\libg-musl.a(__stdio_exit.o)
 .debug_info    0x00000000      0x57b c:/program files/microchip/xc32/v4.35/bin/bin/../../lib/gcc/pic32c/8.3.1/../../../../pic32c/lib/arm/v5te/nofp\libg-musl.a(__stdio_exit.o)
 .debug_abbrev  0x00000000      0x157 c:/program files/microchip/xc32/v4.35/bin/bin/../../lib/gcc/pic32c/8.3.1/../../../../pic32c/lib/arm/v5te/nofp\libg-musl.a(__stdio_exit.o)
 .debug_loc     0x00000000       0x45 c:/program files/microchip/xc32/v4.35/bin/bin/../../lib/gcc/pic32c/8.3.1/../../../../pic32c/lib/arm/v5te/nofp\libg-musl.a(__stdio_exit.o)
 .debug_aranges
                0x00000000       0x30 c:/program files/microchip/xc32/v4.35/bin/bin/../../lib/gcc/pic32c/8.3.1/../../../../pic32c/lib/arm/v5te/nofp\libg-musl.a(__stdio_exit.o)
 .debug_ranges  0x00000000       0x20 c:/program files/microchip/xc32/v4.35/bin/bin/../../lib/gcc/pic32c/8.3.1/../../../../pic32c/lib/arm/v5te/nofp\libg-musl.a(__stdio_exit.o)
 .debug_line    0x00000000      0x17e c:/program files/microchip/xc32/v4.35/bin/bin/../../lib/gcc/pic32c/8.3.1/../../../../pic32c/lib/arm/v5te/nofp\libg-musl.a(__stdio_exit.o)
 .debug_str     0x00000000        0x0 c:/program files/microchip/xc32/v4.35/bin/bin/../../lib/gcc/pic32c/8.3.1/../../../../pic32c/lib/arm/v5te/nofp\libg-musl.a(__stdio_exit.o)
 .comment       0x00000000       0x2c c:/program files/microchip/xc32/v4.35/bin/bin/../../lib/gcc/pic32c/8.3.1/../../../../pic32c/lib/arm/v5te/nofp\libg-musl.a(__stdio_exit.o)
 .note.GNU-stack
                0x00000000        0x0 c:/program files/microchip/xc32/v4.35/bin/bin/../../lib/gcc/pic32c/8.3.1/../../../../pic32c/lib/arm/v5te/nofp\libg-musl.a(__stdio_exit.o)
 .debug_frame   0x00000000       0x48 c:/program files/microchip/xc32/v4.35/bin/bin/../../lib/gcc/pic32c/8.3.1/../../../../pic32c/lib/arm/v5te/nofp\libg-musl.a(__stdio_exit.o)
 .ARM.attributes
                0x00000000       0x2d c:/program files/microchip/xc32/v4.35/bin/bin/../../lib/gcc/pic32c/8.3.1/../../../../pic32c/lib/arm/v5te/nofp\libg-musl.a(__stdio_exit.o)
 .text          0x00000000        0x0 c:/program files/microchip/xc32/v4.35/bin/bin/../../lib/gcc/pic32c/8.3.1/../../../../pic32c/lib/arm/v5te/nofp\libg-musl.a(__stdio_write.o)
 .data          0x00000000        0x0 c:/program files/microchip/xc32/v4.35/bin/bin/../../lib/gcc/pic32c/8.3.1/../../../../pic32c/lib/arm/v5te/nofp\libg-musl.a(__stdio_write.o)
 .bss           0x00000000        0x0 c:/program files/microchip/xc32/v4.35/bin/bin/../../lib/gcc/pic32c/8.3.1/../../../../pic32c/lib/arm/v5te/nofp\libg-musl.a(__stdio_write.o)
 .xc_stack_usage
                0x00000000       0x42 c:/program files/microchip/xc32/v4.35/bin/bin/../../lib/gcc/pic32c/8.3.1/../../../../pic32c/lib/arm/v5te/nofp\libg-musl.a(__stdio_write.o)
 .xc_stack_usage.hdr
                0x00000000        0xe c:/program files/microchip/xc32/v4.35/bin/bin/../../lib/gcc/pic32c/8.3.1/../../../../pic32c/lib/arm/v5te/nofp\libg-musl.a(__stdio_write.o)
 .text          0x00000000        0x0 c:/program files/microchip/xc32/v4.35/bin/bin/../../lib/gcc/pic32c/8.3.1/../../../../pic32c/lib/arm/v5te/nofp\libg-musl.a(__stdout.o)
 .bss           0x00000000        0x0 c:/program files/microchip/xc32/v4.35/bin/bin/../../lib/gcc/pic32c/8.3.1/../../../../pic32c/lib/arm/v5te/nofp\libg-musl.a(__stdout.o)
 .xc_stack_usage
                0x00000000       0x50 c:/program files/microchip/xc32/v4.35/bin/bin/../../lib/gcc/pic32c/8.3.1/../../../../pic32c/lib/arm/v5te/nofp\libg-musl.a(__stdout.o)
 .text.__dummy  0x00000000        0x4 c:/program files/microchip/xc32/v4.35/bin/bin/../../lib/gcc/pic32c/8.3.1/../../../../pic32c/lib/arm/v5te/nofp\libg-musl.a(__stdout.o)
 .xc_stack_usage.hdr
                0x00000000        0xe c:/program files/microchip/xc32/v4.35/bin/bin/../../lib/gcc/pic32c/8.3.1/../../../../pic32c/lib/arm/v5te/nofp\libg-musl.a(__stdout.o)
 .text          0x00000000        0x0 c:/program files/microchip/xc32/v4.35/bin/bin/../../lib/gcc/pic32c/8.3.1/../../../../pic32c/lib/arm/v5te/nofp\libg-musl.a(__towrite.o)
 .data          0x00000000        0x0 c:/program files/microchip/xc32/v4.35/bin/bin/../../lib/gcc/pic32c/8.3.1/../../../../pic32c/lib/arm/v5te/nofp\libg-musl.a(__towrite.o)
 .bss           0x00000000        0x0 c:/program files/microchip/xc32/v4.35/bin/bin/../../lib/gcc/pic32c/8.3.1/../../../../pic32c/lib/arm/v5te/nofp\libg-musl.a(__towrite.o)
 .xc_stack_usage
                0x00000000       0x2c c:/program files/microchip/xc32/v4.35/bin/bin/../../lib/gcc/pic32c/8.3.1/../../../../pic32c/lib/arm/v5te/nofp\libg-musl.a(__towrite.o)
 .text.__dummy  0x00000000        0x8 c:/program files/microchip/xc32/v4.35/bin/bin/../../lib/gcc/pic32c/8.3.1/../../../../pic32c/lib/arm/v5te/nofp\libg-musl.a(__towrite.o)
 .xc_stack_usage.hdr
                0x00000000        0xe c:/program files/microchip/xc32/v4.35/bin/bin/../../lib/gcc/pic32c/8.3.1/../../../../pic32c/lib/arm/v5te/nofp\libg-musl.a(__towrite.o)
 .text          0x00000000        0x0 c:/program files/microchip/xc32/v4.35/bin/bin/../../lib/gcc/pic32c/8.3.1/../../../../pic32c/lib/arm/v5te/nofp\libg-musl.a(writev.o)
 .data          0x00000000        0x0 c:/program files/microchip/xc32/v4.35/bin/bin/../../lib/gcc/pic32c/8.3.1/../../../../pic32c/lib/arm/v5te/nofp\libg-musl.a(writev.o)
 .bss           0x00000000        0x0 c:/program files/microchip/xc32/v4.35/bin/bin/../../lib/gcc/pic32c/8.3.1/../../../../pic32c/lib/arm/v5te/nofp\libg-musl.a(writev.o)
 .xc_stack_usage
                0x00000000       0x16 c:/program files/microchip/xc32/v4.35/bin/bin/../../lib/gcc/pic32c/8.3.1/../../../../pic32c/lib/arm/v5te/nofp\libg-musl.a(writev.o)
 .xc_stack_usage.hdr
                0x00000000        0xe c:/program files/microchip/xc32/v4.35/bin/bin/../../lib/gcc/pic32c/8.3.1/../../../../pic32c/lib/arm/v5te/nofp\libg-musl.a(writev.o)
 .text          0x00000000        0x0 c:/program files/microchip/xc32/v4.35/bin/bin/../../lib/gcc/pic32c/8.3.1/../../../../pic32c/lib/arm/v5te/nofp\libg-musl.a(__overflow.o)
 .data          0x00000000        0x0 c:/program files/microchip/xc32/v4.35/bin/bin/../../lib/gcc/pic32c/8.3.1/../../../../pic32c/lib/arm/v5te/nofp\libg-musl.a(__overflow.o)
 .bss           0x00000000        0x0 c:/program files/microchip/xc32/v4.35/bin/bin/../../lib/gcc/pic32c/8.3.1/../../../../pic32c/lib/arm/v5te/nofp\libg-musl.a(__overflow.o)
 .xc_stack_usage
                0x00000000       0x18 c:/program files/microchip/xc32/v4.35/bin/bin/../../lib/gcc/pic32c/8.3.1/../../../../pic32c/lib/arm/v5te/nofp\libg-musl.a(__overflow.o)
 .xc_stack_usage.hdr
                0x00000000        0xe c:/program files/microchip/xc32/v4.35/bin/bin/../../lib/gcc/pic32c/8.3.1/../../../../pic32c/lib/arm/v5te/nofp\libg-musl.a(__overflow.o)
 .text          0x00000000        0x0 c:/program files/microchip/xc32/v4.35/bin/bin/../../lib/gcc/pic32c/8.3.1/../../../../pic32c/lib/arm/v5te/nofp\libg-musl.a(__fclose.o)
 .data          0x00000000        0x0 c:/program files/microchip/xc32/v4.35/bin/bin/../../lib/gcc/pic32c/8.3.1/../../../../pic32c/lib/arm/v5te/nofp\libg-musl.a(__fclose.o)
 .bss           0x00000000        0x0 c:/program files/microchip/xc32/v4.35/bin/bin/../../lib/gcc/pic32c/8.3.1/../../../../pic32c/lib/arm/v5te/nofp\libg-musl.a(__fclose.o)
 .xc_stack_usage
                0x00000000       0x16 c:/program files/microchip/xc32/v4.35/bin/bin/../../lib/gcc/pic32c/8.3.1/../../../../pic32c/lib/arm/v5te/nofp\libg-musl.a(__fclose.o)
 .text.__fclose
                0x00000000       0x20 c:/program files/microchip/xc32/v4.35/bin/bin/../../lib/gcc/pic32c/8.3.1/../../../../pic32c/lib/arm/v5te/nofp\libg-musl.a(__fclose.o)
 .xc_stack_usage.hdr
                0x00000000        0xe c:/program files/microchip/xc32/v4.35/bin/bin/../../lib/gcc/pic32c/8.3.1/../../../../pic32c/lib/arm/v5te/nofp\libg-musl.a(__fclose.o)
 .debug_info    0x00000000      0x41b c:/program files/microchip/xc32/v4.35/bin/bin/../../lib/gcc/pic32c/8.3.1/../../../../pic32c/lib/arm/v5te/nofp\libg-musl.a(__fclose.o)
 .debug_abbrev  0x00000000       0xc4 c:/program files/microchip/xc32/v4.35/bin/bin/../../lib/gcc/pic32c/8.3.1/../../../../pic32c/lib/arm/v5te/nofp\libg-musl.a(__fclose.o)
 .debug_loc     0x00000000       0x74 c:/program files/microchip/xc32/v4.35/bin/bin/../../lib/gcc/pic32c/8.3.1/../../../../pic32c/lib/arm/v5te/nofp\libg-musl.a(__fclose.o)
 .debug_aranges
                0x00000000       0x20 c:/program files/microchip/xc32/v4.35/bin/bin/../../lib/gcc/pic32c/8.3.1/../../../../pic32c/lib/arm/v5te/nofp\libg-musl.a(__fclose.o)
 .debug_ranges  0x00000000       0x10 c:/program files/microchip/xc32/v4.35/bin/bin/../../lib/gcc/pic32c/8.3.1/../../../../pic32c/lib/arm/v5te/nofp\libg-musl.a(__fclose.o)
 .debug_line    0x00000000      0x151 c:/program files/microchip/xc32/v4.35/bin/bin/../../lib/gcc/pic32c/8.3.1/../../../../pic32c/lib/arm/v5te/nofp\libg-musl.a(__fclose.o)
 .debug_str     0x00000000        0x0 c:/program files/microchip/xc32/v4.35/bin/bin/../../lib/gcc/pic32c/8.3.1/../../../../pic32c/lib/arm/v5te/nofp\libg-musl.a(__fclose.o)
 .comment       0x00000000       0x2c c:/program files/microchip/xc32/v4.35/bin/bin/../../lib/gcc/pic32c/8.3.1/../../../../pic32c/lib/arm/v5te/nofp\libg-musl.a(__fclose.o)
 .note.GNU-stack
                0x00000000        0x0 c:/program files/microchip/xc32/v4.35/bin/bin/../../lib/gcc/pic32c/8.3.1/../../../../pic32c/lib/arm/v5te/nofp\libg-musl.a(__fclose.o)
 .debug_frame   0x00000000       0x20 c:/program files/microchip/xc32/v4.35/bin/bin/../../lib/gcc/pic32c/8.3.1/../../../../pic32c/lib/arm/v5te/nofp\libg-musl.a(__fclose.o)
 .ARM.attributes
                0x00000000       0x2d c:/program files/microchip/xc32/v4.35/bin/bin/../../lib/gcc/pic32c/8.3.1/../../../../pic32c/lib/arm/v5te/nofp\libg-musl.a(__fclose.o)
 .text          0x00000000        0x0 c:/program files/microchip/xc32/v4.35/bin/bin/../../lib/gcc/pic32c/8.3.1/../../../../pic32c/lib/arm/v5te/nofp\libg-musl.a(__fopen.o)
 .data          0x00000000        0x0 c:/program files/microchip/xc32/v4.35/bin/bin/../../lib/gcc/pic32c/8.3.1/../../../../pic32c/lib/arm/v5te/nofp\libg-musl.a(__fopen.o)
 .bss           0x00000000        0x0 c:/program files/microchip/xc32/v4.35/bin/bin/../../lib/gcc/pic32c/8.3.1/../../../../pic32c/lib/arm/v5te/nofp\libg-musl.a(__fopen.o)
 .xc_stack_usage
                0x00000000       0x43 c:/program files/microchip/xc32/v4.35/bin/bin/../../lib/gcc/pic32c/8.3.1/../../../../pic32c/lib/arm/v5te/nofp\libg-musl.a(__fopen.o)
 .text.__dummy  0x00000000        0x8 c:/program files/microchip/xc32/v4.35/bin/bin/../../lib/gcc/pic32c/8.3.1/../../../../pic32c/lib/arm/v5te/nofp\libg-musl.a(__fopen.o)
 .text.__fopen_std
                0x00000000       0x48 c:/program files/microchip/xc32/v4.35/bin/bin/../../lib/gcc/pic32c/8.3.1/../../../../pic32c/lib/arm/v5te/nofp\libg-musl.a(__fopen.o)
 .text.__fopen  0x00000000        0xc c:/program files/microchip/xc32/v4.35/bin/bin/../../lib/gcc/pic32c/8.3.1/../../../../pic32c/lib/arm/v5te/nofp\libg-musl.a(__fopen.o)
 .xc_stack_usage.hdr
                0x00000000        0xe c:/program files/microchip/xc32/v4.35/bin/bin/../../lib/gcc/pic32c/8.3.1/../../../../pic32c/lib/arm/v5te/nofp\libg-musl.a(__fopen.o)
 .debug_info    0x00000000      0x562 c:/program files/microchip/xc32/v4.35/bin/bin/../../lib/gcc/pic32c/8.3.1/../../../../pic32c/lib/arm/v5te/nofp\libg-musl.a(__fopen.o)
 .debug_abbrev  0x00000000      0x14f c:/program files/microchip/xc32/v4.35/bin/bin/../../lib/gcc/pic32c/8.3.1/../../../../pic32c/lib/arm/v5te/nofp\libg-musl.a(__fopen.o)
 .debug_loc     0x00000000       0x87 c:/program files/microchip/xc32/v4.35/bin/bin/../../lib/gcc/pic32c/8.3.1/../../../../pic32c/lib/arm/v5te/nofp\libg-musl.a(__fopen.o)
 .debug_aranges
                0x00000000       0x30 c:/program files/microchip/xc32/v4.35/bin/bin/../../lib/gcc/pic32c/8.3.1/../../../../pic32c/lib/arm/v5te/nofp\libg-musl.a(__fopen.o)
 .debug_ranges  0x00000000       0x20 c:/program files/microchip/xc32/v4.35/bin/bin/../../lib/gcc/pic32c/8.3.1/../../../../pic32c/lib/arm/v5te/nofp\libg-musl.a(__fopen.o)
 .debug_line    0x00000000      0x21e c:/program files/microchip/xc32/v4.35/bin/bin/../../lib/gcc/pic32c/8.3.1/../../../../pic32c/lib/arm/v5te/nofp\libg-musl.a(__fopen.o)
 .debug_str     0x00000000        0x0 c:/program files/microchip/xc32/v4.35/bin/bin/../../lib/gcc/pic32c/8.3.1/../../../../pic32c/lib/arm/v5te/nofp\libg-musl.a(__fopen.o)
 .comment       0x00000000       0x2c c:/program files/microchip/xc32/v4.35/bin/bin/../../lib/gcc/pic32c/8.3.1/../../../../pic32c/lib/arm/v5te/nofp\libg-musl.a(__fopen.o)
 .note.GNU-stack
                0x00000000        0x0 c:/program files/microchip/xc32/v4.35/bin/bin/../../lib/gcc/pic32c/8.3.1/../../../../pic32c/lib/arm/v5te/nofp\libg-musl.a(__fopen.o)
 .debug_frame   0x00000000       0x50 c:/program files/microchip/xc32/v4.35/bin/bin/../../lib/gcc/pic32c/8.3.1/../../../../pic32c/lib/arm/v5te/nofp\libg-musl.a(__fopen.o)
 .ARM.attributes
                0x00000000       0x2d c:/program files/microchip/xc32/v4.35/bin/bin/../../lib/gcc/pic32c/8.3.1/../../../../pic32c/lib/arm/v5te/nofp\libg-musl.a(__fopen.o)
 .text          0x00000000        0x0 c:/program files/microchip/xc32/v4.35/bin/bin/../../lib/gcc/pic32c/8.3.1/../../../../pic32c/lib/arm/v5te/nofp\libg-musl.a(__fseeko.o)
 .data          0x00000000        0x0 c:/program files/microchip/xc32/v4.35/bin/bin/../../lib/gcc/pic32c/8.3.1/../../../../pic32c/lib/arm/v5te/nofp\libg-musl.a(__fseeko.o)
 .bss           0x00000000        0x0 c:/program files/microchip/xc32/v4.35/bin/bin/../../lib/gcc/pic32c/8.3.1/../../../../pic32c/lib/arm/v5te/nofp\libg-musl.a(__fseeko.o)
 .xc_stack_usage
                0x00000000       0x16 c:/program files/microchip/xc32/v4.35/bin/bin/../../lib/gcc/pic32c/8.3.1/../../../../pic32c/lib/arm/v5te/nofp\libg-musl.a(__fseeko.o)
 .text.__fseeko
                0x00000000        0x8 c:/program files/microchip/xc32/v4.35/bin/bin/../../lib/gcc/pic32c/8.3.1/../../../../pic32c/lib/arm/v5te/nofp\libg-musl.a(__fseeko.o)
 .xc_stack_usage.hdr
                0x00000000        0xe c:/program files/microchip/xc32/v4.35/bin/bin/../../lib/gcc/pic32c/8.3.1/../../../../pic32c/lib/arm/v5te/nofp\libg-musl.a(__fseeko.o)
 .debug_info    0x00000000      0x4d4 c:/program files/microchip/xc32/v4.35/bin/bin/../../lib/gcc/pic32c/8.3.1/../../../../pic32c/lib/arm/v5te/nofp\libg-musl.a(__fseeko.o)
 .debug_abbrev  0x00000000       0xcb c:/program files/microchip/xc32/v4.35/bin/bin/../../lib/gcc/pic32c/8.3.1/../../../../pic32c/lib/arm/v5te/nofp\libg-musl.a(__fseeko.o)
 .debug_loc     0x00000000       0x6f c:/program files/microchip/xc32/v4.35/bin/bin/../../lib/gcc/pic32c/8.3.1/../../../../pic32c/lib/arm/v5te/nofp\libg-musl.a(__fseeko.o)
 .debug_aranges
                0x00000000       0x20 c:/program files/microchip/xc32/v4.35/bin/bin/../../lib/gcc/pic32c/8.3.1/../../../../pic32c/lib/arm/v5te/nofp\libg-musl.a(__fseeko.o)
 .debug_ranges  0x00000000       0x10 c:/program files/microchip/xc32/v4.35/bin/bin/../../lib/gcc/pic32c/8.3.1/../../../../pic32c/lib/arm/v5te/nofp\libg-musl.a(__fseeko.o)
 .debug_line    0x00000000      0x140 c:/program files/microchip/xc32/v4.35/bin/bin/../../lib/gcc/pic32c/8.3.1/../../../../pic32c/lib/arm/v5te/nofp\libg-musl.a(__fseeko.o)
 .debug_str     0x00000000        0x0 c:/program files/microchip/xc32/v4.35/bin/bin/../../lib/gcc/pic32c/8.3.1/../../../../pic32c/lib/arm/v5te/nofp\libg-musl.a(__fseeko.o)
 .comment       0x00000000       0x2c c:/program files/microchip/xc32/v4.35/bin/bin/../../lib/gcc/pic32c/8.3.1/../../../../pic32c/lib/arm/v5te/nofp\libg-musl.a(__fseeko.o)
 .note.GNU-stack
                0x00000000        0x0 c:/program files/microchip/xc32/v4.35/bin/bin/../../lib/gcc/pic32c/8.3.1/../../../../pic32c/lib/arm/v5te/nofp\libg-musl.a(__fseeko.o)
 .debug_frame   0x00000000       0x20 c:/program files/microchip/xc32/v4.35/bin/bin/../../lib/gcc/pic32c/8.3.1/../../../../pic32c/lib/arm/v5te/nofp\libg-musl.a(__fseeko.o)
 .ARM.attributes
                0x00000000       0x2d c:/program files/microchip/xc32/v4.35/bin/bin/../../lib/gcc/pic32c/8.3.1/../../../../pic32c/lib/arm/v5te/nofp\libg-musl.a(__fseeko.o)
 .text          0x00000000        0x0 c:/program files/microchip/xc32/v4.35/bin/bin/../../lib/gcc/pic32c/8.3.1/../../../../pic32c/lib/arm/v5te/nofp\libg-musl.a(__ftello.o)
 .data          0x00000000        0x0 c:/program files/microchip/xc32/v4.35/bin/bin/../../lib/gcc/pic32c/8.3.1/../../../../pic32c/lib/arm/v5te/nofp\libg-musl.a(__ftello.o)
 .bss           0x00000000        0x0 c:/program files/microchip/xc32/v4.35/bin/bin/../../lib/gcc/pic32c/8.3.1/../../../../pic32c/lib/arm/v5te/nofp\libg-musl.a(__ftello.o)
 .xc_stack_usage
                0x00000000       0x2f c:/program files/microchip/xc32/v4.35/bin/bin/../../lib/gcc/pic32c/8.3.1/../../../../pic32c/lib/arm/v5te/nofp\libg-musl.a(__ftello.o)
 .text.__dummy  0x00000000       0x28 c:/program files/microchip/xc32/v4.35/bin/bin/../../lib/gcc/pic32c/8.3.1/../../../../pic32c/lib/arm/v5te/nofp\libg-musl.a(__ftello.o)
 .text.__ftello_adj
                0x00000000        0xc c:/program files/microchip/xc32/v4.35/bin/bin/../../lib/gcc/pic32c/8.3.1/../../../../pic32c/lib/arm/v5te/nofp\libg-musl.a(__ftello.o)
 .xc_stack_usage.hdr
                0x00000000        0xe c:/program files/microchip/xc32/v4.35/bin/bin/../../lib/gcc/pic32c/8.3.1/../../../../pic32c/lib/arm/v5te/nofp\libg-musl.a(__ftello.o)
 .debug_info    0x00000000      0x502 c:/program files/microchip/xc32/v4.35/bin/bin/../../lib/gcc/pic32c/8.3.1/../../../../pic32c/lib/arm/v5te/nofp\libg-musl.a(__ftello.o)
 .debug_abbrev  0x00000000       0xf5 c:/program files/microchip/xc32/v4.35/bin/bin/../../lib/gcc/pic32c/8.3.1/../../../../pic32c/lib/arm/v5te/nofp\libg-musl.a(__ftello.o)
 .debug_loc     0x00000000       0x8f c:/program files/microchip/xc32/v4.35/bin/bin/../../lib/gcc/pic32c/8.3.1/../../../../pic32c/lib/arm/v5te/nofp\libg-musl.a(__ftello.o)
 .debug_aranges
                0x00000000       0x28 c:/program files/microchip/xc32/v4.35/bin/bin/../../lib/gcc/pic32c/8.3.1/../../../../pic32c/lib/arm/v5te/nofp\libg-musl.a(__ftello.o)
 .debug_ranges  0x00000000       0x18 c:/program files/microchip/xc32/v4.35/bin/bin/../../lib/gcc/pic32c/8.3.1/../../../../pic32c/lib/arm/v5te/nofp\libg-musl.a(__ftello.o)
 .debug_line    0x00000000      0x177 c:/program files/microchip/xc32/v4.35/bin/bin/../../lib/gcc/pic32c/8.3.1/../../../../pic32c/lib/arm/v5te/nofp\libg-musl.a(__ftello.o)
 .debug_str     0x00000000        0x0 c:/program files/microchip/xc32/v4.35/bin/bin/../../lib/gcc/pic32c/8.3.1/../../../../pic32c/lib/arm/v5te/nofp\libg-musl.a(__ftello.o)
 .comment       0x00000000       0x2c c:/program files/microchip/xc32/v4.35/bin/bin/../../lib/gcc/pic32c/8.3.1/../../../../pic32c/lib/arm/v5te/nofp\libg-musl.a(__ftello.o)
 .note.GNU-stack
                0x00000000        0x0 c:/program files/microchip/xc32/v4.35/bin/bin/../../lib/gcc/pic32c/8.3.1/../../../../pic32c/lib/arm/v5te/nofp\libg-musl.a(__ftello.o)
 .debug_frame   0x00000000       0x38 c:/program files/microchip/xc32/v4.35/bin/bin/../../lib/gcc/pic32c/8.3.1/../../../../pic32c/lib/arm/v5te/nofp\libg-musl.a(__ftello.o)
 .ARM.attributes
                0x00000000       0x2d c:/program files/microchip/xc32/v4.35/bin/bin/../../lib/gcc/pic32c/8.3.1/../../../../pic32c/lib/arm/v5te/nofp\libg-musl.a(__ftello.o)
 .text          0x00000000        0x0 c:/program files/microchip/xc32/v4.35/bin/bin/../../lib/gcc/pic32c/8.3.1/../../../../pic32c/lib/arm/v5te/nofp\libg-musl.a(__fwrite.o)
 .data          0x00000000        0x0 c:/program files/microchip/xc32/v4.35/bin/bin/../../lib/gcc/pic32c/8.3.1/../../../../pic32c/lib/arm/v5te/nofp\libg-musl.a(__fwrite.o)
 .bss           0x00000000        0x0 c:/program files/microchip/xc32/v4.35/bin/bin/../../lib/gcc/pic32c/8.3.1/../../../../pic32c/lib/arm/v5te/nofp\libg-musl.a(__fwrite.o)
 .xc_stack_usage
                0x00000000       0x36 c:/program files/microchip/xc32/v4.35/bin/bin/../../lib/gcc/pic32c/8.3.1/../../../../pic32c/lib/arm/v5te/nofp\libg-musl.a(__fwrite.o)
 .xc_stack_usage.hdr
                0x00000000        0xe c:/program files/microchip/xc32/v4.35/bin/bin/../../lib/gcc/pic32c/8.3.1/../../../../pic32c/lib/arm/v5te/nofp\libg-musl.a(__fwrite.o)
 .text          0x00000000        0x0 c:/program files/microchip/xc32/v4.35/bin/bin/../../lib/gcc/pic32c/8.3.1/../../../../pic32c/lib/arm/v5te/nofp\libpic32c.a(close.o)
 .data          0x00000000        0x0 c:/program files/microchip/xc32/v4.35/bin/bin/../../lib/gcc/pic32c/8.3.1/../../../../pic32c/lib/arm/v5te/nofp\libpic32c.a(close.o)
 .bss           0x00000000        0x0 c:/program files/microchip/xc32/v4.35/bin/bin/../../lib/gcc/pic32c/8.3.1/../../../../pic32c/lib/arm/v5te/nofp\libpic32c.a(close.o)
 .xc_stack_usage
                0x00000000       0x13 c:/program files/microchip/xc32/v4.35/bin/bin/../../lib/gcc/pic32c/8.3.1/../../../../pic32c/lib/arm/v5te/nofp\libpic32c.a(close.o)
 .gnu.warning.closestub
                0x00000000        0x0 c:/program files/microchip/xc32/v4.35/bin/bin/../../lib/gcc/pic32c/8.3.1/../../../../pic32c/lib/arm/v5te/nofp\libpic32c.a(close.o)
 .xc_stack_usage.hdr
                0x00000000        0xe c:/program files/microchip/xc32/v4.35/bin/bin/../../lib/gcc/pic32c/8.3.1/../../../../pic32c/lib/arm/v5te/nofp\libpic32c.a(close.o)
 .text          0x00000000        0x0 c:/program files/microchip/xc32/v4.35/bin/bin/../../lib/gcc/pic32c/8.3.1/../../../../pic32c/lib/arm/v5te/nofp\libpic32c.a(lseek.o)
 .data          0x00000000        0x0 c:/program files/microchip/xc32/v4.35/bin/bin/../../lib/gcc/pic32c/8.3.1/../../../../pic32c/lib/arm/v5te/nofp\libpic32c.a(lseek.o)
 .bss           0x00000000        0x0 c:/program files/microchip/xc32/v4.35/bin/bin/../../lib/gcc/pic32c/8.3.1/../../../../pic32c/lib/arm/v5te/nofp\libpic32c.a(lseek.o)
 .xc_stack_usage
                0x00000000       0x13 c:/program files/microchip/xc32/v4.35/bin/bin/../../lib/gcc/pic32c/8.3.1/../../../../pic32c/lib/arm/v5te/nofp\libpic32c.a(lseek.o)
 .xc_stack_usage.hdr
                0x00000000        0xe c:/program files/microchip/xc32/v4.35/bin/bin/../../lib/gcc/pic32c/8.3.1/../../../../pic32c/lib/arm/v5te/nofp\libpic32c.a(lseek.o)
 .text          0x00000000        0x0 c:/program files/microchip/xc32/v4.35/bin/bin/../../lib/gcc/pic32c/8.3.1/../../../../pic32c/lib/arm/v5te/nofp\libpic32c.a(sbrk.o)
 .data          0x00000000        0x0 c:/program files/microchip/xc32/v4.35/bin/bin/../../lib/gcc/pic32c/8.3.1/../../../../pic32c/lib/arm/v5te/nofp\libpic32c.a(sbrk.o)
 .xc_stack_usage
                0x00000000       0x13 c:/program files/microchip/xc32/v4.35/bin/bin/../../lib/gcc/pic32c/8.3.1/../../../../pic32c/lib/arm/v5te/nofp\libpic32c.a(sbrk.o)
 .xc_stack_usage.hdr
                0x00000000        0xe c:/program files/microchip/xc32/v4.35/bin/bin/../../lib/gcc/pic32c/8.3.1/../../../../pic32c/lib/arm/v5te/nofp\libpic32c.a(sbrk.o)
 .text          0x00000000      0x3c0 c:/program files/microchip/xc32/v4.35/bin/bin/../../lib/gcc/pic32c/8.3.1/arm/v5te/nofp\libgcc.a(_arm_addsubdf3.o)
 .data          0x00000000        0x0 c:/program files/microchip/xc32/v4.35/bin/bin/../../lib/gcc/pic32c/8.3.1/arm/v5te/nofp\libgcc.a(_arm_addsubdf3.o)
 .bss           0x00000000        0x0 c:/program files/microchip/xc32/v4.35/bin/bin/../../lib/gcc/pic32c/8.3.1/arm/v5te/nofp\libgcc.a(_arm_addsubdf3.o)
 .xc_stack_usage.hdr
                0x00000000        0xe c:/program files/microchip/xc32/v4.35/bin/bin/../../lib/gcc/pic32c/8.3.1/arm/v5te/nofp\libgcc.a(_arm_addsubdf3.o)
 .xc_stack_usage
                0x00000000       0xca c:/program files/microchip/xc32/v4.35/bin/bin/../../lib/gcc/pic32c/8.3.1/arm/v5te/nofp\libgcc.a(_arm_addsubdf3.o)
 .debug_line    0x00000000      0x196 c:/program files/microchip/xc32/v4.35/bin/bin/../../lib/gcc/pic32c/8.3.1/arm/v5te/nofp\libgcc.a(_arm_addsubdf3.o)
 .debug_info    0x00000000       0x26 c:/program files/microchip/xc32/v4.35/bin/bin/../../lib/gcc/pic32c/8.3.1/arm/v5te/nofp\libgcc.a(_arm_addsubdf3.o)
 .debug_abbrev  0x00000000       0x14 c:/program files/microchip/xc32/v4.35/bin/bin/../../lib/gcc/pic32c/8.3.1/arm/v5te/nofp\libgcc.a(_arm_addsubdf3.o)
 .debug_aranges
                0x00000000       0x20 c:/program files/microchip/xc32/v4.35/bin/bin/../../lib/gcc/pic32c/8.3.1/arm/v5te/nofp\libgcc.a(_arm_addsubdf3.o)
 .debug_str     0x00000000       0xe7 c:/program files/microchip/xc32/v4.35/bin/bin/../../lib/gcc/pic32c/8.3.1/arm/v5te/nofp\libgcc.a(_arm_addsubdf3.o)
 .debug_frame   0x00000000       0xac c:/program files/microchip/xc32/v4.35/bin/bin/../../lib/gcc/pic32c/8.3.1/arm/v5te/nofp\libgcc.a(_arm_addsubdf3.o)
 .ARM.attributes
                0x00000000       0x1d c:/program files/microchip/xc32/v4.35/bin/bin/../../lib/gcc/pic32c/8.3.1/arm/v5te/nofp\libgcc.a(_arm_addsubdf3.o)
 .text          0x00000000      0x470 c:/program files/microchip/xc32/v4.35/bin/bin/../../lib/gcc/pic32c/8.3.1/arm/v5te/nofp\libgcc.a(_arm_muldivdf3.o)
 .data          0x00000000        0x0 c:/program files/microchip/xc32/v4.35/bin/bin/../../lib/gcc/pic32c/8.3.1/arm/v5te/nofp\libgcc.a(_arm_muldivdf3.o)
 .bss           0x00000000        0x0 c:/program files/microchip/xc32/v4.35/bin/bin/../../lib/gcc/pic32c/8.3.1/arm/v5te/nofp\libgcc.a(_arm_muldivdf3.o)
 .xc_stack_usage.hdr
                0x00000000        0xe c:/program files/microchip/xc32/v4.35/bin/bin/../../lib/gcc/pic32c/8.3.1/arm/v5te/nofp\libgcc.a(_arm_muldivdf3.o)
 .xc_stack_usage
                0x00000000       0x2c c:/program files/microchip/xc32/v4.35/bin/bin/../../lib/gcc/pic32c/8.3.1/arm/v5te/nofp\libgcc.a(_arm_muldivdf3.o)
 .debug_line    0x00000000      0x1b5 c:/program files/microchip/xc32/v4.35/bin/bin/../../lib/gcc/pic32c/8.3.1/arm/v5te/nofp\libgcc.a(_arm_muldivdf3.o)
 .debug_info    0x00000000       0x26 c:/program files/microchip/xc32/v4.35/bin/bin/../../lib/gcc/pic32c/8.3.1/arm/v5te/nofp\libgcc.a(_arm_muldivdf3.o)
 .debug_abbrev  0x00000000       0x14 c:/program files/microchip/xc32/v4.35/bin/bin/../../lib/gcc/pic32c/8.3.1/arm/v5te/nofp\libgcc.a(_arm_muldivdf3.o)
 .debug_aranges
                0x00000000       0x20 c:/program files/microchip/xc32/v4.35/bin/bin/../../lib/gcc/pic32c/8.3.1/arm/v5te/nofp\libgcc.a(_arm_muldivdf3.o)
 .debug_str     0x00000000       0xe7 c:/program files/microchip/xc32/v4.35/bin/bin/../../lib/gcc/pic32c/8.3.1/arm/v5te/nofp\libgcc.a(_arm_muldivdf3.o)
 .debug_frame   0x00000000       0x50 c:/program files/microchip/xc32/v4.35/bin/bin/../../lib/gcc/pic32c/8.3.1/arm/v5te/nofp\libgcc.a(_arm_muldivdf3.o)
 .ARM.attributes
                0x00000000       0x1d c:/program files/microchip/xc32/v4.35/bin/bin/../../lib/gcc/pic32c/8.3.1/arm/v5te/nofp\libgcc.a(_arm_muldivdf3.o)
 .text          0x00000000       0xa0 c:/program files/microchip/xc32/v4.35/bin/bin/../../lib/gcc/pic32c/8.3.1/arm/v5te/nofp\libgcc.a(_arm_truncdfsf2.o)
 .data          0x00000000        0x0 c:/program files/microchip/xc32/v4.35/bin/bin/../../lib/gcc/pic32c/8.3.1/arm/v5te/nofp\libgcc.a(_arm_truncdfsf2.o)
 .bss           0x00000000        0x0 c:/program files/microchip/xc32/v4.35/bin/bin/../../lib/gcc/pic32c/8.3.1/arm/v5te/nofp\libgcc.a(_arm_truncdfsf2.o)
 .xc_stack_usage.hdr
                0x00000000        0xe c:/program files/microchip/xc32/v4.35/bin/bin/../../lib/gcc/pic32c/8.3.1/arm/v5te/nofp\libgcc.a(_arm_truncdfsf2.o)
 .xc_stack_usage
                0x00000000       0x1a c:/program files/microchip/xc32/v4.35/bin/bin/../../lib/gcc/pic32c/8.3.1/arm/v5te/nofp\libgcc.a(_arm_truncdfsf2.o)
 .debug_line    0x00000000       0xbc c:/program files/microchip/xc32/v4.35/bin/bin/../../lib/gcc/pic32c/8.3.1/arm/v5te/nofp\libgcc.a(_arm_truncdfsf2.o)
 .debug_info    0x00000000       0x26 c:/program files/microchip/xc32/v4.35/bin/bin/../../lib/gcc/pic32c/8.3.1/arm/v5te/nofp\libgcc.a(_arm_truncdfsf2.o)
 .debug_abbrev  0x00000000       0x14 c:/program files/microchip/xc32/v4.35/bin/bin/../../lib/gcc/pic32c/8.3.1/arm/v5te/nofp\libgcc.a(_arm_truncdfsf2.o)
 .debug_aranges
                0x00000000       0x20 c:/program files/microchip/xc32/v4.35/bin/bin/../../lib/gcc/pic32c/8.3.1/arm/v5te/nofp\libgcc.a(_arm_truncdfsf2.o)
 .debug_str     0x00000000       0xe7 c:/program files/microchip/xc32/v4.35/bin/bin/../../lib/gcc/pic32c/8.3.1/arm/v5te/nofp\libgcc.a(_arm_truncdfsf2.o)
 .debug_frame   0x00000000       0x24 c:/program files/microchip/xc32/v4.35/bin/bin/../../lib/gcc/pic32c/8.3.1/arm/v5te/nofp\libgcc.a(_arm_truncdfsf2.o)
 .ARM.attributes
                0x00000000       0x1d c:/program files/microchip/xc32/v4.35/bin/bin/../../lib/gcc/pic32c/8.3.1/arm/v5te/nofp\libgcc.a(_arm_truncdfsf2.o)
 .text          0x00000000        0x0 c:/program files/microchip/xc32/v4.35/bin/bin/../../lib/gcc/pic32c/8.3.1/arm/v5te/nofp/crtend.o
 .data          0x00000000        0x0 c:/program files/microchip/xc32/v4.35/bin/bin/../../lib/gcc/pic32c/8.3.1/arm/v5te/nofp/crtend.o
 .bss           0x00000000        0x0 c:/program files/microchip/xc32/v4.35/bin/bin/../../lib/gcc/pic32c/8.3.1/arm/v5te/nofp/crtend.o
 .eh_frame      0x00000000        0x4 c:/program files/microchip/xc32/v4.35/bin/bin/../../lib/gcc/pic32c/8.3.1/arm/v5te/nofp/crtend.o
 .xc_stack_usage.hdr
                0x00000000        0xe c:/program files/microchip/xc32/v4.35/bin/bin/../../lib/gcc/pic32c/8.3.1/arm/v5te/nofp/crtend.o
 .comment       0x00000000       0x2c c:/program files/microchip/xc32/v4.35/bin/bin/../../lib/gcc/pic32c/8.3.1/arm/v5te/nofp/crtend.o
 .ARM.attributes
                0x00000000       0x2b c:/program files/microchip/xc32/v4.35/bin/bin/../../lib/gcc/pic32c/8.3.1/arm/v5te/nofp/crtend.o
 .text          0x00000000        0x0 c:/program files/microchip/xc32/v4.35/bin/bin/../../lib/gcc/pic32c/8.3.1/arm/v5te/nofp/crtn.o
 .data          0x00000000        0x0 c:/program files/microchip/xc32/v4.35/bin/bin/../../lib/gcc/pic32c/8.3.1/arm/v5te/nofp/crtn.o
 .bss           0x00000000        0x0 c:/program files/microchip/xc32/v4.35/bin/bin/../../lib/gcc/pic32c/8.3.1/arm/v5te/nofp/crtn.o
 .xc_stack_usage.hdr
                0x00000000        0xe c:/program files/microchip/xc32/v4.35/bin/bin/../../lib/gcc/pic32c/8.3.1/arm/v5te/nofp/crtn.o

Memory Configuration

Name             Origin             Length             Attributes
sram             0x00300000         0x00010000         xw
ram              0x21000000         0x0f000000         xwl !r
ram_nocache      0x20000000         0x01000000         !xrw
rom              0x00000000         0x00000000         xrl
*default*        0x00000000         0xffffffff

Linker script and memory map

LOAD c:/program files/microchip/xc32/v4.35/bin/bin/../../lib/gcc/pic32c/8.3.1/arm/v5te/nofp/crti.o
LOAD c:/program files/microchip/xc32/v4.35/bin/bin/../../lib/gcc/pic32c/8.3.1/arm/v5te/nofp/crtbegin.o
LOAD build/dsi_xlcdc_rgba8888_ws_9x75_curiosity_720x720_round/debug/_ext/1985065589/drv_i2c.o
LOAD build/dsi_xlcdc_rgba8888_ws_9x75_curiosity_720x720_round/debug/_ext/2010836581/gfx_canvas_api.o
LOAD build/dsi_xlcdc_rgba8888_ws_9x75_curiosity_720x720_round/debug/_ext/2010836581/gfx_canvas.o
LOAD build/dsi_xlcdc_rgba8888_ws_9x75_curiosity_720x720_round/debug/_ext/1085405985/ws_touch_display.o
LOAD build/dsi_xlcdc_rgba8888_ws_9x75_curiosity_720x720_round/debug/_ext/219820618/drv_gfx2d.o
LOAD build/dsi_xlcdc_rgba8888_ws_9x75_curiosity_720x720_round/debug/_ext/1247915868/plib_dsi.o
LOAD build/dsi_xlcdc_rgba8888_ws_9x75_curiosity_720x720_round/debug/_ext/225302149/plib_xlcdc.o
LOAD build/dsi_xlcdc_rgba8888_ws_9x75_curiosity_720x720_round/debug/_ext/505007713/drv_gfx_xlcdc.o
LOAD build/dsi_xlcdc_rgba8888_ws_9x75_curiosity_720x720_round/debug/_ext/1966656405/gfx_driver.o
LOAD build/dsi_xlcdc_rgba8888_ws_9x75_curiosity_720x720_round/debug/_ext/105237591/legato_error.o
LOAD build/dsi_xlcdc_rgba8888_ws_9x75_curiosity_720x720_round/debug/_ext/105237591/legato_math.o
LOAD build/dsi_xlcdc_rgba8888_ws_9x75_curiosity_720x720_round/debug/_ext/105237591/legato_rect.o
LOAD build/dsi_xlcdc_rgba8888_ws_9x75_curiosity_720x720_round/debug/_ext/105237591/legato_utils.o
LOAD build/dsi_xlcdc_rgba8888_ws_9x75_curiosity_720x720_round/debug/_ext/105237591/legato_color_blend.o
LOAD build/dsi_xlcdc_rgba8888_ws_9x75_curiosity_720x720_round/debug/_ext/105237591/legato_color.o
LOAD build/dsi_xlcdc_rgba8888_ws_9x75_curiosity_720x720_round/debug/_ext/105237591/legato_color_lerp.o
LOAD build/dsi_xlcdc_rgba8888_ws_9x75_curiosity_720x720_round/debug/_ext/105237591/legato_pixelbuffer.o
LOAD build/dsi_xlcdc_rgba8888_ws_9x75_curiosity_720x720_round/debug/_ext/105237591/legato_color_value.o
LOAD build/dsi_xlcdc_rgba8888_ws_9x75_curiosity_720x720_round/debug/_ext/105237591/legato_color_convert.o
LOAD build/dsi_xlcdc_rgba8888_ws_9x75_curiosity_720x720_round/debug/_ext/884805853/legato_event.o
LOAD build/dsi_xlcdc_rgba8888_ws_9x75_curiosity_720x720_round/debug/_ext/884805853/legato_stream.o
LOAD build/dsi_xlcdc_rgba8888_ws_9x75_curiosity_720x720_round/debug/_ext/884805853/legato_scheme.o
LOAD build/dsi_xlcdc_rgba8888_ws_9x75_curiosity_720x720_round/debug/_ext/884805853/legato_input.o
LOAD build/dsi_xlcdc_rgba8888_ws_9x75_curiosity_720x720_round/debug/_ext/884805853/legato_state.o
LOAD build/dsi_xlcdc_rgba8888_ws_9x75_curiosity_720x720_round/debug/_ext/778592651/legato_array.o
LOAD build/dsi_xlcdc_rgba8888_ws_9x75_curiosity_720x720_round/debug/_ext/778592651/legato_rectarray.o
LOAD build/dsi_xlcdc_rgba8888_ws_9x75_curiosity_720x720_round/debug/_ext/778592651/legato_list.o
LOAD build/dsi_xlcdc_rgba8888_ws_9x75_curiosity_720x720_round/debug/_ext/884895117/legato_rasterfont_liberationmono1.o
LOAD build/dsi_xlcdc_rgba8888_ws_9x75_curiosity_720x720_round/debug/_ext/884895117/legato_rasterfont_liberationmono8.o
LOAD build/dsi_xlcdc_rgba8888_ws_9x75_curiosity_720x720_round/debug/_ext/884895117/legato_rasterfont_stream.o
LOAD build/dsi_xlcdc_rgba8888_ws_9x75_curiosity_720x720_round/debug/_ext/884895117/legato_font.o
LOAD build/dsi_xlcdc_rgba8888_ws_9x75_curiosity_720x720_round/debug/_ext/1382756211/le_gen_fonts.o
LOAD build/dsi_xlcdc_rgba8888_ws_9x75_curiosity_720x720_round/debug/_ext/86928605/le_gen_images.o
LOAD build/dsi_xlcdc_rgba8888_ws_9x75_curiosity_720x720_round/debug/_ext/1322619606/le_gen_screen_Screen0.o
LOAD build/dsi_xlcdc_rgba8888_ws_9x75_curiosity_720x720_round/debug/_ext/1965903633/le_gen_globalpalette.o
LOAD build/dsi_xlcdc_rgba8888_ws_9x75_curiosity_720x720_round/debug/_ext/1965903633/le_gen_harmony.o
LOAD build/dsi_xlcdc_rgba8888_ws_9x75_curiosity_720x720_round/debug/_ext/1965903633/le_gen_scheme.o
LOAD build/dsi_xlcdc_rgba8888_ws_9x75_curiosity_720x720_round/debug/_ext/1965903633/le_gen_stringtable.o
LOAD build/dsi_xlcdc_rgba8888_ws_9x75_curiosity_720x720_round/debug/_ext/1965903633/le_gen_init.o
LOAD build/dsi_xlcdc_rgba8888_ws_9x75_curiosity_720x720_round/debug/_ext/979623078/legato_imagedecoder_jpeg_common.o
LOAD build/dsi_xlcdc_rgba8888_ws_9x75_curiosity_720x720_round/debug/_ext/979623078/jidctint.o
LOAD build/dsi_xlcdc_rgba8888_ws_9x75_curiosity_720x720_round/debug/_ext/979623078/legato_imagedecoder_jpeg.o
LOAD build/dsi_xlcdc_rgba8888_ws_9x75_curiosity_720x720_round/debug/_ext/979534379/legato_imagedecoder_mono_read_internal.o
LOAD build/dsi_xlcdc_rgba8888_ws_9x75_curiosity_720x720_round/debug/_ext/979534379/legato_imagedecoder_mono_read_stream.o
LOAD build/dsi_xlcdc_rgba8888_ws_9x75_curiosity_720x720_round/debug/_ext/979534379/legato_imagedecoder_mono.o
LOAD build/dsi_xlcdc_rgba8888_ws_9x75_curiosity_720x720_round/debug/_ext/799688951/legato_imagedecoder_png.o
LOAD build/dsi_xlcdc_rgba8888_ws_9x75_curiosity_720x720_round/debug/_ext/799688951/lodepng.o
LOAD build/dsi_xlcdc_rgba8888_ws_9x75_curiosity_720x720_round/debug/_ext/799690486/legato_imagedecoder_raw_convert.o
LOAD build/dsi_xlcdc_rgba8888_ws_9x75_curiosity_720x720_round/debug/_ext/799690486/legato_imagedecoder_raw_read_stream_rleindex.o
LOAD build/dsi_xlcdc_rgba8888_ws_9x75_curiosity_720x720_round/debug/_ext/799690486/legato_imagedecoder_raw_write.o
LOAD build/dsi_xlcdc_rgba8888_ws_9x75_curiosity_720x720_round/debug/_ext/799690486/legato_imagedecoder_raw_read_stream_index.o
LOAD build/dsi_xlcdc_rgba8888_ws_9x75_curiosity_720x720_round/debug/_ext/799690486/legato_imagedecoder_raw_read_internal.o
LOAD build/dsi_xlcdc_rgba8888_ws_9x75_curiosity_720x720_round/debug/_ext/799690486/legato_imagedecoder_raw_scale.o
LOAD build/dsi_xlcdc_rgba8888_ws_9x75_curiosity_720x720_round/debug/_ext/799690486/legato_imagedecoder_raw_mask.o
LOAD build/dsi_xlcdc_rgba8888_ws_9x75_curiosity_720x720_round/debug/_ext/799690486/legato_imagedecoder_raw_blend.o
LOAD build/dsi_xlcdc_rgba8888_ws_9x75_curiosity_720x720_round/debug/_ext/799690486/legato_imagedecoder_raw.o
LOAD build/dsi_xlcdc_rgba8888_ws_9x75_curiosity_720x720_round/debug/_ext/799690486/legato_imagedecoder_raw_read_stream_color.o
LOAD build/dsi_xlcdc_rgba8888_ws_9x75_curiosity_720x720_round/debug/_ext/799690486/legato_imagedecoder_raw_read_stream_rlecolor.o
LOAD build/dsi_xlcdc_rgba8888_ws_9x75_curiosity_720x720_round/debug/_ext/799690486/legato_imagedecoder_raw_setup.o
LOAD build/dsi_xlcdc_rgba8888_ws_9x75_curiosity_720x720_round/debug/_ext/799690486/legato_imagedecoder_raw_rotate.o
LOAD build/dsi_xlcdc_rgba8888_ws_9x75_curiosity_720x720_round/debug/_ext/799690486/legato_imagedecoder_raw_palette_internal.o
LOAD build/dsi_xlcdc_rgba8888_ws_9x75_curiosity_720x720_round/debug/_ext/799690486/legato_imagedecoder_raw_palette_stream.o
LOAD build/dsi_xlcdc_rgba8888_ws_9x75_curiosity_720x720_round/debug/_ext/1664643037/legato_image_utils.o
LOAD build/dsi_xlcdc_rgba8888_ws_9x75_curiosity_720x720_round/debug/_ext/1664643037/legato_image.o
LOAD build/dsi_xlcdc_rgba8888_ws_9x75_curiosity_720x720_round/debug/_ext/1664643037/legato_palette.o
LOAD build/dsi_xlcdc_rgba8888_ws_9x75_curiosity_720x720_round/debug/_ext/171820735/legato_variableheap.o
LOAD build/dsi_xlcdc_rgba8888_ws_9x75_curiosity_720x720_round/debug/_ext/171820735/legato_fixedheap.o
LOAD build/dsi_xlcdc_rgba8888_ws_9x75_curiosity_720x720_round/debug/_ext/171820735/legato_memory.o
LOAD build/dsi_xlcdc_rgba8888_ws_9x75_curiosity_720x720_round/debug/_ext/2053165825/legato_draw.o
LOAD build/dsi_xlcdc_rgba8888_ws_9x75_curiosity_720x720_round/debug/_ext/2053165825/legato_draw_line.o
LOAD build/dsi_xlcdc_rgba8888_ws_9x75_curiosity_720x720_round/debug/_ext/2053165825/legato_draw_rect.o
LOAD build/dsi_xlcdc_rgba8888_ws_9x75_curiosity_720x720_round/debug/_ext/2053165825/legato_draw_arc.o
LOAD build/dsi_xlcdc_rgba8888_ws_9x75_curiosity_720x720_round/debug/_ext/2053165825/legato_gpu.o
LOAD build/dsi_xlcdc_rgba8888_ws_9x75_curiosity_720x720_round/debug/_ext/2053165825/legato_renderer.o
LOAD build/dsi_xlcdc_rgba8888_ws_9x75_curiosity_720x720_round/debug/_ext/357591503/legato_string.o
LOAD build/dsi_xlcdc_rgba8888_ws_9x75_curiosity_720x720_round/debug/_ext/357591503/legato_stringutils.o
LOAD build/dsi_xlcdc_rgba8888_ws_9x75_curiosity_720x720_round/debug/_ext/357591503/legato_string_renderer.o
LOAD build/dsi_xlcdc_rgba8888_ws_9x75_curiosity_720x720_round/debug/_ext/357591503/legato_fixedstring.o
LOAD build/dsi_xlcdc_rgba8888_ws_9x75_curiosity_720x720_round/debug/_ext/357591503/legato_stringtable.o
LOAD build/dsi_xlcdc_rgba8888_ws_9x75_curiosity_720x720_round/debug/_ext/357591503/legato_tablestring.o
LOAD build/dsi_xlcdc_rgba8888_ws_9x75_curiosity_720x720_round/debug/_ext/357591503/legato_dynamicstring.o
LOAD build/dsi_xlcdc_rgba8888_ws_9x75_curiosity_720x720_round/debug/_ext/357591503/legato_string_renderer_stream.o
LOAD build/dsi_xlcdc_rgba8888_ws_9x75_curiosity_720x720_round/debug/_ext/199453381/legato_widget_arc.o
LOAD build/dsi_xlcdc_rgba8888_ws_9x75_curiosity_720x720_round/debug/_ext/199453381/legato_widget_arc_skin_classic.o
LOAD build/dsi_xlcdc_rgba8888_ws_9x75_curiosity_720x720_round/debug/_ext/535443592/legato_widget_bar_graph.o
LOAD build/dsi_xlcdc_rgba8888_ws_9x75_curiosity_720x720_round/debug/_ext/535443592/legato_widget_bar_graph_skin_classic.o
LOAD build/dsi_xlcdc_rgba8888_ws_9x75_curiosity_720x720_round/debug/_ext/2007924191/legato_widget_button_skin_classic.o
LOAD build/dsi_xlcdc_rgba8888_ws_9x75_curiosity_720x720_round/debug/_ext/2007924191/legato_widget_button.o
LOAD build/dsi_xlcdc_rgba8888_ws_9x75_curiosity_720x720_round/debug/_ext/475235536/legato_widget_checkbox.o
LOAD build/dsi_xlcdc_rgba8888_ws_9x75_curiosity_720x720_round/debug/_ext/475235536/legato_widget_checkbox_skin_classic.o
LOAD build/dsi_xlcdc_rgba8888_ws_9x75_curiosity_720x720_round/debug/_ext/2025395069/legato_widget_circle.o
LOAD build/dsi_xlcdc_rgba8888_ws_9x75_curiosity_720x720_round/debug/_ext/2025395069/legato_widget_circle_skin_classic.o
LOAD build/dsi_xlcdc_rgba8888_ws_9x75_curiosity_720x720_round/debug/_ext/1167905389/legato_widget_circular_gauge_skin_classic.o
LOAD build/dsi_xlcdc_rgba8888_ws_9x75_curiosity_720x720_round/debug/_ext/1167905389/legato_widget_circular_gauge.o
LOAD build/dsi_xlcdc_rgba8888_ws_9x75_curiosity_720x720_round/debug/_ext/2096290323/legato_widget_circular_slider_skin_classic.o
LOAD build/dsi_xlcdc_rgba8888_ws_9x75_curiosity_720x720_round/debug/_ext/2096290323/legato_widget_circular_slider.o
LOAD build/dsi_xlcdc_rgba8888_ws_9x75_curiosity_720x720_round/debug/_ext/1490933852/legato_widget_drawsurface.o
LOAD build/dsi_xlcdc_rgba8888_ws_9x75_curiosity_720x720_round/debug/_ext/1490933852/legato_widget_drawsurface_skin_classic.o
LOAD build/dsi_xlcdc_rgba8888_ws_9x75_curiosity_720x720_round/debug/_ext/1922476387/legato_widget_gradient_skin_classic.o
LOAD build/dsi_xlcdc_rgba8888_ws_9x75_curiosity_720x720_round/debug/_ext/1922476387/legato_widget_gradient.o
LOAD build/dsi_xlcdc_rgba8888_ws_9x75_curiosity_720x720_round/debug/_ext/1505762727/legato_widget_groupbox.o
LOAD build/dsi_xlcdc_rgba8888_ws_9x75_curiosity_720x720_round/debug/_ext/1505762727/legato_widget_groupbox_skin_classic.o
LOAD build/dsi_xlcdc_rgba8888_ws_9x75_curiosity_720x720_round/debug/_ext/1591588594/legato_widget_image_skin_classic.o
LOAD build/dsi_xlcdc_rgba8888_ws_9x75_curiosity_720x720_round/debug/_ext/1591588594/legato_widget_image.o
LOAD build/dsi_xlcdc_rgba8888_ws_9x75_curiosity_720x720_round/debug/_ext/335127529/legato_widget_imagerotate.o
LOAD build/dsi_xlcdc_rgba8888_ws_9x75_curiosity_720x720_round/debug/_ext/335127529/legato_widget_imagerotate_skin_classic.o
LOAD build/dsi_xlcdc_rgba8888_ws_9x75_curiosity_720x720_round/debug/_ext/1951021308/legato_widget_imagescale_skin_classic.o
LOAD build/dsi_xlcdc_rgba8888_ws_9x75_curiosity_720x720_round/debug/_ext/1951021308/legato_widget_imagescale.o
LOAD build/dsi_xlcdc_rgba8888_ws_9x75_curiosity_720x720_round/debug/_ext/1324864207/legato_widget_imagesequence_skin_classic.o
LOAD build/dsi_xlcdc_rgba8888_ws_9x75_curiosity_720x720_round/debug/_ext/1324864207/legato_widget_imagesequence.o
LOAD build/dsi_xlcdc_rgba8888_ws_9x75_curiosity_720x720_round/debug/_ext/2044012415/legato_widget_keypad.o
LOAD build/dsi_xlcdc_rgba8888_ws_9x75_curiosity_720x720_round/debug/_ext/2044012415/legato_widget_keypad_skin_classic.o
LOAD build/dsi_xlcdc_rgba8888_ws_9x75_curiosity_720x720_round/debug/_ext/1589174617/legato_widget_label_skin_classic.o
LOAD build/dsi_xlcdc_rgba8888_ws_9x75_curiosity_720x720_round/debug/_ext/1589174617/legato_widget_label.o
LOAD build/dsi_xlcdc_rgba8888_ws_9x75_curiosity_720x720_round/debug/_ext/1888407009/legato_widget_line_skin_classic.o
LOAD build/dsi_xlcdc_rgba8888_ws_9x75_curiosity_720x720_round/debug/_ext/1888407009/legato_widget_line.o
LOAD build/dsi_xlcdc_rgba8888_ws_9x75_curiosity_720x720_round/debug/_ext/259815437/legato_widget_line_graph.o
LOAD build/dsi_xlcdc_rgba8888_ws_9x75_curiosity_720x720_round/debug/_ext/259815437/legato_widget_line_graph_skin_classic.o
LOAD build/dsi_xlcdc_rgba8888_ws_9x75_curiosity_720x720_round/debug/_ext/1888407179/legato_widget_list.o
LOAD build/dsi_xlcdc_rgba8888_ws_9x75_curiosity_720x720_round/debug/_ext/1888407179/legato_widget_list_skin_classic.o
LOAD build/dsi_xlcdc_rgba8888_ws_9x75_curiosity_720x720_round/debug/_ext/846285744/legato_widget_listwheel.o
LOAD build/dsi_xlcdc_rgba8888_ws_9x75_curiosity_720x720_round/debug/_ext/846285744/legato_widget_listwheel_skin_classic.o
LOAD build/dsi_xlcdc_rgba8888_ws_9x75_curiosity_720x720_round/debug/_ext/1593875775/legato_widget_pie_chart_skin_classic.o
LOAD build/dsi_xlcdc_rgba8888_ws_9x75_curiosity_720x720_round/debug/_ext/1593875775/legato_widget_pie_chart.o
LOAD build/dsi_xlcdc_rgba8888_ws_9x75_curiosity_720x720_round/debug/_ext/1591624647/legato_widget_progressbar.o
LOAD build/dsi_xlcdc_rgba8888_ws_9x75_curiosity_720x720_round/debug/_ext/1591624647/legato_widget_progressbar_skin_classic.o
LOAD build/dsi_xlcdc_rgba8888_ws_9x75_curiosity_720x720_round/debug/_ext/1310158805/legato_widget_radial_menu.o
LOAD build/dsi_xlcdc_rgba8888_ws_9x75_curiosity_720x720_round/debug/_ext/1310158805/legato_widget_radial_menu_skin_classic.o
LOAD build/dsi_xlcdc_rgba8888_ws_9x75_curiosity_720x720_round/debug/_ext/1310158805/legato_widget_radial_menu_state.o
LOAD build/dsi_xlcdc_rgba8888_ws_9x75_curiosity_720x720_round/debug/_ext/1596448864/legato_radiobutton_group.o
LOAD build/dsi_xlcdc_rgba8888_ws_9x75_curiosity_720x720_round/debug/_ext/1596448864/legato_widget_radiobutton_skin_classic.o
LOAD build/dsi_xlcdc_rgba8888_ws_9x75_curiosity_720x720_round/debug/_ext/1596448864/legato_widget_radiobutton.o
LOAD build/dsi_xlcdc_rgba8888_ws_9x75_curiosity_720x720_round/debug/_ext/1125106782/legato_widget_rectangle.o
LOAD build/dsi_xlcdc_rgba8888_ws_9x75_curiosity_720x720_round/debug/_ext/1125106782/legato_widget_rectangle_skin_classic.o
LOAD build/dsi_xlcdc_rgba8888_ws_9x75_curiosity_720x720_round/debug/_ext/1828613031/legato_widget_scrollbar.o
LOAD build/dsi_xlcdc_rgba8888_ws_9x75_curiosity_720x720_round/debug/_ext/1828613031/legato_widget_scrollbar_skin_classic.o
LOAD build/dsi_xlcdc_rgba8888_ws_9x75_curiosity_720x720_round/debug/_ext/1809002610/legato_widget_slider_skin_classic.o
LOAD build/dsi_xlcdc_rgba8888_ws_9x75_curiosity_720x720_round/debug/_ext/1809002610/legato_widget_slider.o
LOAD build/dsi_xlcdc_rgba8888_ws_9x75_curiosity_720x720_round/debug/_ext/1017126432/legato_widget_textfield.o
LOAD build/dsi_xlcdc_rgba8888_ws_9x75_curiosity_720x720_round/debug/_ext/1017126432/legato_widget_textfield_skin_classic.o
LOAD build/dsi_xlcdc_rgba8888_ws_9x75_curiosity_720x720_round/debug/_ext/1881671036/legato_widget_touchtest_skin_classic.o
LOAD build/dsi_xlcdc_rgba8888_ws_9x75_curiosity_720x720_round/debug/_ext/1881671036/legato_widget_touchtest.o
LOAD build/dsi_xlcdc_rgba8888_ws_9x75_curiosity_720x720_round/debug/_ext/1697107299/legato_widget_window_skin_classic.o
LOAD build/dsi_xlcdc_rgba8888_ws_9x75_curiosity_720x720_round/debug/_ext/1697107299/legato_widget_window.o
LOAD build/dsi_xlcdc_rgba8888_ws_9x75_curiosity_720x720_round/debug/_ext/461530114/legato_widget_skin_classic_common.o
LOAD build/dsi_xlcdc_rgba8888_ws_9x75_curiosity_720x720_round/debug/_ext/461530114/legato_widget_skin_classic.o
LOAD build/dsi_xlcdc_rgba8888_ws_9x75_curiosity_720x720_round/debug/_ext/461530114/legato_widget.o
LOAD build/dsi_xlcdc_rgba8888_ws_9x75_curiosity_720x720_round/debug/_ext/461530114/legato_editwidget.o
LOAD build/dsi_xlcdc_rgba8888_ws_9x75_curiosity_720x720_round/debug/_ext/1886844053/plib_aic.o
LOAD build/dsi_xlcdc_rgba8888_ws_9x75_curiosity_720x720_round/debug/_ext/1886846076/plib_clk.o
LOAD build/dsi_xlcdc_rgba8888_ws_9x75_curiosity_720x720_round/debug/_ext/1637293614/plib_dbgu.o
LOAD build/dsi_xlcdc_rgba8888_ws_9x75_curiosity_720x720_round/debug/_ext/545877704/plib_flexcom6_twi_master.o
LOAD build/dsi_xlcdc_rgba8888_ws_9x75_curiosity_720x720_round/debug/_ext/786409605/plib_gfx2d.o
LOAD build/dsi_xlcdc_rgba8888_ws_9x75_curiosity_720x720_round/debug/_ext/1886855727/plib_mmu.o
LOAD build/dsi_xlcdc_rgba8888_ws_9x75_curiosity_720x720_round/debug/_ext/1886858480/plib_pio.o
LOAD build/dsi_xlcdc_rgba8888_ws_9x75_curiosity_720x720_round/debug/_ext/1886860748/plib_rtt.o
LOAD build/dsi_xlcdc_rgba8888_ws_9x75_curiosity_720x720_round/debug/_ext/60866517/plib_tc1.o
LOAD build/dsi_xlcdc_rgba8888_ws_9x75_curiosity_720x720_round/debug/_ext/1477359996/xc32_monitor.o
LOAD build/dsi_xlcdc_rgba8888_ws_9x75_curiosity_720x720_round/debug/_ext/1955154609/sys_cache.o
LOAD build/dsi_xlcdc_rgba8888_ws_9x75_curiosity_720x720_round/debug/_ext/1949213289/sys_input.o
LOAD build/dsi_xlcdc_rgba8888_ws_9x75_curiosity_720x720_round/debug/_ext/1949213289/sys_input_listener.o
LOAD build/dsi_xlcdc_rgba8888_ws_9x75_curiosity_720x720_round/debug/_ext/586618287/sys_int.o
LOAD build/dsi_xlcdc_rgba8888_ws_9x75_curiosity_720x720_round/debug/_ext/690637493/sys_time.o
LOAD build/dsi_xlcdc_rgba8888_ws_9x75_curiosity_720x720_round/debug/_ext/1295507646/cstartup.o
LOAD build/dsi_xlcdc_rgba8888_ws_9x75_curiosity_720x720_round/debug/_ext/1295507646/interrupts.o
LOAD build/dsi_xlcdc_rgba8888_ws_9x75_curiosity_720x720_round/debug/_ext/1295507646/initialization.o
LOAD build/dsi_xlcdc_rgba8888_ws_9x75_curiosity_720x720_round/debug/_ext/1295507646/fault_handlers.o
LOAD build/dsi_xlcdc_rgba8888_ws_9x75_curiosity_720x720_round/debug/_ext/1295507646/tasks.o
LOAD build/dsi_xlcdc_rgba8888_ws_9x75_curiosity_720x720_round/debug/_ext/1360937237/main.o
LOAD build/dsi_xlcdc_rgba8888_ws_9x75_curiosity_720x720_round/debug/_ext/1360937237/app.o
LOAD build/dsi_xlcdc_rgba8888_ws_9x75_curiosity_720x720_round/debug/_ext/1360937237/app_drive.o
                0x00000001                __MPLAB_BUILD = 0x1
                0x00001000                C_STACK_SIZE = 0x1000
                0x00000060                IRQ_STACK_SIZE = 0x60
                0x00000060                FIQ_STACK_SIZE = 0x60
                0x00001000                SVC_STACK_SIZE = 0x1000
                0x00000040                ABT_STACK_SIZE = 0x40
                0x00000040                UND_STACK_SIZE = 0x40

.text           0x23f00000   0xb012e0
                0x23f00000                . = ALIGN (0x4)
                [!provide]                PROVIDE (_sfixed = .)
 *(.textEntry)
 .textEntry     0x23f00000      0x10c build/dsi_xlcdc_rgba8888_ws_9x75_curiosity_720x720_round/debug/_ext/1295507646/cstartup.o
                0x23f00000                entry
 *(.text .text.* .gnu.linkonce.t.*)
 .text          0x23f0010c       0x70 c:/program files/microchip/xc32/v4.35/bin/bin/../../lib/gcc/pic32c/8.3.1/arm/v5te/nofp/crtbegin.o
 .text.lDRV_I2C_ResourceLock
                0x23f0017c      0x10c build/dsi_xlcdc_rgba8888_ws_9x75_curiosity_720x720_round/debug/_ext/1985065589/drv_i2c.o
 .text.lDRV_I2C_ResourceUnlock
                0x23f00288       0xac build/dsi_xlcdc_rgba8888_ws_9x75_curiosity_720x720_round/debug/_ext/1985065589/drv_i2c.o
 .text.lDRV_I2C_NextTransferInitiate.isra.5
                0x23f00334      0x1a8 build/dsi_xlcdc_rgba8888_ws_9x75_curiosity_720x720_round/debug/_ext/1985065589/drv_i2c.o
 .text.lDRV_I2C_PLibCallbackHandler
                0x23f004dc       0xfc build/dsi_xlcdc_rgba8888_ws_9x75_curiosity_720x720_round/debug/_ext/1985065589/drv_i2c.o
 .text.DRV_I2C_Initialize
                0x23f005d8       0xb8 build/dsi_xlcdc_rgba8888_ws_9x75_curiosity_720x720_round/debug/_ext/1985065589/drv_i2c.o
                0x23f005d8                DRV_I2C_Initialize
 .text.DRV_I2C_Open
                0x23f00690      0x144 build/dsi_xlcdc_rgba8888_ws_9x75_curiosity_720x720_round/debug/_ext/1985065589/drv_i2c.o
                0x23f00690                DRV_I2C_Open
 .text.DRV_I2C_TransferEventHandlerSet
                0x23f007d4       0x90 build/dsi_xlcdc_rgba8888_ws_9x75_curiosity_720x720_round/debug/_ext/1985065589/drv_i2c.o
                0x23f007d4                DRV_I2C_TransferEventHandlerSet
 .text.DRV_I2C_ErrorGet
                0x23f00864      0x124 build/dsi_xlcdc_rgba8888_ws_9x75_curiosity_720x720_round/debug/_ext/1985065589/drv_i2c.o
                0x23f00864                DRV_I2C_ErrorGet
 .text.DRV_I2C_WriteTransferAdd
                0x23f00988      0x2d4 build/dsi_xlcdc_rgba8888_ws_9x75_curiosity_720x720_round/debug/_ext/1985065589/drv_i2c.o
                0x23f00988                DRV_I2C_WriteTransferAdd
 .text.DRV_I2C_WriteReadTransferAdd
                0x23f00c5c      0x310 build/dsi_xlcdc_rgba8888_ws_9x75_curiosity_720x720_round/debug/_ext/1985065589/drv_i2c.o
                0x23f00c5c                DRV_I2C_WriteReadTransferAdd
 .text.gfxcCreate
                0x23f00f6c       0x8c build/dsi_xlcdc_rgba8888_ws_9x75_curiosity_720x720_round/debug/_ext/2010836581/gfx_canvas_api.o
                0x23f00f6c                gfxcCreate
 .text.gfxcSetPixelBuffer
                0x23f00ff8       0x6c build/dsi_xlcdc_rgba8888_ws_9x75_curiosity_720x720_round/debug/_ext/2010836581/gfx_canvas_api.o
                0x23f00ff8                gfxcSetPixelBuffer
 .text.gfxcSetLayer
                0x23f01064       0x40 build/dsi_xlcdc_rgba8888_ws_9x75_curiosity_720x720_round/debug/_ext/2010836581/gfx_canvas_api.o
                0x23f01064                gfxcSetLayer
 .text.gfxcSetWindowAlpha
                0x23f010a4       0x28 build/dsi_xlcdc_rgba8888_ws_9x75_curiosity_720x720_round/debug/_ext/2010836581/gfx_canvas_api.o
                0x23f010a4                gfxcSetWindowAlpha
 .text.gfxcSetWindowPosition
                0x23f010cc       0x2c build/dsi_xlcdc_rgba8888_ws_9x75_curiosity_720x720_round/debug/_ext/2010836581/gfx_canvas_api.o
                0x23f010cc                gfxcSetWindowPosition
 .text.gfxcSetWindowSize
                0x23f010f8       0x2c build/dsi_xlcdc_rgba8888_ws_9x75_curiosity_720x720_round/debug/_ext/2010836581/gfx_canvas_api.o
                0x23f010f8                gfxcSetWindowSize
 .text.gfxcShowCanvas
                0x23f01124       0x2c build/dsi_xlcdc_rgba8888_ws_9x75_curiosity_720x720_round/debug/_ext/2010836581/gfx_canvas_api.o
                0x23f01124                gfxcShowCanvas
 .text.gfxcHideCanvas
                0x23f01150       0x28 build/dsi_xlcdc_rgba8888_ws_9x75_curiosity_720x720_round/debug/_ext/2010836581/gfx_canvas_api.o
                0x23f01150                gfxcHideCanvas
 .text.gfxcCanvasUpdate
                0x23f01178       0x20 build/dsi_xlcdc_rgba8888_ws_9x75_curiosity_720x720_round/debug/_ext/2010836581/gfx_canvas_api.o
                0x23f01178                gfxcCanvasUpdate
 .text.gfxcStartEffectFade
                0x23f01198       0x94 build/dsi_xlcdc_rgba8888_ws_9x75_curiosity_720x720_round/debug/_ext/2010836581/gfx_canvas_api.o
                0x23f01198                gfxcStartEffectFade
 .text.effectsTimerCallback
                0x23f0122c       0x18 build/dsi_xlcdc_rgba8888_ws_9x75_curiosity_720x720_round/debug/_ext/2010836581/gfx_canvas.o
 .text.GFXC_Update
                0x23f01244        0x4 build/dsi_xlcdc_rgba8888_ws_9x75_curiosity_720x720_round/debug/_ext/2010836581/gfx_canvas.o
 .text.GFX_CANVAS_IOCTL
                0x23f01248      0x31c build/dsi_xlcdc_rgba8888_ws_9x75_curiosity_720x720_round/debug/_ext/2010836581/gfx_canvas.o
 .text.GFXC_BlitBuffer
                0x23f01564       0xd8 build/dsi_xlcdc_rgba8888_ws_9x75_curiosity_720x720_round/debug/_ext/2010836581/gfx_canvas.o
 .text.GFX_CANVAS_Initialize
                0x23f0163c      0x164 build/dsi_xlcdc_rgba8888_ws_9x75_curiosity_720x720_round/debug/_ext/2010836581/gfx_canvas.o
                0x23f0163c                GFX_CANVAS_Initialize
 .text._gfxcCanvasUpdate
                0x23f017a0      0x2b0 build/dsi_xlcdc_rgba8888_ws_9x75_curiosity_720x720_round/debug/_ext/2010836581/gfx_canvas.o
                0x23f017a0                _gfxcCanvasUpdate
 .text._gfxcStartEffects
                0x23f01a50       0x1c build/dsi_xlcdc_rgba8888_ws_9x75_curiosity_720x720_round/debug/_ext/2010836581/gfx_canvas.o
                0x23f01a50                _gfxcStartEffects
 .text.GFX_CANVAS_Task
                0x23f01a6c      0x400 build/dsi_xlcdc_rgba8888_ws_9x75_curiosity_720x720_round/debug/_ext/2010836581/gfx_canvas.o
                0x23f01a6c                GFX_CANVAS_Task
 .text.DISP_I2CEventHandler
                0x23f01e6c       0xac build/dsi_xlcdc_rgba8888_ws_9x75_curiosity_720x720_round/debug/_ext/1085405985/ws_touch_display.o
 .text.DISP_WS_Initialize
                0x23f01f18       0x2c build/dsi_xlcdc_rgba8888_ws_9x75_curiosity_720x720_round/debug/_ext/1085405985/ws_touch_display.o
                0x23f01f18                DISP_WS_Initialize
 .text.DISP_WS_Update
                0x23f01f44      0x8a8 build/dsi_xlcdc_rgba8888_ws_9x75_curiosity_720x720_round/debug/_ext/1085405985/ws_touch_display.o
                0x23f01f44                DISP_WS_Update
 .text.DRV_GFX2D_Initialize
                0x23f027ec       0x28 build/dsi_xlcdc_rgba8888_ws_9x75_curiosity_720x720_round/debug/_ext/219820618/drv_gfx2d.o
                0x23f027ec                DRV_GFX2D_Initialize
 .text.DRV_GFX2D_Fill
                0x23f02814       0x8c build/dsi_xlcdc_rgba8888_ws_9x75_curiosity_720x720_round/debug/_ext/219820618/drv_gfx2d.o
                0x23f02814                DRV_GFX2D_Fill
 .text.DRV_GFX2D_Blit
                0x23f028a0      0x11c build/dsi_xlcdc_rgba8888_ws_9x75_curiosity_720x720_round/debug/_ext/219820618/drv_gfx2d.o
                0x23f028a0                DRV_GFX2D_Blit
 .text.DRV_GFX2D_SetBlend
                0x23f029bc       0x14 build/dsi_xlcdc_rgba8888_ws_9x75_curiosity_720x720_round/debug/_ext/219820618/drv_gfx2d.o
                0x23f029bc                DRV_GFX2D_SetBlend
 .text.DRV_GFX2D_SetGlobalAlpha
                0x23f029d0        0x8 build/dsi_xlcdc_rgba8888_ws_9x75_curiosity_720x720_round/debug/_ext/219820618/drv_gfx2d.o
                0x23f029d0                DRV_GFX2D_SetGlobalAlpha
 .text.DRV_GFX2D_SetPalette
                0x23f029d8        0x8 build/dsi_xlcdc_rgba8888_ws_9x75_curiosity_720x720_round/debug/_ext/219820618/drv_gfx2d.o
                0x23f029d8                DRV_GFX2D_SetPalette
 .text.DRV_GFX2D_SetTransparency
                0x23f029e0        0x8 build/dsi_xlcdc_rgba8888_ws_9x75_curiosity_720x720_round/debug/_ext/219820618/drv_gfx2d.o
                0x23f029e0                DRV_GFX2D_SetTransparency
 .text.DSI_Initialize
                0x23f029e8      0x1b4 build/dsi_xlcdc_rgba8888_ws_9x75_curiosity_720x720_round/debug/_ext/1247915868/plib_dsi.o
                0x23f029e8                DSI_Initialize
 .text.DSI_VideoMode
                0x23f02b9c       0x78 build/dsi_xlcdc_rgba8888_ws_9x75_curiosity_720x720_round/debug/_ext/1247915868/plib_dsi.o
                0x23f02b9c                DSI_VideoMode
 .text.XLCDC_SetupHEOLayer
                0x23f02c14      0x10c build/dsi_xlcdc_rgba8888_ws_9x75_curiosity_720x720_round/debug/_ext/225302149/plib_xlcdc.o
                0x23f02c14                XLCDC_SetupHEOLayer
 .text.XLCDC_SetLayerEnable
                0x23f02d20      0x110 build/dsi_xlcdc_rgba8888_ws_9x75_curiosity_720x720_round/debug/_ext/225302149/plib_xlcdc.o
                0x23f02d20                XLCDC_SetLayerEnable
 .text.XLCDC_SetLayerOpts
                0x23f02e30      0x138 build/dsi_xlcdc_rgba8888_ws_9x75_curiosity_720x720_round/debug/_ext/225302149/plib_xlcdc.o
                0x23f02e30                XLCDC_SetLayerOpts
 .text.XLCDC_SetLayerWindowXYPos
                0x23f02f68      0x144 build/dsi_xlcdc_rgba8888_ws_9x75_curiosity_720x720_round/debug/_ext/225302149/plib_xlcdc.o
                0x23f02f68                XLCDC_SetLayerWindowXYPos
 .text.XLCDC_SetLayerWindowXYSize
                0x23f030ac      0x170 build/dsi_xlcdc_rgba8888_ws_9x75_curiosity_720x720_round/debug/_ext/225302149/plib_xlcdc.o
                0x23f030ac                XLCDC_SetLayerWindowXYSize
 .text.XLCDC_SetLayerXStride
                0x23f0321c      0x110 build/dsi_xlcdc_rgba8888_ws_9x75_curiosity_720x720_round/debug/_ext/225302149/plib_xlcdc.o
                0x23f0321c                XLCDC_SetLayerXStride
 .text.XLCDC_SetLayerAddress
                0x23f0332c      0x110 build/dsi_xlcdc_rgba8888_ws_9x75_curiosity_720x720_round/debug/_ext/225302149/plib_xlcdc.o
                0x23f0332c                XLCDC_SetLayerAddress
 .text.XLCDC_Start
                0x23f0343c       0xac build/dsi_xlcdc_rgba8888_ws_9x75_curiosity_720x720_round/debug/_ext/225302149/plib_xlcdc.o
                0x23f0343c                XLCDC_Start
 .text.XLCDC_Initialize
                0x23f034e8      0x200 build/dsi_xlcdc_rgba8888_ws_9x75_curiosity_720x720_round/debug/_ext/225302149/plib_xlcdc.o
                0x23f034e8                XLCDC_Initialize
 .text.DRV_XLCDC_Update
                0x23f036e8       0x1c build/dsi_xlcdc_rgba8888_ws_9x75_curiosity_720x720_round/debug/_ext/505007713/drv_gfx_xlcdc.o
                0x23f036e8                DRV_XLCDC_Update
 .text.DRV_XLCDC_Initialize
                0x23f03704      0x114 build/dsi_xlcdc_rgba8888_ws_9x75_curiosity_720x720_round/debug/_ext/505007713/drv_gfx_xlcdc.o
                0x23f03704                DRV_XLCDC_Initialize
 .text.DRV_XLCDC_BlitBuffer
                0x23f03818       0xcc build/dsi_xlcdc_rgba8888_ws_9x75_curiosity_720x720_round/debug/_ext/505007713/drv_gfx_xlcdc.o
                0x23f03818                DRV_XLCDC_BlitBuffer
 .text.DRV_XLCDC_IOCTL
                0x23f038e4      0x43c build/dsi_xlcdc_rgba8888_ws_9x75_curiosity_720x720_round/debug/_ext/505007713/drv_gfx_xlcdc.o
                0x23f038e4                DRV_XLCDC_IOCTL
 .text.gfxPixelBufferCreate
                0x23f03d20       0xdc build/dsi_xlcdc_rgba8888_ws_9x75_curiosity_720x720_round/debug/_ext/1966656405/gfx_driver.o
                0x23f03d20                gfxPixelBufferCreate
 .text.gfxPixelBufferOffsetGet
                0x23f03dfc       0x4c build/dsi_xlcdc_rgba8888_ws_9x75_curiosity_720x720_round/debug/_ext/1966656405/gfx_driver.o
                0x23f03dfc                gfxPixelBufferOffsetGet
 .text.gfxPixelBuffer_IsLocked
                0x23f03e48       0x10 build/dsi_xlcdc_rgba8888_ws_9x75_curiosity_720x720_round/debug/_ext/1966656405/gfx_driver.o
                0x23f03e48                gfxPixelBuffer_IsLocked
 .text.gfxPixelBuffer_SetLocked
                0x23f03e58       0x2c build/dsi_xlcdc_rgba8888_ws_9x75_curiosity_720x720_round/debug/_ext/1966656405/gfx_driver.o
                0x23f03e58                gfxPixelBuffer_SetLocked
 .text.leQueryArcQuadrants
                0x23f03e84      0x118 build/dsi_xlcdc_rgba8888_ws_9x75_curiosity_720x720_round/debug/_ext/105237591/legato_math.o
 .text.lePolarToXY
                0x23f03f9c      0x178 build/dsi_xlcdc_rgba8888_ws_9x75_curiosity_720x720_round/debug/_ext/105237591/legato_math.o
                0x23f03f9c                lePolarToXY
 .text.leMini   0x23f04114        0xc build/dsi_xlcdc_rgba8888_ws_9x75_curiosity_720x720_round/debug/_ext/105237591/legato_math.o
                0x23f04114                leMini
 .text.leMaxi   0x23f04120        0xc build/dsi_xlcdc_rgba8888_ws_9x75_curiosity_720x720_round/debug/_ext/105237591/legato_math.o
                0x23f04120                leMaxi
 .text.leClampi
                0x23f0412c       0x18 build/dsi_xlcdc_rgba8888_ws_9x75_curiosity_720x720_round/debug/_ext/105237591/legato_math.o
                0x23f0412c                leClampi
 .text.lePercent
                0x23f04144       0x1c build/dsi_xlcdc_rgba8888_ws_9x75_curiosity_720x720_round/debug/_ext/105237591/legato_math.o
                0x23f04144                lePercent
 .text.lePercentWholeRounded
                0x23f04160       0x3c build/dsi_xlcdc_rgba8888_ws_9x75_curiosity_720x720_round/debug/_ext/105237591/legato_math.o
                0x23f04160                lePercentWholeRounded
 .text.lePercentOf
                0x23f0419c       0x5c build/dsi_xlcdc_rgba8888_ws_9x75_curiosity_720x720_round/debug/_ext/105237591/legato_math.o
                0x23f0419c                lePercentOf
 .text.leScaleInteger
                0x23f041f8       0x44 build/dsi_xlcdc_rgba8888_ws_9x75_curiosity_720x720_round/debug/_ext/105237591/legato_math.o
                0x23f041f8                leScaleInteger
 .text.leLerp   0x23f0423c       0xe4 build/dsi_xlcdc_rgba8888_ws_9x75_curiosity_720x720_round/debug/_ext/105237591/legato_math.o
                0x23f0423c                leLerp
 .text.lePointOnLineSide
                0x23f04320       0x60 build/dsi_xlcdc_rgba8888_ws_9x75_curiosity_720x720_round/debug/_ext/105237591/legato_math.o
                0x23f04320                lePointOnLineSide
 .text.leRotatePoint
                0x23f04380      0x1e4 build/dsi_xlcdc_rgba8888_ws_9x75_curiosity_720x720_round/debug/_ext/105237591/legato_math.o
                0x23f04380                leRotatePoint
 .text.leRotatedRectBounds
                0x23f04564      0x750 build/dsi_xlcdc_rgba8888_ws_9x75_curiosity_720x720_round/debug/_ext/105237591/legato_math.o
                0x23f04564                leRotatedRectBounds
 .text.leSqrt   0x23f04cb4       0x58 build/dsi_xlcdc_rgba8888_ws_9x75_curiosity_720x720_round/debug/_ext/105237591/legato_math.o
                0x23f04cb4                leSqrt
 .text.lePointOnCircle
                0x23f04d0c      0x19c build/dsi_xlcdc_rgba8888_ws_9x75_curiosity_720x720_round/debug/_ext/105237591/legato_math.o
                0x23f04d0c                lePointOnCircle
 .text.leResolveAngles
                0x23f04ea8      0x414 build/dsi_xlcdc_rgba8888_ws_9x75_curiosity_720x720_round/debug/_ext/105237591/legato_math.o
                0x23f04ea8                leResolveAngles
 .text.leRound  0x23f052bc       0x88 build/dsi_xlcdc_rgba8888_ws_9x75_curiosity_720x720_round/debug/_ext/105237591/legato_math.o
                0x23f052bc                leRound
 .text.leRectContainsPoint
                0x23f05344       0x50 build/dsi_xlcdc_rgba8888_ws_9x75_curiosity_720x720_round/debug/_ext/105237591/legato_rect.o
                0x23f05344                leRectContainsPoint
 .text.leRectContainsRect
                0x23f05394       0x6c build/dsi_xlcdc_rgba8888_ws_9x75_curiosity_720x720_round/debug/_ext/105237591/legato_rect.o
                0x23f05394                leRectContainsRect
 .text.leRectIntersects
                0x23f05400       0x60 build/dsi_xlcdc_rgba8888_ws_9x75_curiosity_720x720_round/debug/_ext/105237591/legato_rect.o
                0x23f05400                leRectIntersects
 .text.leRectCombine
                0x23f05460       0x88 build/dsi_xlcdc_rgba8888_ws_9x75_curiosity_720x720_round/debug/_ext/105237591/legato_rect.o
                0x23f05460                leRectCombine
 .text.leRectClipAdj
                0x23f054e8      0x1a8 build/dsi_xlcdc_rgba8888_ws_9x75_curiosity_720x720_round/debug/_ext/105237591/legato_rect.o
                0x23f054e8                leRectClipAdj
 .text.leRectClip
                0x23f05690       0x98 build/dsi_xlcdc_rgba8888_ws_9x75_curiosity_720x720_round/debug/_ext/105237591/legato_rect.o
                0x23f05690                leRectClip
 .text.leRectCompare
                0x23f05728       0x50 build/dsi_xlcdc_rgba8888_ws_9x75_curiosity_720x720_round/debug/_ext/105237591/legato_rect.o
                0x23f05728                leRectCompare
 .text.leRectsAreSimilar
                0x23f05778       0xac build/dsi_xlcdc_rgba8888_ws_9x75_curiosity_720x720_round/debug/_ext/105237591/legato_rect.o
                0x23f05778                leRectsAreSimilar
 .text.leUtils_PickFromWidget
                0x23f05824       0xc4 build/dsi_xlcdc_rgba8888_ws_9x75_curiosity_720x720_round/debug/_ext/105237591/legato_utils.o
                0x23f05824                leUtils_PickFromWidget
 .text.leUtils_RectToScreenSpace
                0x23f058e8       0x50 build/dsi_xlcdc_rgba8888_ws_9x75_curiosity_720x720_round/debug/_ext/105237591/legato_utils.o
                0x23f058e8                leUtils_RectToScreenSpace
 .text.leUtils_ClipRectToAncestors
                0x23f05938       0x94 build/dsi_xlcdc_rgba8888_ws_9x75_curiosity_720x720_round/debug/_ext/105237591/legato_utils.o
                0x23f05938                leUtils_ClipRectToAncestors
 .text.leUtils_ArrangeRectangle
                0x23f059cc      0x298 build/dsi_xlcdc_rgba8888_ws_9x75_curiosity_720x720_round/debug/_ext/105237591/legato_utils.o
                0x23f059cc                leUtils_ArrangeRectangle
 .text.leUtils_ArrangeRectangleRelative
                0x23f05c64      0x2b8 build/dsi_xlcdc_rgba8888_ws_9x75_curiosity_720x720_round/debug/_ext/105237591/legato_utils.o
                0x23f05c64                leUtils_ArrangeRectangleRelative
 .text.leUtils_GetSchemeLookupTable
                0x23f05f1c       0x60 build/dsi_xlcdc_rgba8888_ws_9x75_curiosity_720x720_round/debug/_ext/105237591/legato_utils.o
                0x23f05f1c                leUtils_GetSchemeLookupTable
 .text.leColorBlend_RGBA_8888
                0x23f05f7c      0x170 build/dsi_xlcdc_rgba8888_ws_9x75_curiosity_720x720_round/debug/_ext/105237591/legato_color_blend.o
                0x23f05f7c                leColorBlend_RGBA_8888
 .text.leColorBlend_ARGB_8888
                0x23f060ec      0x144 build/dsi_xlcdc_rgba8888_ws_9x75_curiosity_720x720_round/debug/_ext/105237591/legato_color_blend.o
                0x23f060ec                leColorBlend_ARGB_8888
 .text.leColorChannelAlpha
                0x23f06230       0x30 build/dsi_xlcdc_rgba8888_ws_9x75_curiosity_720x720_round/debug/_ext/105237591/legato_color.o
                0x23f06230                leColorChannelAlpha
 .text.leColorSwap
                0x23f06260       0x9c build/dsi_xlcdc_rgba8888_ws_9x75_curiosity_720x720_round/debug/_ext/105237591/legato_color.o
                0x23f06260                leColorSwap
 .text.lerp_rgba8888
                0x23f062fc       0x78 build/dsi_xlcdc_rgba8888_ws_9x75_curiosity_720x720_round/debug/_ext/105237591/legato_color_lerp.o
 .text.lerp_rgb888
                0x23f06374       0x60 build/dsi_xlcdc_rgba8888_ws_9x75_curiosity_720x720_round/debug/_ext/105237591/legato_color_lerp.o
 .text.lerp_rgba5551
                0x23f063d4       0x74 build/dsi_xlcdc_rgba8888_ws_9x75_curiosity_720x720_round/debug/_ext/105237591/legato_color_lerp.o
 .text.lerp_rgb565
                0x23f06448       0x60 build/dsi_xlcdc_rgba8888_ws_9x75_curiosity_720x720_round/debug/_ext/105237591/legato_color_lerp.o
 .text.lerp_rgb332
                0x23f064a8       0x60 build/dsi_xlcdc_rgba8888_ws_9x75_curiosity_720x720_round/debug/_ext/105237591/legato_color_lerp.o
 .text.lerp_gs8
                0x23f06508        0x4 build/dsi_xlcdc_rgba8888_ws_9x75_curiosity_720x720_round/debug/_ext/105237591/legato_color_lerp.o
 .text.lerp_argb8888
                0x23f0650c       0x78 build/dsi_xlcdc_rgba8888_ws_9x75_curiosity_720x720_round/debug/_ext/105237591/legato_color_lerp.o
 .text.leColorBilerp
                0x23f06584       0xc4 build/dsi_xlcdc_rgba8888_ws_9x75_curiosity_720x720_round/debug/_ext/105237591/legato_color_lerp.o
                0x23f06584                leColorBilerp
 .text.indexGet1bpp
                0x23f06648       0x20 build/dsi_xlcdc_rgba8888_ws_9x75_curiosity_720x720_round/debug/_ext/105237591/legato_pixelbuffer.o
 .text.indexGet4bpp
                0x23f06668       0x18 build/dsi_xlcdc_rgba8888_ws_9x75_curiosity_720x720_round/debug/_ext/105237591/legato_pixelbuffer.o
 .text.indexGet
                0x23f06680       0x54 build/dsi_xlcdc_rgba8888_ws_9x75_curiosity_720x720_round/debug/_ext/105237591/legato_pixelbuffer.o
 .text.get1byte
                0x23f066d4        0x8 build/dsi_xlcdc_rgba8888_ws_9x75_curiosity_720x720_round/debug/_ext/105237591/legato_pixelbuffer.o
 .text.get2byte
                0x23f066dc        0x8 build/dsi_xlcdc_rgba8888_ws_9x75_curiosity_720x720_round/debug/_ext/105237591/legato_pixelbuffer.o
 .text.get3byte
                0x23f066e4       0x1c build/dsi_xlcdc_rgba8888_ws_9x75_curiosity_720x720_round/debug/_ext/105237591/legato_pixelbuffer.o
 .text.get4byte
                0x23f06700        0x8 build/dsi_xlcdc_rgba8888_ws_9x75_curiosity_720x720_round/debug/_ext/105237591/legato_pixelbuffer.o
 .text.set1byte
                0x23f06708        0xc build/dsi_xlcdc_rgba8888_ws_9x75_curiosity_720x720_round/debug/_ext/105237591/legato_pixelbuffer.o
 .text.set2byte
                0x23f06714        0xc build/dsi_xlcdc_rgba8888_ws_9x75_curiosity_720x720_round/debug/_ext/105237591/legato_pixelbuffer.o
 .text.set3byte
                0x23f06720       0x1c build/dsi_xlcdc_rgba8888_ws_9x75_curiosity_720x720_round/debug/_ext/105237591/legato_pixelbuffer.o
 .text.set4byte
                0x23f0673c        0xc build/dsi_xlcdc_rgba8888_ws_9x75_curiosity_720x720_round/debug/_ext/105237591/legato_pixelbuffer.o
 .text.lePixelBufferCreate
                0x23f06748       0xd4 build/dsi_xlcdc_rgba8888_ws_9x75_curiosity_720x720_round/debug/_ext/105237591/legato_pixelbuffer.o
                0x23f06748                lePixelBufferCreate
 .text.lePixelBufferOffsetGet
                0x23f0681c       0x60 build/dsi_xlcdc_rgba8888_ws_9x75_curiosity_720x720_round/debug/_ext/105237591/legato_pixelbuffer.o
                0x23f0681c                lePixelBufferOffsetGet
 .text.lePixelBufferGet_Unsafe
                0x23f0687c       0x7c build/dsi_xlcdc_rgba8888_ws_9x75_curiosity_720x720_round/debug/_ext/105237591/legato_pixelbuffer.o
                0x23f0687c                lePixelBufferGet_Unsafe
 .text.lePixelBufferGetIndex_Unsafe
                0x23f068f8       0x24 build/dsi_xlcdc_rgba8888_ws_9x75_curiosity_720x720_round/debug/_ext/105237591/legato_pixelbuffer.o
                0x23f068f8                lePixelBufferGetIndex_Unsafe
 .text.lePixelBufferSet
                0x23f0691c       0x98 build/dsi_xlcdc_rgba8888_ws_9x75_curiosity_720x720_round/debug/_ext/105237591/legato_pixelbuffer.o
                0x23f0691c                lePixelBufferSet
 .text.lePixelBufferSet_Unsafe
                0x23f069b4       0x7c build/dsi_xlcdc_rgba8888_ws_9x75_curiosity_720x720_round/debug/_ext/105237591/legato_pixelbuffer.o
                0x23f069b4                lePixelBufferSet_Unsafe
 .text.lePixelBufferAreaFill_Unsafe
                0x23f06a30      0x208 build/dsi_xlcdc_rgba8888_ws_9x75_curiosity_720x720_round/debug/_ext/105237591/legato_pixelbuffer.o
                0x23f06a30                lePixelBufferAreaFill_Unsafe
 .text.lePixelBufferAreaFill
                0x23f06c38       0x94 build/dsi_xlcdc_rgba8888_ws_9x75_curiosity_720x720_round/debug/_ext/105237591/legato_pixelbuffer.o
                0x23f06c38                lePixelBufferAreaFill
 .text.lePixelBufferCopy
                0x23f06ccc      0x1b8 build/dsi_xlcdc_rgba8888_ws_9x75_curiosity_720x720_round/debug/_ext/105237591/legato_pixelbuffer.o
                0x23f06ccc                lePixelBufferCopy
 .text.no_conv  0x23f06e84        0x4 build/dsi_xlcdc_rgba8888_ws_9x75_curiosity_720x720_round/debug/_ext/105237591/legato_color_convert.o
 .text.gs8_rgb332
                0x23f06e88       0x10 build/dsi_xlcdc_rgba8888_ws_9x75_curiosity_720x720_round/debug/_ext/105237591/legato_color_convert.o
 .text.gs8_rgb565
                0x23f06e98       0x20 build/dsi_xlcdc_rgba8888_ws_9x75_curiosity_720x720_round/debug/_ext/105237591/legato_color_convert.o
 .text.gs8_rgba5551
                0x23f06eb8       0x28 build/dsi_xlcdc_rgba8888_ws_9x75_curiosity_720x720_round/debug/_ext/105237591/legato_color_convert.o
 .text.gs8_rgb888
                0x23f06ee0       0x10 build/dsi_xlcdc_rgba8888_ws_9x75_curiosity_720x720_round/debug/_ext/105237591/legato_color_convert.o
 .text.gs8_rgba8888
                0x23f06ef0       0x14 build/dsi_xlcdc_rgba8888_ws_9x75_curiosity_720x720_round/debug/_ext/105237591/legato_color_convert.o
 .text.gs8_argb8888
                0x23f06f04       0x14 build/dsi_xlcdc_rgba8888_ws_9x75_curiosity_720x720_round/debug/_ext/105237591/legato_color_convert.o
 .text.gs8_mono
                0x23f06f18       0x10 build/dsi_xlcdc_rgba8888_ws_9x75_curiosity_720x720_round/debug/_ext/105237591/legato_color_convert.o
 .text.rgb332_rgb565
                0x23f06f28       0x2c build/dsi_xlcdc_rgba8888_ws_9x75_curiosity_720x720_round/debug/_ext/105237591/legato_color_convert.o
 .text.rgb332_rgba5551
                0x23f06f54       0x2c build/dsi_xlcdc_rgba8888_ws_9x75_curiosity_720x720_round/debug/_ext/105237591/legato_color_convert.o
 .text.rgb332_rgb888
                0x23f06f80       0x30 build/dsi_xlcdc_rgba8888_ws_9x75_curiosity_720x720_round/debug/_ext/105237591/legato_color_convert.o
 .text.rgb332_rgba8888
                0x23f06fb0       0x34 build/dsi_xlcdc_rgba8888_ws_9x75_curiosity_720x720_round/debug/_ext/105237591/legato_color_convert.o
 .text.rgb332_argb8888
                0x23f06fe4       0x30 build/dsi_xlcdc_rgba8888_ws_9x75_curiosity_720x720_round/debug/_ext/105237591/legato_color_convert.o
 .text.rgb565_rgb332
                0x23f07014       0x20 build/dsi_xlcdc_rgba8888_ws_9x75_curiosity_720x720_round/debug/_ext/105237591/legato_color_convert.o
 .text.rgb565_rgba5551
                0x23f07034       0x20 build/dsi_xlcdc_rgba8888_ws_9x75_curiosity_720x720_round/debug/_ext/105237591/legato_color_convert.o
 .text.rgb565_rgb888
                0x23f07054       0x24 build/dsi_xlcdc_rgba8888_ws_9x75_curiosity_720x720_round/debug/_ext/105237591/legato_color_convert.o
 .text.rgb565_rgba8888
                0x23f07078       0x2c build/dsi_xlcdc_rgba8888_ws_9x75_curiosity_720x720_round/debug/_ext/105237591/legato_color_convert.o
 .text.rgb565_argb8888
                0x23f070a4       0x28 build/dsi_xlcdc_rgba8888_ws_9x75_curiosity_720x720_round/debug/_ext/105237591/legato_color_convert.o
 .text.rgba5551_rgb332
                0x23f070cc       0x20 build/dsi_xlcdc_rgba8888_ws_9x75_curiosity_720x720_round/debug/_ext/105237591/legato_color_convert.o
 .text.rgba5551_rgb565
                0x23f070ec       0x1c build/dsi_xlcdc_rgba8888_ws_9x75_curiosity_720x720_round/debug/_ext/105237591/legato_color_convert.o
 .text.rgba5551_rgb888
                0x23f07108       0x30 build/dsi_xlcdc_rgba8888_ws_9x75_curiosity_720x720_round/debug/_ext/105237591/legato_color_convert.o
 .text.rgba5551_rgba8888
                0x23f07138       0x38 build/dsi_xlcdc_rgba8888_ws_9x75_curiosity_720x720_round/debug/_ext/105237591/legato_color_convert.o
 .text.rgba5551_argb8888
                0x23f07170       0x3c build/dsi_xlcdc_rgba8888_ws_9x75_curiosity_720x720_round/debug/_ext/105237591/legato_color_convert.o
 .text.rgb888_rgb332
                0x23f071ac       0x24 build/dsi_xlcdc_rgba8888_ws_9x75_curiosity_720x720_round/debug/_ext/105237591/legato_color_convert.o
 .text.rgb888_rgb565
                0x23f071d0       0x20 build/dsi_xlcdc_rgba8888_ws_9x75_curiosity_720x720_round/debug/_ext/105237591/legato_color_convert.o
 .text.rgb888_rgba5551
                0x23f071f0       0x28 build/dsi_xlcdc_rgba8888_ws_9x75_curiosity_720x720_round/debug/_ext/105237591/legato_color_convert.o
 .text.rgb888_rgba8888
                0x23f07218        0xc build/dsi_xlcdc_rgba8888_ws_9x75_curiosity_720x720_round/debug/_ext/105237591/legato_color_convert.o
 .text.rgb888_argb8888
                0x23f07224        0x8 build/dsi_xlcdc_rgba8888_ws_9x75_curiosity_720x720_round/debug/_ext/105237591/legato_color_convert.o
 .text.rgba8888_rgb332
                0x23f0722c       0x20 build/dsi_xlcdc_rgba8888_ws_9x75_curiosity_720x720_round/debug/_ext/105237591/legato_color_convert.o
 .text.rgba8888_rgb565
                0x23f0724c       0x20 build/dsi_xlcdc_rgba8888_ws_9x75_curiosity_720x720_round/debug/_ext/105237591/legato_color_convert.o
 .text.rgba8888_rgba5551
                0x23f0726c       0x34 build/dsi_xlcdc_rgba8888_ws_9x75_curiosity_720x720_round/debug/_ext/105237591/legato_color_convert.o
 .text.rgba8888_rgb888
                0x23f072a0        0x8 build/dsi_xlcdc_rgba8888_ws_9x75_curiosity_720x720_round/debug/_ext/105237591/legato_color_convert.o
 .text.rgba8888_argb8888
                0x23f072a8        0x8 build/dsi_xlcdc_rgba8888_ws_9x75_curiosity_720x720_round/debug/_ext/105237591/legato_color_convert.o
 .text.argb8888_rgba5551
                0x23f072b0       0x34 build/dsi_xlcdc_rgba8888_ws_9x75_curiosity_720x720_round/debug/_ext/105237591/legato_color_convert.o
 .text.argb8888_rgb888
                0x23f072e4        0x8 build/dsi_xlcdc_rgba8888_ws_9x75_curiosity_720x720_round/debug/_ext/105237591/legato_color_convert.o
 .text.argb8888_rgba8888
                0x23f072ec        0x8 build/dsi_xlcdc_rgba8888_ws_9x75_curiosity_720x720_round/debug/_ext/105237591/legato_color_convert.o
 .text.rgb565_gs8
                0x23f072f4       0x54 build/dsi_xlcdc_rgba8888_ws_9x75_curiosity_720x720_round/debug/_ext/105237591/legato_color_convert.o
 .text.rgb332_gs8
                0x23f07348       0x54 build/dsi_xlcdc_rgba8888_ws_9x75_curiosity_720x720_round/debug/_ext/105237591/legato_color_convert.o
 .text.rgba8888_gs8
                0x23f0739c        0x4 build/dsi_xlcdc_rgba8888_ws_9x75_curiosity_720x720_round/debug/_ext/105237591/legato_color_convert.o
 .text.rgba5551_gs8
                0x23f073a0        0x4 build/dsi_xlcdc_rgba8888_ws_9x75_curiosity_720x720_round/debug/_ext/105237591/legato_color_convert.o
 .text.rgb888_gs8
                0x23f073a4        0x4 build/dsi_xlcdc_rgba8888_ws_9x75_curiosity_720x720_round/debug/_ext/105237591/legato_color_convert.o
 .text.leColorConvert
                0x23f073a8       0x20 build/dsi_xlcdc_rgba8888_ws_9x75_curiosity_720x720_round/debug/_ext/105237591/legato_color_convert.o
                0x23f073a8                leColorConvert
 .text._leGetEventState
                0x23f073c8        0xc build/dsi_xlcdc_rgba8888_ws_9x75_curiosity_720x720_round/debug/_ext/884805853/legato_event.o
                0x23f073c8                _leGetEventState
 .text.leEvent_Init
                0x23f073d4       0x20 build/dsi_xlcdc_rgba8888_ws_9x75_curiosity_720x720_round/debug/_ext/884805853/legato_event.o
                0x23f073d4                leEvent_Init
 .text.leEvent_AddEvent
                0x23f073f4       0x28 build/dsi_xlcdc_rgba8888_ws_9x75_curiosity_720x720_round/debug/_ext/884805853/legato_event.o
                0x23f073f4                leEvent_AddEvent
 .text.leEvent_ProcessEvents
                0x23f0741c       0xa4 build/dsi_xlcdc_rgba8888_ws_9x75_curiosity_720x720_round/debug/_ext/884805853/legato_event.o
                0x23f0741c                leEvent_ProcessEvents
 .text.leScheme_GetRenderColor
                0x23f074c0       0x38 build/dsi_xlcdc_rgba8888_ws_9x75_curiosity_720x720_round/debug/_ext/884805853/legato_scheme.o
                0x23f074c0                leScheme_GetRenderColor
 .text.leInput_Init
                0x23f074f8       0x2c build/dsi_xlcdc_rgba8888_ws_9x75_curiosity_720x720_round/debug/_ext/884805853/legato_input.o
                0x23f074f8                leInput_Init
 .text.leInput_InjectTouchDown
                0x23f07524       0xb0 build/dsi_xlcdc_rgba8888_ws_9x75_curiosity_720x720_round/debug/_ext/884805853/legato_input.o
                0x23f07524                leInput_InjectTouchDown
 .text.leInput_InjectTouchUp
                0x23f075d4       0x94 build/dsi_xlcdc_rgba8888_ws_9x75_curiosity_720x720_round/debug/_ext/884805853/legato_input.o
                0x23f075d4                leInput_InjectTouchUp
 .text.leInput_InjectTouchMoved
                0x23f07668      0x114 build/dsi_xlcdc_rgba8888_ws_9x75_curiosity_720x720_round/debug/_ext/884805853/legato_input.o
                0x23f07668                leInput_InjectTouchMoved
 .text.handleTouchDown
                0x23f0777c      0x118 build/dsi_xlcdc_rgba8888_ws_9x75_curiosity_720x720_round/debug/_ext/884805853/legato_input.o
                0x23f0777c                handleTouchDown
 .text._leInput_HandleInputEvent
                0x23f07894       0xf0 build/dsi_xlcdc_rgba8888_ws_9x75_curiosity_720x720_round/debug/_ext/884805853/legato_input.o
                0x23f07894                _leInput_HandleInputEvent
 .text.updateWidget
                0x23f07984       0x4c build/dsi_xlcdc_rgba8888_ws_9x75_curiosity_720x720_round/debug/_ext/884805853/legato_state.o
 .text.leGetState
                0x23f079d0        0xc build/dsi_xlcdc_rgba8888_ws_9x75_curiosity_720x720_round/debug/_ext/884805853/legato_state.o
                0x23f079d0                leGetState
 .text.leUpdate
                0x23f079dc      0x148 build/dsi_xlcdc_rgba8888_ws_9x75_curiosity_720x720_round/debug/_ext/884805853/legato_state.o
                0x23f079dc                leUpdate
 .text.leAddLayer
                0x23f07b24       0xb4 build/dsi_xlcdc_rgba8888_ws_9x75_curiosity_720x720_round/debug/_ext/884805853/legato_state.o
                0x23f07b24                leAddLayer
 .text.leInitialize
                0x23f07bd8       0xa4 build/dsi_xlcdc_rgba8888_ws_9x75_curiosity_720x720_round/debug/_ext/884805853/legato_state.o
                0x23f07bd8                leInitialize
 .text.leGetLayerState
                0x23f07c7c       0x3c build/dsi_xlcdc_rgba8888_ws_9x75_curiosity_720x720_round/debug/_ext/884805853/legato_state.o
                0x23f07c7c                leGetLayerState
 .text.leGetLayerColorMode
                0x23f07cb8       0x48 build/dsi_xlcdc_rgba8888_ws_9x75_curiosity_720x720_round/debug/_ext/884805853/legato_state.o
                0x23f07cb8                leGetLayerColorMode
 .text.leSetLayerColorMode
                0x23f07d00       0xa0 build/dsi_xlcdc_rgba8888_ws_9x75_curiosity_720x720_round/debug/_ext/884805853/legato_state.o
                0x23f07d00                leSetLayerColorMode
 .text.leGetLayerRenderHorizontal
                0x23f07da0       0x48 build/dsi_xlcdc_rgba8888_ws_9x75_curiosity_720x720_round/debug/_ext/884805853/legato_state.o
                0x23f07da0                leGetLayerRenderHorizontal
 .text.leSetStringTable
                0x23f07de8       0x50 build/dsi_xlcdc_rgba8888_ws_9x75_curiosity_720x720_round/debug/_ext/884805853/legato_state.o
                0x23f07de8                leSetStringTable
 .text.leGetFocusWidget
                0x23f07e38       0x10 build/dsi_xlcdc_rgba8888_ws_9x75_curiosity_720x720_round/debug/_ext/884805853/legato_state.o
                0x23f07e38                leGetFocusWidget
 .text.leSetFocusWidget
                0x23f07e48       0x78 build/dsi_xlcdc_rgba8888_ws_9x75_curiosity_720x720_round/debug/_ext/884805853/legato_state.o
                0x23f07e48                leSetFocusWidget
 .text.leGetEditWidget
                0x23f07ec0       0x10 build/dsi_xlcdc_rgba8888_ws_9x75_curiosity_720x720_round/debug/_ext/884805853/legato_state.o
                0x23f07ec0                leGetEditWidget
 .text.leSetEditWidget
                0x23f07ed0       0x6c build/dsi_xlcdc_rgba8888_ws_9x75_curiosity_720x720_round/debug/_ext/884805853/legato_state.o
                0x23f07ed0                leSetEditWidget
 .text.leIsDrawing
                0x23f07f3c       0x14 build/dsi_xlcdc_rgba8888_ws_9x75_curiosity_720x720_round/debug/_ext/884805853/legato_state.o
                0x23f07f3c                leIsDrawing
 .text.leAddRootWidget
                0x23f07f50       0x5c build/dsi_xlcdc_rgba8888_ws_9x75_curiosity_720x720_round/debug/_ext/884805853/legato_state.o
                0x23f07f50                leAddRootWidget
 .text.leRemoveRootWidget
                0x23f07fac       0x6c build/dsi_xlcdc_rgba8888_ws_9x75_curiosity_720x720_round/debug/_ext/884805853/legato_state.o
                0x23f07fac                leRemoveRootWidget
 .text.leWidgetIsInScene
                0x23f08018       0x88 build/dsi_xlcdc_rgba8888_ws_9x75_curiosity_720x720_round/debug/_ext/884805853/legato_state.o
                0x23f08018                leWidgetIsInScene
 .text.leGetWidgetLayer
                0x23f080a0       0x84 build/dsi_xlcdc_rgba8888_ws_9x75_curiosity_720x720_round/debug/_ext/884805853/legato_state.o
                0x23f080a0                leGetWidgetLayer
 .text.leArray_Create
                0x23f08124       0x1c build/dsi_xlcdc_rgba8888_ws_9x75_curiosity_720x720_round/debug/_ext/778592651/legato_array.o
                0x23f08124                leArray_Create
 .text.leArray_PushBack
                0x23f08140       0x7c build/dsi_xlcdc_rgba8888_ws_9x75_curiosity_720x720_round/debug/_ext/778592651/legato_array.o
                0x23f08140                leArray_PushBack
 .text.leArray_InsertAt
                0x23f081bc      0x18c build/dsi_xlcdc_rgba8888_ws_9x75_curiosity_720x720_round/debug/_ext/778592651/legato_array.o
                0x23f081bc                leArray_InsertAt
 .text.leArray_RemoveAt
                0x23f08348       0x68 build/dsi_xlcdc_rgba8888_ws_9x75_curiosity_720x720_round/debug/_ext/778592651/legato_array.o
                0x23f08348                leArray_RemoveAt
 .text.leArray_Remove
                0x23f083b0       0xb8 build/dsi_xlcdc_rgba8888_ws_9x75_curiosity_720x720_round/debug/_ext/778592651/legato_array.o
                0x23f083b0                leArray_Remove
 .text.leArray_Get
                0x23f08468       0x18 build/dsi_xlcdc_rgba8888_ws_9x75_curiosity_720x720_round/debug/_ext/778592651/legato_array.o
                0x23f08468                leArray_Get
 .text.leArray_Find
                0x23f08480       0x5c build/dsi_xlcdc_rgba8888_ws_9x75_curiosity_720x720_round/debug/_ext/778592651/legato_array.o
                0x23f08480                leArray_Find
 .text.leArray_Clear
                0x23f084dc       0x38 build/dsi_xlcdc_rgba8888_ws_9x75_curiosity_720x720_round/debug/_ext/778592651/legato_array.o
                0x23f084dc                leArray_Clear
 .text.leRectArray_SortBySize.part.1
                0x23f08514       0xb0 build/dsi_xlcdc_rgba8888_ws_9x75_curiosity_720x720_round/debug/_ext/778592651/legato_rectarray.o
 .text.leRectArray_Create
                0x23f085c4       0x1c build/dsi_xlcdc_rgba8888_ws_9x75_curiosity_720x720_round/debug/_ext/778592651/legato_rectarray.o
                0x23f085c4                leRectArray_Create
 .text.leRectArray_PushBack
                0x23f085e0       0x9c build/dsi_xlcdc_rgba8888_ws_9x75_curiosity_720x720_round/debug/_ext/778592651/legato_rectarray.o
                0x23f085e0                leRectArray_PushBack
 .text.leRectArray_RemoveAt
                0x23f0867c       0x90 build/dsi_xlcdc_rgba8888_ws_9x75_curiosity_720x720_round/debug/_ext/778592651/legato_rectarray.o
                0x23f0867c                leRectArray_RemoveAt
 .text.leRectArray_Copy
                0x23f0870c       0x94 build/dsi_xlcdc_rgba8888_ws_9x75_curiosity_720x720_round/debug/_ext/778592651/legato_rectarray.o
                0x23f0870c                leRectArray_Copy
 .text.leRectArray_Clear
                0x23f087a0       0x14 build/dsi_xlcdc_rgba8888_ws_9x75_curiosity_720x720_round/debug/_ext/778592651/legato_rectarray.o
                0x23f087a0                leRectArray_Clear
 .text.leRectArray_Destroy
                0x23f087b4       0x3c build/dsi_xlcdc_rgba8888_ws_9x75_curiosity_720x720_round/debug/_ext/778592651/legato_rectarray.o
                0x23f087b4                leRectArray_Destroy
 .text.leRectArray_RemoveDuplicates
                0x23f087f0       0xf8 build/dsi_xlcdc_rgba8888_ws_9x75_curiosity_720x720_round/debug/_ext/778592651/legato_rectarray.o
                0x23f087f0                leRectArray_RemoveDuplicates
 .text.leRectArray_SortByX
                0x23f088e8       0xf8 build/dsi_xlcdc_rgba8888_ws_9x75_curiosity_720x720_round/debug/_ext/778592651/legato_rectarray.o
                0x23f088e8                leRectArray_SortByX
 .text.leRectArray_SortByY
                0x23f089e0       0xfc build/dsi_xlcdc_rgba8888_ws_9x75_curiosity_720x720_round/debug/_ext/778592651/legato_rectarray.o
                0x23f089e0                leRectArray_SortByY
 .text.leRectArray_MergeSimilar
                0x23f08adc       0xfc build/dsi_xlcdc_rgba8888_ws_9x75_curiosity_720x720_round/debug/_ext/778592651/legato_rectarray.o
                0x23f08adc                leRectArray_MergeSimilar
 .text.leRectArray_RemoveOverlapping
                0x23f08bd8       0xf0 build/dsi_xlcdc_rgba8888_ws_9x75_curiosity_720x720_round/debug/_ext/778592651/legato_rectarray.o
                0x23f08bd8                leRectArray_RemoveOverlapping
 .text.leRectArray_CropToSizeY
                0x23f08cc8      0x18c build/dsi_xlcdc_rgba8888_ws_9x75_curiosity_720x720_round/debug/_ext/778592651/legato_rectarray.o
                0x23f08cc8                leRectArray_CropToSizeY
 .text.leRectArray_CropToSizeX
                0x23f08e54      0x18c build/dsi_xlcdc_rgba8888_ws_9x75_curiosity_720x720_round/debug/_ext/778592651/legato_rectarray.o
                0x23f08e54                leRectArray_CropToSizeX
 .text.leList_Create
                0x23f08fe0       0x1c build/dsi_xlcdc_rgba8888_ws_9x75_curiosity_720x720_round/debug/_ext/778592651/legato_list.o
                0x23f08fe0                leList_Create
 .text.leList_PushBack
                0x23f08ffc       0x58 build/dsi_xlcdc_rgba8888_ws_9x75_curiosity_720x720_round/debug/_ext/778592651/legato_list.o
                0x23f08ffc                leList_PushBack
 .text.leList_Get
                0x23f09054       0x44 build/dsi_xlcdc_rgba8888_ws_9x75_curiosity_720x720_round/debug/_ext/778592651/legato_list.o
                0x23f09054                leList_Get
 .text.leList_Remove
                0x23f09098       0xa4 build/dsi_xlcdc_rgba8888_ws_9x75_curiosity_720x720_round/debug/_ext/778592651/legato_list.o
                0x23f09098                leList_Remove
 .text.leList_Destroy
                0x23f0913c       0x48 build/dsi_xlcdc_rgba8888_ws_9x75_curiosity_720x720_round/debug/_ext/778592651/legato_list.o
                0x23f0913c                leList_Destroy
 .text.drawGlyphRow8bpp
                0x23f09184       0xfc build/dsi_xlcdc_rgba8888_ws_9x75_curiosity_720x720_round/debug/_ext/884895117/legato_font.o
 .text.drawGlyphRow8bppMono
                0x23f09280       0x64 build/dsi_xlcdc_rgba8888_ws_9x75_curiosity_720x720_round/debug/_ext/884895117/legato_font.o
 .text.drawGlyphRow1bppMono
                0x23f092e4       0x64 build/dsi_xlcdc_rgba8888_ws_9x75_curiosity_720x720_round/debug/_ext/884895117/legato_font.o
 .text.drawGlyphRow1bpp
                0x23f09348       0xd0 build/dsi_xlcdc_rgba8888_ws_9x75_curiosity_720x720_round/debug/_ext/884895117/legato_font.o
 .text._drawUnknownGlyph.isra.1
                0x23f09418       0xf4 build/dsi_xlcdc_rgba8888_ws_9x75_curiosity_720x720_round/debug/_ext/884895117/legato_font.o
 .text.leFont_GetGlyphInfo
                0x23f0950c       0xd4 build/dsi_xlcdc_rgba8888_ws_9x75_curiosity_720x720_round/debug/_ext/884895117/legato_font.o
                0x23f0950c                leFont_GetGlyphInfo
 .text.leFont_DrawGlyphData
                0x23f095e0      0x120 build/dsi_xlcdc_rgba8888_ws_9x75_curiosity_720x720_round/debug/_ext/884895117/legato_font.o
                0x23f095e0                leFont_DrawGlyphData
 .text.leFont_DrawGlyphData_Lookup
                0x23f09700      0x2a4 build/dsi_xlcdc_rgba8888_ws_9x75_curiosity_720x720_round/debug/_ext/884895117/legato_font.o
                0x23f09700                leFont_DrawGlyphData_Lookup
 .text.leFont_DrawGlyph
                0x23f099a4       0xb4 build/dsi_xlcdc_rgba8888_ws_9x75_curiosity_720x720_round/debug/_ext/884895117/legato_font.o
                0x23f099a4                leFont_DrawGlyph
 .text.leFont_DrawGlyph_Lookup
                0x23f09a58       0xb8 build/dsi_xlcdc_rgba8888_ws_9x75_curiosity_720x720_round/debug/_ext/884895117/legato_font.o
                0x23f09a58                leFont_DrawGlyph_Lookup
 .text.screenInit_Screen0
                0x23f09b10       0x24 build/dsi_xlcdc_rgba8888_ws_9x75_curiosity_720x720_round/debug/_ext/1322619606/le_gen_screen_Screen0.o
                0x23f09b10                screenInit_Screen0
 .text.screenShow_Screen0
                0x23f09b34      0x8e4 build/dsi_xlcdc_rgba8888_ws_9x75_curiosity_720x720_round/debug/_ext/1322619606/le_gen_screen_Screen0.o
                0x23f09b34                screenShow_Screen0
 .text.screenUpdate_Screen0
                0x23f0a418       0x8c build/dsi_xlcdc_rgba8888_ws_9x75_curiosity_720x720_round/debug/_ext/1322619606/le_gen_screen_Screen0.o
                0x23f0a418                screenUpdate_Screen0
 .text.screenHide_Screen0
                0x23f0a4a4      0x11c build/dsi_xlcdc_rgba8888_ws_9x75_curiosity_720x720_round/debug/_ext/1322619606/le_gen_screen_Screen0.o
                0x23f0a4a4                screenHide_Screen0
 .text.touchMoveHandler
                0x23f0a5c0       0x10 build/dsi_xlcdc_rgba8888_ws_9x75_curiosity_720x720_round/debug/_ext/1965903633/le_gen_harmony.o
 .text.touchUpHandler
                0x23f0a5d0       0x10 build/dsi_xlcdc_rgba8888_ws_9x75_curiosity_720x720_round/debug/_ext/1965903633/le_gen_harmony.o
 .text.touchDownHandler
                0x23f0a5e0       0x10 build/dsi_xlcdc_rgba8888_ws_9x75_curiosity_720x720_round/debug/_ext/1965903633/le_gen_harmony.o
 .text.Legato_Initialize
                0x23f0a5f0       0x98 build/dsi_xlcdc_rgba8888_ws_9x75_curiosity_720x720_round/debug/_ext/1965903633/le_gen_harmony.o
                0x23f0a5f0                Legato_Initialize
 .text.Legato_Tasks
                0x23f0a688       0x48 build/dsi_xlcdc_rgba8888_ws_9x75_curiosity_720x720_round/debug/_ext/1965903633/le_gen_harmony.o
                0x23f0a688                Legato_Tasks
 .text.initializeStrings
                0x23f0a6d0       0x88 build/dsi_xlcdc_rgba8888_ws_9x75_curiosity_720x720_round/debug/_ext/1965903633/le_gen_stringtable.o
                0x23f0a6d0                initializeStrings
 .text.legato_initializeScreenState
                0x23f0a758       0x3c build/dsi_xlcdc_rgba8888_ws_9x75_curiosity_720x720_round/debug/_ext/1965903633/le_gen_init.o
                0x23f0a758                legato_initializeScreenState
 .text.legato_updateScreenState
                0x23f0a794       0x78 build/dsi_xlcdc_rgba8888_ws_9x75_curiosity_720x720_round/debug/_ext/1965903633/le_gen_init.o
                0x23f0a794                legato_updateScreenState
 .text.JPEG_bGet1Bit
                0x23f0a80c      0x138 build/dsi_xlcdc_rgba8888_ws_9x75_curiosity_720x720_round/debug/_ext/979623078/legato_imagedecoder_jpeg_common.o
 .text.JPEG_vResetDecoder
                0x23f0a944        0xc build/dsi_xlcdc_rgba8888_ws_9x75_curiosity_720x720_round/debug/_ext/979623078/legato_imagedecoder_jpeg_common.o
                0x23f0a944                JPEG_vResetDecoder
 .text.JPEG_bReadHeader
                0x23f0a950      0xae4 build/dsi_xlcdc_rgba8888_ws_9x75_curiosity_720x720_round/debug/_ext/979623078/legato_imagedecoder_jpeg_common.o
                0x23f0a950                JPEG_bReadHeader
 .text.JPEG_bGenerateHuffmanTables
                0x23f0b434      0x4a8 build/dsi_xlcdc_rgba8888_ws_9x75_curiosity_720x720_round/debug/_ext/979623078/legato_imagedecoder_jpeg_common.o
                0x23f0b434                JPEG_bGenerateHuffmanTables
 .text.JPEG_bDecodeOneBlock
                0x23f0b8dc      0x56c build/dsi_xlcdc_rgba8888_ws_9x75_curiosity_720x720_round/debug/_ext/979623078/legato_imagedecoder_jpeg_common.o
                0x23f0b8dc                JPEG_bDecodeOneBlock
 .text.JPEG_vInitDisplay
                0x23f0be48       0x10 build/dsi_xlcdc_rgba8888_ws_9x75_curiosity_720x720_round/debug/_ext/979623078/legato_imagedecoder_jpeg_common.o
                0x23f0be48                JPEG_vInitDisplay
 .text.JPEG_bPaintOneBlock
                0x23f0be58      0xae0 build/dsi_xlcdc_rgba8888_ws_9x75_curiosity_720x720_round/debug/_ext/979623078/legato_imagedecoder_jpeg_common.o
                0x23f0be58                JPEG_bPaintOneBlock
 .text.jpeg_idct_islow_leg
                0x23f0c938      0x538 build/dsi_xlcdc_rgba8888_ws_9x75_curiosity_720x720_round/debug/_ext/979623078/jidctint.o
                0x23f0c938                jpeg_idct_islow_leg
 .text._supportsImage
                0x23f0ce70       0x20 build/dsi_xlcdc_rgba8888_ws_9x75_curiosity_720x720_round/debug/_ext/979623078/legato_imagedecoder_jpeg.o
 .text.internalMemoryRead
                0x23f0ce90       0x48 build/dsi_xlcdc_rgba8888_ws_9x75_curiosity_720x720_round/debug/_ext/979623078/legato_imagedecoder_jpeg.o
 .text.exec     0x23f0ced8        0x8 build/dsi_xlcdc_rgba8888_ws_9x75_curiosity_720x720_round/debug/_ext/979623078/legato_imagedecoder_jpeg.o
 .text._render  0x23f0cee0      0x1e4 build/dsi_xlcdc_rgba8888_ws_9x75_curiosity_720x720_round/debug/_ext/979623078/legato_imagedecoder_jpeg.o
 .text._draw    0x23f0d0c4      0x1e8 build/dsi_xlcdc_rgba8888_ws_9x75_curiosity_720x720_round/debug/_ext/979623078/legato_imagedecoder_jpeg.o
 .text.blitToImage
                0x23f0d2ac       0xac build/dsi_xlcdc_rgba8888_ws_9x75_curiosity_720x720_round/debug/_ext/979623078/legato_imagedecoder_jpeg.o
 .text.blitToFrameBuffer
                0x23f0d358       0xa0 build/dsi_xlcdc_rgba8888_ws_9x75_curiosity_720x720_round/debug/_ext/979623078/legato_imagedecoder_jpeg.o
 .text._leJPEGImageDecoder_Init
                0x23f0d3f8       0x60 build/dsi_xlcdc_rgba8888_ws_9x75_curiosity_720x720_round/debug/_ext/979623078/legato_imagedecoder_jpeg.o
                0x23f0d3f8                _leJPEGImageDecoder_Init
 .text.stage_decode
                0x23f0d458       0x3c build/dsi_xlcdc_rgba8888_ws_9x75_curiosity_720x720_round/debug/_ext/979534379/legato_imagedecoder_mono_read_internal.o
 .text._leMonoImageDecoder_ReadStage_Internal
                0x23f0d494       0x2c build/dsi_xlcdc_rgba8888_ws_9x75_curiosity_720x720_round/debug/_ext/979534379/legato_imagedecoder_mono_read_internal.o
                0x23f0d494                _leMonoImageDecoder_ReadStage_Internal
 .text._supportsImage
                0x23f0d4c0       0x14 build/dsi_xlcdc_rgba8888_ws_9x75_curiosity_720x720_round/debug/_ext/979534379/legato_imagedecoder_mono.o
 .text._decoderIsDone
                0x23f0d4d4       0x10 build/dsi_xlcdc_rgba8888_ws_9x75_curiosity_720x720_round/debug/_ext/979534379/legato_imagedecoder_mono.o
 .text.stage_sourceIterateSetup
                0x23f0d4e4       0xb0 build/dsi_xlcdc_rgba8888_ws_9x75_curiosity_720x720_round/debug/_ext/979534379/legato_imagedecoder_mono.o
 .text.stage_FrameBufferWrite
                0x23f0d594       0x20 build/dsi_xlcdc_rgba8888_ws_9x75_curiosity_720x720_round/debug/_ext/979534379/legato_imagedecoder_mono.o
 .text.stage_ImageWrite
                0x23f0d5b4       0x28 build/dsi_xlcdc_rgba8888_ws_9x75_curiosity_720x720_round/debug/_ext/979534379/legato_imagedecoder_mono.o
 .text._decoderExec
                0x23f0d5dc       0xb4 build/dsi_xlcdc_rgba8888_ws_9x75_curiosity_720x720_round/debug/_ext/979534379/legato_imagedecoder_mono.o
 .text._decoderCleanup
                0x23f0d690       0x50 build/dsi_xlcdc_rgba8888_ws_9x75_curiosity_720x720_round/debug/_ext/979534379/legato_imagedecoder_mono.o
 .text._draw    0x23f0d6e0      0x39c build/dsi_xlcdc_rgba8888_ws_9x75_curiosity_720x720_round/debug/_ext/979534379/legato_imagedecoder_mono.o
 .text._copy    0x23f0da7c      0x3c0 build/dsi_xlcdc_rgba8888_ws_9x75_curiosity_720x720_round/debug/_ext/979534379/legato_imagedecoder_mono.o
 .text._leMonoImageDecoder_Init
                0x23f0de3c       0x84 build/dsi_xlcdc_rgba8888_ws_9x75_curiosity_720x720_round/debug/_ext/979534379/legato_imagedecoder_mono.o
                0x23f0de3c                _leMonoImageDecoder_Init
 .text._leMonoImageDecoder_InjectStage
                0x23f0dec0      0x12c build/dsi_xlcdc_rgba8888_ws_9x75_curiosity_720x720_round/debug/_ext/979534379/legato_imagedecoder_mono.o
                0x23f0dec0                _leMonoImageDecoder_InjectStage
 .text._supportsImage
                0x23f0dfec       0x20 build/dsi_xlcdc_rgba8888_ws_9x75_curiosity_720x720_round/debug/_ext/799688951/legato_imagedecoder_png.o
 .text._decoderCleanup
                0x23f0e00c        0x4 build/dsi_xlcdc_rgba8888_ws_9x75_curiosity_720x720_round/debug/_ext/799688951/legato_imagedecoder_png.o
 .text._decoderExec
                0x23f0e010        0x8 build/dsi_xlcdc_rgba8888_ws_9x75_curiosity_720x720_round/debug/_ext/799688951/legato_imagedecoder_png.o
 .text._decoderIsDone
                0x23f0e018        0x8 build/dsi_xlcdc_rgba8888_ws_9x75_curiosity_720x720_round/debug/_ext/799688951/legato_imagedecoder_png.o
 .text._render  0x23f0e020       0xe0 build/dsi_xlcdc_rgba8888_ws_9x75_curiosity_720x720_round/debug/_ext/799688951/legato_imagedecoder_png.o
 .text._draw    0x23f0e100      0x1d0 build/dsi_xlcdc_rgba8888_ws_9x75_curiosity_720x720_round/debug/_ext/799688951/legato_imagedecoder_png.o
 .text._lePNGImageDecoder_Init
                0x23f0e2d0       0x70 build/dsi_xlcdc_rgba8888_ws_9x75_curiosity_720x720_round/debug/_ext/799688951/legato_imagedecoder_png.o
                0x23f0e2d0                _lePNGImageDecoder_Init
 .text.Adam7_getpassvalues
                0x23f0e340      0x478 build/dsi_xlcdc_rgba8888_ws_9x75_curiosity_720x720_round/debug/_ext/799688951/lodepng.o
 .text.unfilter
                0x23f0e7b8      0xbb0 build/dsi_xlcdc_rgba8888_ws_9x75_curiosity_720x720_round/debug/_ext/799688951/lodepng.o
 .text.removePaddingBits
                0x23f0f368       0xac build/dsi_xlcdc_rgba8888_ws_9x75_curiosity_720x720_round/debug/_ext/799688951/lodepng.o
 .text.postProcessScanlines
                0x23f0f414      0x80c build/dsi_xlcdc_rgba8888_ws_9x75_curiosity_720x720_round/debug/_ext/799688951/lodepng.o
 .text.LodePNGIText_cleanup
                0x23f0fc20       0x90 build/dsi_xlcdc_rgba8888_ws_9x75_curiosity_720x720_round/debug/_ext/799688951/lodepng.o
 .text.color_tree_cleanup
                0x23f0fcb0       0x30 build/dsi_xlcdc_rgba8888_ws_9x75_curiosity_720x720_round/debug/_ext/799688951/lodepng.o
 .text.lodepng_color_mode_equal
                0x23f0fce0       0xdc build/dsi_xlcdc_rgba8888_ws_9x75_curiosity_720x720_round/debug/_ext/799688951/lodepng.o
 .text.ucvector_reserve.isra.4
                0x23f0fdbc       0x5c build/dsi_xlcdc_rgba8888_ws_9x75_curiosity_720x720_round/debug/_ext/799688951/lodepng.o
 .text.HuffmanTree_makeFromLengths2
                0x23f0fe18      0x3b8 build/dsi_xlcdc_rgba8888_ws_9x75_curiosity_720x720_round/debug/_ext/799688951/lodepng.o
 .text.lodepng_inflatev.isra.6
                0x23f101d0     0x1640 build/dsi_xlcdc_rgba8888_ws_9x75_curiosity_720x720_round/debug/_ext/799688951/lodepng.o
 .text.lodepng_zlib_decompress
                0x23f11810      0x1c8 build/dsi_xlcdc_rgba8888_ws_9x75_curiosity_720x720_round/debug/_ext/799688951/lodepng.o
                0x23f11810                lodepng_zlib_decompress
 .text.lodepng_chunk_check_crc
                0x23f119d8       0xb4 build/dsi_xlcdc_rgba8888_ws_9x75_curiosity_720x720_round/debug/_ext/799688951/lodepng.o
                0x23f119d8                lodepng_chunk_check_crc
 .text.lodepng_add_text
                0x23f11a8c      0x1d0 build/dsi_xlcdc_rgba8888_ws_9x75_curiosity_720x720_round/debug/_ext/799688951/lodepng.o
                0x23f11a8c                lodepng_add_text
 .text.lodepng_add_itext
                0x23f11c5c      0x394 build/dsi_xlcdc_rgba8888_ws_9x75_curiosity_720x720_round/debug/_ext/799688951/lodepng.o
                0x23f11c5c                lodepng_add_itext
 .text.lodepng_info_cleanup
                0x23f11ff0       0x98 build/dsi_xlcdc_rgba8888_ws_9x75_curiosity_720x720_round/debug/_ext/799688951/lodepng.o
                0x23f11ff0                lodepng_info_cleanup
 .text.lodepng_convert
                0x23f12088     0x185c build/dsi_xlcdc_rgba8888_ws_9x75_curiosity_720x720_round/debug/_ext/799688951/lodepng.o
                0x23f12088                lodepng_convert
 .text.lodepng_inspect
                0x23f138e4      0x4dc build/dsi_xlcdc_rgba8888_ws_9x75_curiosity_720x720_round/debug/_ext/799688951/lodepng.o
                0x23f138e4                lodepng_inspect
 .text.decodeGeneric
                0x23f13dc0     0x1c7c build/dsi_xlcdc_rgba8888_ws_9x75_curiosity_720x720_round/debug/_ext/799688951/lodepng.o
 .text.lodepng_decode_memory
                0x23f15a3c      0x2b8 build/dsi_xlcdc_rgba8888_ws_9x75_curiosity_720x720_round/debug/_ext/799688951/lodepng.o
                0x23f15a3c                lodepng_decode_memory
 .text.stage_convertColor
                0x23f15cf4       0x2c build/dsi_xlcdc_rgba8888_ws_9x75_curiosity_720x720_round/debug/_ext/799690486/legato_imagedecoder_raw_convert.o
 .text._leRawImageDecoder_ConvertStage
                0x23f15d20       0x80 build/dsi_xlcdc_rgba8888_ws_9x75_curiosity_720x720_round/debug/_ext/799690486/legato_imagedecoder_raw_convert.o
                0x23f15d20                _leRawImageDecoder_ConvertStage
 .text.stage_FrameBufferWrite
                0x23f15da0       0x24 build/dsi_xlcdc_rgba8888_ws_9x75_curiosity_720x720_round/debug/_ext/799690486/legato_imagedecoder_raw_write.o
 .text.stage_ImageWrite
                0x23f15dc4       0x28 build/dsi_xlcdc_rgba8888_ws_9x75_curiosity_720x720_round/debug/_ext/799690486/legato_imagedecoder_raw_write.o
 .text._leRawImageDecoder_FrameBufferWriteStage
                0x23f15dec       0x2c build/dsi_xlcdc_rgba8888_ws_9x75_curiosity_720x720_round/debug/_ext/799690486/legato_imagedecoder_raw_write.o
                0x23f15dec                _leRawImageDecoder_FrameBufferWriteStage
 .text._leRawImageDecoder_ImageWriteStage
                0x23f15e18       0x2c build/dsi_xlcdc_rgba8888_ws_9x75_curiosity_720x720_round/debug/_ext/799690486/legato_imagedecoder_raw_write.o
                0x23f15e18                _leRawImageDecoder_ImageWriteStage
 .text.stage_decode
                0x23f15e44       0x5c build/dsi_xlcdc_rgba8888_ws_9x75_curiosity_720x720_round/debug/_ext/799690486/legato_imagedecoder_raw_read_internal.o
 .text.rleRandomDecode
                0x23f15ea0       0x50 build/dsi_xlcdc_rgba8888_ws_9x75_curiosity_720x720_round/debug/_ext/799690486/legato_imagedecoder_raw_read_internal.o
 .text.rleSequentialDecode
                0x23f15ef0       0x48 build/dsi_xlcdc_rgba8888_ws_9x75_curiosity_720x720_round/debug/_ext/799690486/legato_imagedecoder_raw_read_internal.o
 .text.colorDecode
                0x23f15f38       0x34 build/dsi_xlcdc_rgba8888_ws_9x75_curiosity_720x720_round/debug/_ext/799690486/legato_imagedecoder_raw_read_internal.o
 .text.indexRLERandomDecode
                0x23f15f6c       0x80 build/dsi_xlcdc_rgba8888_ws_9x75_curiosity_720x720_round/debug/_ext/799690486/legato_imagedecoder_raw_read_internal.o
 .text.indexRLESequentialDecode
                0x23f15fec       0x74 build/dsi_xlcdc_rgba8888_ws_9x75_curiosity_720x720_round/debug/_ext/799690486/legato_imagedecoder_raw_read_internal.o
 .text.indexDecode
                0x23f16060       0x30 build/dsi_xlcdc_rgba8888_ws_9x75_curiosity_720x720_round/debug/_ext/799690486/legato_imagedecoder_raw_read_internal.o
 .text._leRawImageDecoder_ReadStage_Internal
                0x23f16090       0xe0 build/dsi_xlcdc_rgba8888_ws_9x75_curiosity_720x720_round/debug/_ext/799690486/legato_imagedecoder_raw_read_internal.o
                0x23f16090                _leRawImageDecoder_ReadStage_Internal
 .text.stage_postRead
                0x23f16170       0x14 build/dsi_xlcdc_rgba8888_ws_9x75_curiosity_720x720_round/debug/_ext/799690486/legato_imagedecoder_raw_scale.o
 .text.stage_scaledNearestNeighborPreRead
                0x23f16184       0xa0 build/dsi_xlcdc_rgba8888_ws_9x75_curiosity_720x720_round/debug/_ext/799690486/legato_imagedecoder_raw_scale.o
 .text.stage_bilinearPreRead
                0x23f16224      0x154 build/dsi_xlcdc_rgba8888_ws_9x75_curiosity_720x720_round/debug/_ext/799690486/legato_imagedecoder_raw_scale.o
 .text.stage_scaledBilinearPostRead
                0x23f16378       0x8c build/dsi_xlcdc_rgba8888_ws_9x75_curiosity_720x720_round/debug/_ext/799690486/legato_imagedecoder_raw_scale.o
 .text._leRawImageDecoder_ScaleNearestNeighborPreReadStage
                0x23f16404       0x6c build/dsi_xlcdc_rgba8888_ws_9x75_curiosity_720x720_round/debug/_ext/799690486/legato_imagedecoder_raw_scale.o
                0x23f16404                _leRawImageDecoder_ScaleNearestNeighborPreReadStage
 .text._leRawImageDecoder_ScaleBilinearPreReadStage
                0x23f16470       0x74 build/dsi_xlcdc_rgba8888_ws_9x75_curiosity_720x720_round/debug/_ext/799690486/legato_imagedecoder_raw_scale.o
                0x23f16470                _leRawImageDecoder_ScaleBilinearPreReadStage
 .text._leRawImageDecoder_PostReadStage
                0x23f164e4       0x2c build/dsi_xlcdc_rgba8888_ws_9x75_curiosity_720x720_round/debug/_ext/799690486/legato_imagedecoder_raw_scale.o
                0x23f164e4                _leRawImageDecoder_PostReadStage
 .text._leRawImageDecoder_ScaleBilinearPostReadStage
                0x23f16510       0x2c build/dsi_xlcdc_rgba8888_ws_9x75_curiosity_720x720_round/debug/_ext/799690486/legato_imagedecoder_raw_scale.o
                0x23f16510                _leRawImageDecoder_ScaleBilinearPostReadStage
 .text.stage_rejectMaskedColor
                0x23f1653c       0x24 build/dsi_xlcdc_rgba8888_ws_9x75_curiosity_720x720_round/debug/_ext/799690486/legato_imagedecoder_raw_mask.o
 .text._leRawImageDecoder_MaskStage_Internal
                0x23f16560       0x2c build/dsi_xlcdc_rgba8888_ws_9x75_curiosity_720x720_round/debug/_ext/799690486/legato_imagedecoder_raw_mask.o
                0x23f16560                _leRawImageDecoder_MaskStage_Internal
 .text.stage_BlendRGBA5551
                0x23f1658c       0x1c build/dsi_xlcdc_rgba8888_ws_9x75_curiosity_720x720_round/debug/_ext/799690486/legato_imagedecoder_raw_blend.o
 .text.stage_BlendARGB8888
                0x23f165a8       0x70 build/dsi_xlcdc_rgba8888_ws_9x75_curiosity_720x720_round/debug/_ext/799690486/legato_imagedecoder_raw_blend.o
 .text.stage_BlendRGBA8888
                0x23f16618       0x70 build/dsi_xlcdc_rgba8888_ws_9x75_curiosity_720x720_round/debug/_ext/799690486/legato_imagedecoder_raw_blend.o
 .text._leRawImageDecoder_BlendStage_Internal
                0x23f16688       0x9c build/dsi_xlcdc_rgba8888_ws_9x75_curiosity_720x720_round/debug/_ext/799690486/legato_imagedecoder_raw_blend.o
                0x23f16688                _leRawImageDecoder_BlendStage_Internal
 .text._supportsImage
                0x23f16724       0x14 build/dsi_xlcdc_rgba8888_ws_9x75_curiosity_720x720_round/debug/_ext/799690486/legato_imagedecoder_raw.o
 .text._decoderIsDone
                0x23f16738       0x10 build/dsi_xlcdc_rgba8888_ws_9x75_curiosity_720x720_round/debug/_ext/799690486/legato_imagedecoder_raw.o
 .text._copy    0x23f16748      0x178 build/dsi_xlcdc_rgba8888_ws_9x75_curiosity_720x720_round/debug/_ext/799690486/legato_imagedecoder_raw.o
 .text._decoderExec
                0x23f168c0       0xb4 build/dsi_xlcdc_rgba8888_ws_9x75_curiosity_720x720_round/debug/_ext/799690486/legato_imagedecoder_raw.o
 .text._decoderCleanup
                0x23f16974       0x50 build/dsi_xlcdc_rgba8888_ws_9x75_curiosity_720x720_round/debug/_ext/799690486/legato_imagedecoder_raw.o
 .text._resize  0x23f169c4      0x228 build/dsi_xlcdc_rgba8888_ws_9x75_curiosity_720x720_round/debug/_ext/799690486/legato_imagedecoder_raw.o
 .text._render  0x23f16bec      0x2f8 build/dsi_xlcdc_rgba8888_ws_9x75_curiosity_720x720_round/debug/_ext/799690486/legato_imagedecoder_raw.o
 .text._draw    0x23f16ee4      0x368 build/dsi_xlcdc_rgba8888_ws_9x75_curiosity_720x720_round/debug/_ext/799690486/legato_imagedecoder_raw.o
 .text._resizeDraw
                0x23f1724c      0x2c0 build/dsi_xlcdc_rgba8888_ws_9x75_curiosity_720x720_round/debug/_ext/799690486/legato_imagedecoder_raw.o
 .text._rotateDraw
                0x23f1750c      0x2f4 build/dsi_xlcdc_rgba8888_ws_9x75_curiosity_720x720_round/debug/_ext/799690486/legato_imagedecoder_raw.o
 .text._rotate  0x23f17800      0x2f4 build/dsi_xlcdc_rgba8888_ws_9x75_curiosity_720x720_round/debug/_ext/799690486/legato_imagedecoder_raw.o
 .text._leRawImageDecoder_Init
                0x23f17af4       0xa8 build/dsi_xlcdc_rgba8888_ws_9x75_curiosity_720x720_round/debug/_ext/799690486/legato_imagedecoder_raw.o
                0x23f17af4                _leRawImageDecoder_Init
 .text._leRawImageDecoder_InjectStage
                0x23f17b9c      0x12c build/dsi_xlcdc_rgba8888_ws_9x75_curiosity_720x720_round/debug/_ext/799690486/legato_imagedecoder_raw.o
                0x23f17b9c                _leRawImageDecoder_InjectStage
 .text.stage_sourceIterateSetup
                0x23f17cc8       0xb0 build/dsi_xlcdc_rgba8888_ws_9x75_curiosity_720x720_round/debug/_ext/799690486/legato_imagedecoder_raw_setup.o
 .text.stage_targetIterateSetup
                0x23f17d78       0x84 build/dsi_xlcdc_rgba8888_ws_9x75_curiosity_720x720_round/debug/_ext/799690486/legato_imagedecoder_raw_setup.o
 .text._leRawImageDecoder_SourceIterateSetupStage
                0x23f17dfc       0x3c build/dsi_xlcdc_rgba8888_ws_9x75_curiosity_720x720_round/debug/_ext/799690486/legato_imagedecoder_raw_setup.o
                0x23f17dfc                _leRawImageDecoder_SourceIterateSetupStage
 .text._leRawImageDecoder_TargetIterateSetupStage
                0x23f17e38       0x3c build/dsi_xlcdc_rgba8888_ws_9x75_curiosity_720x720_round/debug/_ext/799690486/legato_imagedecoder_raw_setup.o
                0x23f17e38                _leRawImageDecoder_TargetIterateSetupStage
 .text.stage_rotateNearestNeighborPreRead
                0x23f17e74       0xdc build/dsi_xlcdc_rgba8888_ws_9x75_curiosity_720x720_round/debug/_ext/799690486/legato_imagedecoder_raw_rotate.o
 .text.stage_bilinearPreRead
                0x23f17f50      0x188 build/dsi_xlcdc_rgba8888_ws_9x75_curiosity_720x720_round/debug/_ext/799690486/legato_imagedecoder_raw_rotate.o
 .text.stage_rotateBilinearPostRead
                0x23f180d8       0x50 build/dsi_xlcdc_rgba8888_ws_9x75_curiosity_720x720_round/debug/_ext/799690486/legato_imagedecoder_raw_rotate.o
 .text._leRawImageDecoder_RotateNearestNeighborPreReadStage
                0x23f18128       0x2c build/dsi_xlcdc_rgba8888_ws_9x75_curiosity_720x720_round/debug/_ext/799690486/legato_imagedecoder_raw_rotate.o
                0x23f18128                _leRawImageDecoder_RotateNearestNeighborPreReadStage
 .text._leRawImageDecoder_RotateBilinearPreReadStage
                0x23f18154       0x38 build/dsi_xlcdc_rgba8888_ws_9x75_curiosity_720x720_round/debug/_ext/799690486/legato_imagedecoder_raw_rotate.o
                0x23f18154                _leRawImageDecoder_RotateBilinearPreReadStage
 .text._leRawImageDecoder_RotateBilinearPostReadStage
                0x23f1818c       0x2c build/dsi_xlcdc_rgba8888_ws_9x75_curiosity_720x720_round/debug/_ext/799690486/legato_imagedecoder_raw_rotate.o
                0x23f1818c                _leRawImageDecoder_RotateBilinearPostReadStage
 .text.stage_imageRenderPostLookup
                0x23f181b8       0x40 build/dsi_xlcdc_rgba8888_ws_9x75_curiosity_720x720_round/debug/_ext/799690486/legato_imagedecoder_raw_palette_internal.o
 .text.stage_lookup
                0x23f181f8       0x3c build/dsi_xlcdc_rgba8888_ws_9x75_curiosity_720x720_round/debug/_ext/799690486/legato_imagedecoder_raw_palette_internal.o
 .text._leRawImageDecoder_LookupStage_Internal
                0x23f18234       0x54 build/dsi_xlcdc_rgba8888_ws_9x75_curiosity_720x720_round/debug/_ext/799690486/legato_imagedecoder_raw_palette_internal.o
                0x23f18234                _leRawImageDecoder_LookupStage_Internal
 .text._leRawImageDecoder_ImageRenderPostLookupStage
                0x23f18288       0x3c build/dsi_xlcdc_rgba8888_ws_9x75_curiosity_720x720_round/debug/_ext/799690486/legato_imagedecoder_raw_palette_internal.o
                0x23f18288                _leRawImageDecoder_ImageRenderPostLookupStage
 .text.getDiscreteValueAtIndex1
                0x23f182c4       0x18 build/dsi_xlcdc_rgba8888_ws_9x75_curiosity_720x720_round/debug/_ext/1664643037/legato_image_utils.o
 .text.getDiscreteValueAtIndex4
                0x23f182dc       0x14 build/dsi_xlcdc_rgba8888_ws_9x75_curiosity_720x720_round/debug/_ext/1664643037/legato_image_utils.o
 .text.getDiscreteValueAtIndex8
                0x23f182f0        0x8 build/dsi_xlcdc_rgba8888_ws_9x75_curiosity_720x720_round/debug/_ext/1664643037/legato_image_utils.o
 .text.calcOffset1bpp
                0x23f182f8        0x8 build/dsi_xlcdc_rgba8888_ws_9x75_curiosity_720x720_round/debug/_ext/1664643037/legato_image_utils.o
 .text.calcOffset4bpp
                0x23f18300        0x8 build/dsi_xlcdc_rgba8888_ws_9x75_curiosity_720x720_round/debug/_ext/1664643037/legato_image_utils.o
 .text.calcOffset8bpp
                0x23f18308        0x4 build/dsi_xlcdc_rgba8888_ws_9x75_curiosity_720x720_round/debug/_ext/1664643037/legato_image_utils.o
 .text.calcOffset16bpp
                0x23f1830c        0x8 build/dsi_xlcdc_rgba8888_ws_9x75_curiosity_720x720_round/debug/_ext/1664643037/legato_image_utils.o
 .text.calcOffset24bpp
                0x23f18314        0x8 build/dsi_xlcdc_rgba8888_ws_9x75_curiosity_720x720_round/debug/_ext/1664643037/legato_image_utils.o
 .text.calcOffset32bpp
                0x23f1831c        0x8 build/dsi_xlcdc_rgba8888_ws_9x75_curiosity_720x720_round/debug/_ext/1664643037/legato_image_utils.o
 .text.leGetRLEDataAtIndex
                0x23f18324       0xd8 build/dsi_xlcdc_rgba8888_ws_9x75_curiosity_720x720_round/debug/_ext/1664643037/legato_image_utils.o
                0x23f18324                leGetRLEDataAtIndex
 .text.leGetDiscreteValueAtIndex
                0x23f183fc       0x10 build/dsi_xlcdc_rgba8888_ws_9x75_curiosity_720x720_round/debug/_ext/1664643037/legato_image_utils.o
                0x23f183fc                leGetDiscreteValueAtIndex
 .text.leGetOffsetFromIndexAndBPP
                0x23f1840c       0x10 build/dsi_xlcdc_rgba8888_ws_9x75_curiosity_720x720_round/debug/_ext/1664643037/legato_image_utils.o
                0x23f1840c                leGetOffsetFromIndexAndBPP
 .text.leImage_InitDecoders
                0x23f1841c       0x30 build/dsi_xlcdc_rgba8888_ws_9x75_curiosity_720x720_round/debug/_ext/1664643037/legato_image.o
                0x23f1841c                leImage_InitDecoders
 .text.leImage_Create
                0x23f1844c       0x88 build/dsi_xlcdc_rgba8888_ws_9x75_curiosity_720x720_round/debug/_ext/1664643037/legato_image.o
                0x23f1844c                leImage_Create
 .text.leImage_Allocate
                0x23f184d4       0xc0 build/dsi_xlcdc_rgba8888_ws_9x75_curiosity_720x720_round/debug/_ext/1664643037/legato_image.o
                0x23f184d4                leImage_Allocate
 .text.leImage_Draw
                0x23f18594       0xd0 build/dsi_xlcdc_rgba8888_ws_9x75_curiosity_720x720_round/debug/_ext/1664643037/legato_image.o
                0x23f18594                leImage_Draw
 .text._growAllocBlock
                0x23f18664      0x26c build/dsi_xlcdc_rgba8888_ws_9x75_curiosity_720x720_round/debug/_ext/171820735/legato_variableheap.o
 .text._combineFreeBlockNext
                0x23f188d0      0x134 build/dsi_xlcdc_rgba8888_ws_9x75_curiosity_720x720_round/debug/_ext/171820735/legato_variableheap.o
 .text._freeBlock
                0x23f18a04      0x218 build/dsi_xlcdc_rgba8888_ws_9x75_curiosity_720x720_round/debug/_ext/171820735/legato_variableheap.o
 .text.leVariableHeap_Init
                0x23f18c1c       0x58 build/dsi_xlcdc_rgba8888_ws_9x75_curiosity_720x720_round/debug/_ext/171820735/legato_variableheap.o
                0x23f18c1c                leVariableHeap_Init
 .text.leVariableHeap_Alloc
                0x23f18c74      0x1fc build/dsi_xlcdc_rgba8888_ws_9x75_curiosity_720x720_round/debug/_ext/171820735/legato_variableheap.o
                0x23f18c74                leVariableHeap_Alloc
 .text.leVariableHeap_Realloc
                0x23f18e70      0x63c build/dsi_xlcdc_rgba8888_ws_9x75_curiosity_720x720_round/debug/_ext/171820735/legato_variableheap.o
                0x23f18e70                leVariableHeap_Realloc
 .text.leVariableHeap_Free
                0x23f194ac       0x14 build/dsi_xlcdc_rgba8888_ws_9x75_curiosity_720x720_round/debug/_ext/171820735/legato_variableheap.o
                0x23f194ac                leVariableHeap_Free
 .text.leVariableHeap_Contains
                0x23f194c0       0x20 build/dsi_xlcdc_rgba8888_ws_9x75_curiosity_720x720_round/debug/_ext/171820735/legato_variableheap.o
                0x23f194c0                leVariableHeap_Contains
 .text.leVariableHeap_SizeOf
                0x23f194e0        0x8 build/dsi_xlcdc_rgba8888_ws_9x75_curiosity_720x720_round/debug/_ext/171820735/legato_variableheap.o
                0x23f194e0                leVariableHeap_SizeOf
 .text.leVariableHeap_Validate
                0x23f194e8        0x8 build/dsi_xlcdc_rgba8888_ws_9x75_curiosity_720x720_round/debug/_ext/171820735/legato_variableheap.o
                0x23f194e8                leVariableHeap_Validate
 .text.leFixedHeap_Init
                0x23f194f0       0xb4 build/dsi_xlcdc_rgba8888_ws_9x75_curiosity_720x720_round/debug/_ext/171820735/legato_fixedheap.o
                0x23f194f0                leFixedHeap_Init
 .text.leFixedHeap_Alloc
                0x23f195a4       0x48 build/dsi_xlcdc_rgba8888_ws_9x75_curiosity_720x720_round/debug/_ext/171820735/legato_fixedheap.o
                0x23f195a4                leFixedHeap_Alloc
 .text.leFixedHeap_Free
                0x23f195ec       0x1c build/dsi_xlcdc_rgba8888_ws_9x75_curiosity_720x720_round/debug/_ext/171820735/legato_fixedheap.o
                0x23f195ec                leFixedHeap_Free
 .text.leFixedHeap_Contains
                0x23f19608       0x64 build/dsi_xlcdc_rgba8888_ws_9x75_curiosity_720x720_round/debug/_ext/171820735/legato_fixedheap.o
                0x23f19608                leFixedHeap_Contains
 .text.leMemory_Init
                0x23f1966c       0xc4 build/dsi_xlcdc_rgba8888_ws_9x75_curiosity_720x720_round/debug/_ext/171820735/legato_memory.o
                0x23f1966c                leMemory_Init
 .text.leMalloc
                0x23f19730      0x15c build/dsi_xlcdc_rgba8888_ws_9x75_curiosity_720x720_round/debug/_ext/171820735/legato_memory.o
                0x23f19730                leMalloc
 .text.leRealloc
                0x23f1988c      0x6f8 build/dsi_xlcdc_rgba8888_ws_9x75_curiosity_720x720_round/debug/_ext/171820735/legato_memory.o
                0x23f1988c                leRealloc
 .text.leFree   0x23f19f84       0x88 build/dsi_xlcdc_rgba8888_ws_9x75_curiosity_720x720_round/debug/_ext/171820735/legato_memory.o
                0x23f19f84                leFree
 .text._MonoFill
                0x23f1a00c       0x64 build/dsi_xlcdc_rgba8888_ws_9x75_curiosity_720x720_round/debug/_ext/2053165825/legato_draw.o
 .text._MonoPutPixel
                0x23f1a070       0x30 build/dsi_xlcdc_rgba8888_ws_9x75_curiosity_720x720_round/debug/_ext/2053165825/legato_draw.o
 .text._RGBPutPixel
                0x23f1a0a0       0x2c build/dsi_xlcdc_rgba8888_ws_9x75_curiosity_720x720_round/debug/_ext/2053165825/legato_draw.o
 .text._RGBFill
                0x23f1a0cc       0x84 build/dsi_xlcdc_rgba8888_ws_9x75_curiosity_720x720_round/debug/_ext/2053165825/legato_draw.o
 .text._RGBBlendPixel
                0x23f1a150      0x168 build/dsi_xlcdc_rgba8888_ws_9x75_curiosity_720x720_round/debug/_ext/2053165825/legato_draw.o
 .text._RGBBlendFill
                0x23f1a2b8      0x1cc build/dsi_xlcdc_rgba8888_ws_9x75_curiosity_720x720_round/debug/_ext/2053165825/legato_draw.o
 .text.leRenderer_GetPixel
                0x23f1a484       0x40 build/dsi_xlcdc_rgba8888_ws_9x75_curiosity_720x720_round/debug/_ext/2053165825/legato_draw.o
                0x23f1a484                leRenderer_GetPixel
 .text.leRenderer_PutPixel
                0x23f1a4c4       0x4c build/dsi_xlcdc_rgba8888_ws_9x75_curiosity_720x720_round/debug/_ext/2053165825/legato_draw.o
                0x23f1a4c4                leRenderer_PutPixel
 .text.leRenderer_BlendPixel
                0x23f1a510       0x50 build/dsi_xlcdc_rgba8888_ws_9x75_curiosity_720x720_round/debug/_ext/2053165825/legato_draw.o
                0x23f1a510                leRenderer_BlendPixel
 .text.leRenderer_BlendPixel_Safe
                0x23f1a560       0x64 build/dsi_xlcdc_rgba8888_ws_9x75_curiosity_720x720_round/debug/_ext/2053165825/legato_draw.o
                0x23f1a560                leRenderer_BlendPixel_Safe
 .text.leRenderer_FillArea
                0x23f1a5c4       0x1c build/dsi_xlcdc_rgba8888_ws_9x75_curiosity_720x720_round/debug/_ext/2053165825/legato_draw.o
                0x23f1a5c4                leRenderer_FillArea
 .text._leRenderer_InitDrawForMode
                0x23f1a5e0       0xa0 build/dsi_xlcdc_rgba8888_ws_9x75_curiosity_720x720_round/debug/_ext/2053165825/legato_draw.o
                0x23f1a5e0                _leRenderer_InitDrawForMode
 .text.leRenderer_HorzLine
                0x23f1a680       0xd4 build/dsi_xlcdc_rgba8888_ws_9x75_curiosity_720x720_round/debug/_ext/2053165825/legato_draw_line.o
                0x23f1a680                leRenderer_HorzLine
 .text.leRenderer_VertLine
                0x23f1a754       0xd4 build/dsi_xlcdc_rgba8888_ws_9x75_curiosity_720x720_round/debug/_ext/2053165825/legato_draw_line.o
                0x23f1a754                leRenderer_VertLine
 .text.leRenderer_RectFill
                0x23f1a828       0x6c build/dsi_xlcdc_rgba8888_ws_9x75_curiosity_720x720_round/debug/_ext/2053165825/legato_draw_rect.o
                0x23f1a828                leRenderer_RectFill
 *fill*         0x23f1a894        0x4 
 .text.drawQ1   0x23f1a898      0x240 build/dsi_xlcdc_rgba8888_ws_9x75_curiosity_720x720_round/debug/_ext/2053165825/legato_draw_arc.o
 .text.drawQ2   0x23f1aad8      0x230 build/dsi_xlcdc_rgba8888_ws_9x75_curiosity_720x720_round/debug/_ext/2053165825/legato_draw_arc.o
 .text.drawQ3   0x23f1ad08      0x22c build/dsi_xlcdc_rgba8888_ws_9x75_curiosity_720x720_round/debug/_ext/2053165825/legato_draw_arc.o
 *fill*         0x23f1af34        0x4 
 .text.drawQ4   0x23f1af38      0x23c build/dsi_xlcdc_rgba8888_ws_9x75_curiosity_720x720_round/debug/_ext/2053165825/legato_draw_arc.o
 .text.leRenderer_ArcFill.constprop.0
                0x23f1b174      0x288 build/dsi_xlcdc_rgba8888_ws_9x75_curiosity_720x720_round/debug/_ext/2053165825/legato_draw_arc.o
 .text.leRenderer_ArcFill
                0x23f1b3fc      0x468 build/dsi_xlcdc_rgba8888_ws_9x75_curiosity_720x720_round/debug/_ext/2053165825/legato_draw_arc.o
                0x23f1b3fc                leRenderer_ArcFill
 .text.leGPU_DrawLine
                0x23f1b864      0x1b8 build/dsi_xlcdc_rgba8888_ws_9x75_curiosity_720x720_round/debug/_ext/2053165825/legato_gpu.o
                0x23f1b864                leGPU_DrawLine
 .text.leGPU_ClearBuffer
                0x23f1ba1c       0x9c build/dsi_xlcdc_rgba8888_ws_9x75_curiosity_720x720_round/debug/_ext/2053165825/legato_gpu.o
                0x23f1ba1c                leGPU_ClearBuffer
 .text.leGPU_FillRect
                0x23f1bab8      0x154 build/dsi_xlcdc_rgba8888_ws_9x75_curiosity_720x720_round/debug/_ext/2053165825/legato_gpu.o
                0x23f1bab8                leGPU_FillRect
 .text.leGPU_BlitBuffer
                0x23f1bc0c      0x200 build/dsi_xlcdc_rgba8888_ws_9x75_curiosity_720x720_round/debug/_ext/2053165825/legato_gpu.o
                0x23f1bc0c                leGPU_BlitBuffer
 .text.leGPU_BlitStretchBuffer
                0x23f1be0c      0x1dc build/dsi_xlcdc_rgba8888_ws_9x75_curiosity_720x720_round/debug/_ext/2053165825/legato_gpu.o
                0x23f1be0c                leGPU_BlitStretchBuffer
 .text.invalidateWidget
                0x23f1bfe8       0xe4 build/dsi_xlcdc_rgba8888_ws_9x75_curiosity_720x720_round/debug/_ext/2053165825/legato_renderer.o
 .text.addDamageRectToList
                0x23f1c0cc       0xbc build/dsi_xlcdc_rgba8888_ws_9x75_curiosity_720x720_round/debug/_ext/2053165825/legato_renderer.o
 .text.findDirtyWidget.isra.0.part.1
                0x23f1c188       0xa8 build/dsi_xlcdc_rgba8888_ws_9x75_curiosity_720x720_round/debug/_ext/2053165825/legato_renderer.o
 .text.leRenderer_IsIdle
                0x23f1c230       0x18 build/dsi_xlcdc_rgba8888_ws_9x75_curiosity_720x720_round/debug/_ext/2053165825/legato_renderer.o
                0x23f1c230                leRenderer_IsIdle
 .text.leGetRenderBuffer
                0x23f1c248       0x28 build/dsi_xlcdc_rgba8888_ws_9x75_curiosity_720x720_round/debug/_ext/2053165825/legato_renderer.o
                0x23f1c248                leGetRenderBuffer
 .text.leRenderer_CurrentColorMode
                0x23f1c270       0x20 build/dsi_xlcdc_rgba8888_ws_9x75_curiosity_720x720_round/debug/_ext/2053165825/legato_renderer.o
                0x23f1c270                leRenderer_CurrentColorMode
 .text.leRenderer_ConvertColor
                0x23f1c290       0x34 build/dsi_xlcdc_rgba8888_ws_9x75_curiosity_720x720_round/debug/_ext/2053165825/legato_renderer.o
                0x23f1c290                leRenderer_ConvertColor
 .text.leRenderer_DisplaySize
                0x23f1c2c4       0x38 build/dsi_xlcdc_rgba8888_ws_9x75_curiosity_720x720_round/debug/_ext/2053165825/legato_renderer.o
                0x23f1c2c4                leRenderer_DisplaySize
 .text.leRenderer_GetClipRect
                0x23f1c2fc       0x18 build/dsi_xlcdc_rgba8888_ws_9x75_curiosity_720x720_round/debug/_ext/2053165825/legato_renderer.o
                0x23f1c2fc                leRenderer_GetClipRect
 .text.leRenderer_GetFrameRect
                0x23f1c314       0x28 build/dsi_xlcdc_rgba8888_ws_9x75_curiosity_720x720_round/debug/_ext/2053165825/legato_renderer.o
                0x23f1c314                leRenderer_GetFrameRect
 .text.leRenderer_CullDrawRect
                0x23f1c33c       0x20 build/dsi_xlcdc_rgba8888_ws_9x75_curiosity_720x720_round/debug/_ext/2053165825/legato_renderer.o
                0x23f1c33c                leRenderer_CullDrawRect
 .text.leRenderer_CullDrawXY
                0x23f1c35c       0x2c build/dsi_xlcdc_rgba8888_ws_9x75_curiosity_720x720_round/debug/_ext/2053165825/legato_renderer.o
                0x23f1c35c                leRenderer_CullDrawXY
 .text.leRenderer_ClipDrawRect
                0x23f1c388       0x10 build/dsi_xlcdc_rgba8888_ws_9x75_curiosity_720x720_round/debug/_ext/2053165825/legato_renderer.o
                0x23f1c388                leRenderer_ClipDrawRect
 .text.leRenderer_Initialize
                0x23f1c398       0x9c build/dsi_xlcdc_rgba8888_ws_9x75_curiosity_720x720_round/debug/_ext/2053165825/legato_renderer.o
                0x23f1c398                leRenderer_Initialize
 .text.leRenderer_DisplayInterface
                0x23f1c434       0x10 build/dsi_xlcdc_rgba8888_ws_9x75_curiosity_720x720_round/debug/_ext/2053165825/legato_renderer.o
                0x23f1c434                leRenderer_DisplayInterface
 .text.leRenderer_GPUInterface
                0x23f1c444       0x10 build/dsi_xlcdc_rgba8888_ws_9x75_curiosity_720x720_round/debug/_ext/2053165825/legato_renderer.o
                0x23f1c444                leRenderer_GPUInterface
 .text.leRenderer_DamageArea
                0x23f1c454       0xa0 build/dsi_xlcdc_rgba8888_ws_9x75_curiosity_720x720_round/debug/_ext/2053165825/legato_renderer.o
                0x23f1c454                leRenderer_DamageArea
 .text.leRenderer_Paint
                0x23f1c4f4      0x874 build/dsi_xlcdc_rgba8888_ws_9x75_curiosity_720x720_round/debug/_ext/2053165825/legato_renderer.o
                0x23f1c4f4                leRenderer_Paint
 .text._leRenderer_CreateLayerState
                0x23f1cd68       0x48 build/dsi_xlcdc_rgba8888_ws_9x75_curiosity_720x720_round/debug/_ext/2053165825/legato_renderer.o
                0x23f1cd68                _leRenderer_CreateLayerState
 .text._leString_Constructor
                0x23f1cdb0       0x18 build/dsi_xlcdc_rgba8888_ws_9x75_curiosity_720x720_round/debug/_ext/357591503/legato_string.o
                0x23f1cdb0                _leString_Constructor
 .text._leString_Destructor
                0x23f1cdc8        0x4 build/dsi_xlcdc_rgba8888_ws_9x75_curiosity_720x720_round/debug/_ext/357591503/legato_string.o
                0x23f1cdc8                _leString_Destructor
 .text._leString_GetRect
                0x23f1cdcc      0x118 build/dsi_xlcdc_rgba8888_ws_9x75_curiosity_720x720_round/debug/_ext/357591503/legato_string.o
                0x23f1cdcc                _leString_GetRect
 .text._leString_GetLineCount
                0x23f1cee4       0x54 build/dsi_xlcdc_rgba8888_ws_9x75_curiosity_720x720_round/debug/_ext/357591503/legato_string.o
                0x23f1cee4                _leString_GetLineCount
 .text._leString_GetLineIndices
                0x23f1cf38       0xc0 build/dsi_xlcdc_rgba8888_ws_9x75_curiosity_720x720_round/debug/_ext/357591503/legato_string.o
                0x23f1cf38                _leString_GetLineIndices
 .text._leString_GetLineRect
                0x23f1cff8      0x108 build/dsi_xlcdc_rgba8888_ws_9x75_curiosity_720x720_round/debug/_ext/357591503/legato_string.o
                0x23f1cff8                _leString_GetLineRect
 .text._leString_GetCharRect
                0x23f1d100       0xf8 build/dsi_xlcdc_rgba8888_ws_9x75_curiosity_720x720_round/debug/_ext/357591503/legato_string.o
                0x23f1d100                _leString_GetCharRect
 .text._leString_GetCharIndexAtPoint
                0x23f1d1f8      0x12c build/dsi_xlcdc_rgba8888_ws_9x75_curiosity_720x720_round/debug/_ext/357591503/legato_string.o
                0x23f1d1f8                _leString_GetCharIndexAtPoint
 .text._leString_Draw
                0x23f1d324       0x40 build/dsi_xlcdc_rgba8888_ws_9x75_curiosity_720x720_round/debug/_ext/357591503/legato_string.o
                0x23f1d324                _leString_Draw
 .text._leString_PreInvalidate
                0x23f1d364       0x14 build/dsi_xlcdc_rgba8888_ws_9x75_curiosity_720x720_round/debug/_ext/357591503/legato_string.o
                0x23f1d364                _leString_PreInvalidate
 .text._leString_Invalidate
                0x23f1d378       0x14 build/dsi_xlcdc_rgba8888_ws_9x75_curiosity_720x720_round/debug/_ext/357591503/legato_string.o
                0x23f1d378                _leString_Invalidate
 .text._leString_SetPreInvalidateCallback
                0x23f1d38c       0x14 build/dsi_xlcdc_rgba8888_ws_9x75_curiosity_720x720_round/debug/_ext/357591503/legato_string.o
                0x23f1d38c                _leString_SetPreInvalidateCallback
 .text._leString_SetInvalidateCallback
                0x23f1d3a0       0x18 build/dsi_xlcdc_rgba8888_ws_9x75_curiosity_720x720_round/debug/_ext/357591503/legato_string.o
                0x23f1d3a0                _leString_SetInvalidateCallback
 .text.decodeASCII
                0x23f1d3b8       0x18 build/dsi_xlcdc_rgba8888_ws_9x75_curiosity_720x720_round/debug/_ext/357591503/legato_stringutils.o
 .text.decodeUTF8
                0x23f1d3d0      0x1c8 build/dsi_xlcdc_rgba8888_ws_9x75_curiosity_720x720_round/debug/_ext/357591503/legato_stringutils.o
 .text.decodeUTF16
                0x23f1d598       0xa4 build/dsi_xlcdc_rgba8888_ws_9x75_curiosity_720x720_round/debug/_ext/357591503/legato_stringutils.o
 .text.leDecodeCodePoint
                0x23f1d63c       0x30 build/dsi_xlcdc_rgba8888_ws_9x75_curiosity_720x720_round/debug/_ext/357591503/legato_stringutils.o
                0x23f1d63c                leDecodeCodePoint
 .text.leStringUtils_KerningRect
                0x23f1d66c       0x38 build/dsi_xlcdc_rgba8888_ws_9x75_curiosity_720x720_round/debug/_ext/357591503/legato_stringutils.o
                0x23f1d66c                leStringUtils_KerningRect
 .text.leStringRenderer_DrawString
                0x23f1d6a4      0x264 build/dsi_xlcdc_rgba8888_ws_9x75_curiosity_720x720_round/debug/_ext/357591503/legato_string_renderer.o
                0x23f1d6a4                leStringRenderer_DrawString
 .text._leFixedString_GetFont
                0x23f1d908        0x8 build/dsi_xlcdc_rgba8888_ws_9x75_curiosity_720x720_round/debug/_ext/357591503/legato_fixedstring.o
                0x23f1d908                _leFixedString_GetFont
 .text._leFixedString_SetFont
                0x23f1d910       0x34 build/dsi_xlcdc_rgba8888_ws_9x75_curiosity_720x720_round/debug/_ext/357591503/legato_fixedstring.o
                0x23f1d910                _leFixedString_SetFont
 .text._leFixedString_SetFromString
                0x23f1d944       0xc8 build/dsi_xlcdc_rgba8888_ws_9x75_curiosity_720x720_round/debug/_ext/357591503/legato_fixedstring.o
                0x23f1d944                _leFixedString_SetFromString
 .text._leFixedString_Length
                0x23f1da0c        0x8 build/dsi_xlcdc_rgba8888_ws_9x75_curiosity_720x720_round/debug/_ext/357591503/legato_fixedstring.o
                0x23f1da0c                _leFixedString_Length
 .text._leFixedString_IsEmpty
                0x23f1da14       0x10 build/dsi_xlcdc_rgba8888_ws_9x75_curiosity_720x720_round/debug/_ext/357591503/legato_fixedstring.o
                0x23f1da14                _leFixedString_IsEmpty
 .text._leFixedString_CharAt
                0x23f1da24       0x1c build/dsi_xlcdc_rgba8888_ws_9x75_curiosity_720x720_round/debug/_ext/357591503/legato_fixedstring.o
                0x23f1da24                _leFixedString_CharAt
 .text._leFixedString_Clear
                0x23f1da40       0x30 build/dsi_xlcdc_rgba8888_ws_9x75_curiosity_720x720_round/debug/_ext/357591503/legato_fixedstring.o
                0x23f1da40                _leFixedString_Clear
 .text._leFixedString_Destructor
                0x23f1da70       0x14 build/dsi_xlcdc_rgba8888_ws_9x75_curiosity_720x720_round/debug/_ext/357591503/legato_fixedstring.o
                0x23f1da70                _leFixedString_Destructor
 .text._leFixedString_ToChar
                0x23f1da84       0x50 build/dsi_xlcdc_rgba8888_ws_9x75_curiosity_720x720_round/debug/_ext/357591503/legato_fixedstring.o
                0x23f1da84                _leFixedString_ToChar
 .text._leFixedString_SetFromCStr
                0x23f1dad4       0x9c build/dsi_xlcdc_rgba8888_ws_9x75_curiosity_720x720_round/debug/_ext/357591503/legato_fixedstring.o
                0x23f1dad4                _leFixedString_SetFromCStr
 .text._leFixedString_Compare
                0x23f1db70       0xa8 build/dsi_xlcdc_rgba8888_ws_9x75_curiosity_720x720_round/debug/_ext/357591503/legato_fixedstring.o
                0x23f1db70                _leFixedString_Compare
 .text._leFixedString_Append
                0x23f1dc18       0xd4 build/dsi_xlcdc_rgba8888_ws_9x75_curiosity_720x720_round/debug/_ext/357591503/legato_fixedstring.o
                0x23f1dc18                _leFixedString_Append
 .text._leFixedString_Insert
                0x23f1dcec      0x188 build/dsi_xlcdc_rgba8888_ws_9x75_curiosity_720x720_round/debug/_ext/357591503/legato_fixedstring.o
                0x23f1dcec                _leFixedString_Insert
 .text._leFixedString_Remove
                0x23f1de74       0xcc build/dsi_xlcdc_rgba8888_ws_9x75_curiosity_720x720_round/debug/_ext/357591503/legato_fixedstring.o
                0x23f1de74                _leFixedString_Remove
 .text._leFixedString_SetFromChar
                0x23f1df40      0x108 build/dsi_xlcdc_rgba8888_ws_9x75_curiosity_720x720_round/debug/_ext/357591503/legato_fixedstring.o
                0x23f1df40                _leFixedString_SetFromChar
 .text.leFixedString_Constructor
                0x23f1e048       0x40 build/dsi_xlcdc_rgba8888_ws_9x75_curiosity_720x720_round/debug/_ext/357591503/legato_fixedstring.o
                0x23f1e048                leFixedString_Constructor
 .text.leStringTable_GetStringFont
                0x23f1e088       0x58 build/dsi_xlcdc_rgba8888_ws_9x75_curiosity_720x720_round/debug/_ext/357591503/legato_stringtable.o
                0x23f1e088                leStringTable_GetStringFont
 .text.leStringTable_StringLookup
                0x23f1e0e0       0xa8 build/dsi_xlcdc_rgba8888_ws_9x75_curiosity_720x720_round/debug/_ext/357591503/legato_stringtable.o
                0x23f1e0e0                leStringTable_StringLookup
 .text.leStringTable_GetStringLength
                0x23f1e188       0x84 build/dsi_xlcdc_rgba8888_ws_9x75_curiosity_720x720_round/debug/_ext/357591503/legato_stringtable.o
                0x23f1e188                leStringTable_GetStringLength
 .text._leTableString_SetFont
                0x23f1e20c        0x8 build/dsi_xlcdc_rgba8888_ws_9x75_curiosity_720x720_round/debug/_ext/357591503/legato_tablestring.o
                0x23f1e20c                _leTableString_SetFont
 .text._leTableString_SetFromChar
                0x23f1e214        0x8 build/dsi_xlcdc_rgba8888_ws_9x75_curiosity_720x720_round/debug/_ext/357591503/legato_tablestring.o
                0x23f1e214                _leTableString_SetFromChar
 .text._leTableString_Compare
                0x23f1e21c       0xb4 build/dsi_xlcdc_rgba8888_ws_9x75_curiosity_720x720_round/debug/_ext/357591503/legato_tablestring.o
                0x23f1e21c                _leTableString_Compare
 .text._leTableString_Remove
                0x23f1e2d0        0x8 build/dsi_xlcdc_rgba8888_ws_9x75_curiosity_720x720_round/debug/_ext/357591503/legato_tablestring.o
                0x23f1e2d0                _leTableString_Remove
 .text._leTableString_Clear
                0x23f1e2d8        0x4 build/dsi_xlcdc_rgba8888_ws_9x75_curiosity_720x720_round/debug/_ext/357591503/legato_tablestring.o
                0x23f1e2d8                _leTableString_Clear
 .text._leTableString_GetID
                0x23f1e2dc        0x8 build/dsi_xlcdc_rgba8888_ws_9x75_curiosity_720x720_round/debug/_ext/357591503/legato_tablestring.o
                0x23f1e2dc                _leTableString_GetID
 .text._leTableString_SetID
                0x23f1e2e4       0x34 build/dsi_xlcdc_rgba8888_ws_9x75_curiosity_720x720_round/debug/_ext/357591503/legato_tablestring.o
                0x23f1e2e4                _leTableString_SetID
 .text._leTableString_Destructor
                0x23f1e318        0xc build/dsi_xlcdc_rgba8888_ws_9x75_curiosity_720x720_round/debug/_ext/357591503/legato_tablestring.o
                0x23f1e318                _leTableString_Destructor
 .text._leTableString_GetFont
                0x23f1e324       0x2c build/dsi_xlcdc_rgba8888_ws_9x75_curiosity_720x720_round/debug/_ext/357591503/legato_tablestring.o
                0x23f1e324                _leTableString_GetFont
 .text._leTableString_Length
                0x23f1e350       0x78 build/dsi_xlcdc_rgba8888_ws_9x75_curiosity_720x720_round/debug/_ext/357591503/legato_tablestring.o
                0x23f1e350                _leTableString_Length
 .text._leTableString_CharAt
                0x23f1e3c8       0xe8 build/dsi_xlcdc_rgba8888_ws_9x75_curiosity_720x720_round/debug/_ext/357591503/legato_tablestring.o
                0x23f1e3c8                _leTableString_CharAt
 .text._leTableString_Insert
                0x23f1e4b0        0x8 build/dsi_xlcdc_rgba8888_ws_9x75_curiosity_720x720_round/debug/_ext/357591503/legato_tablestring.o
                0x23f1e4b0                _leTableString_Insert
 .text._leTableString_Append
                0x23f1e4b8        0x8 build/dsi_xlcdc_rgba8888_ws_9x75_curiosity_720x720_round/debug/_ext/357591503/legato_tablestring.o
                0x23f1e4b8                _leTableString_Append
 .text._leTableString_SetFromString
                0x23f1e4c0        0x8 build/dsi_xlcdc_rgba8888_ws_9x75_curiosity_720x720_round/debug/_ext/357591503/legato_tablestring.o
                0x23f1e4c0                _leTableString_SetFromString
 .text._leTableString_SetFromCStr
                0x23f1e4c8        0x8 build/dsi_xlcdc_rgba8888_ws_9x75_curiosity_720x720_round/debug/_ext/357591503/legato_tablestring.o
                0x23f1e4c8                _leTableString_SetFromCStr
 .text._leTableString_IsEmpty
                0x23f1e4d0       0x80 build/dsi_xlcdc_rgba8888_ws_9x75_curiosity_720x720_round/debug/_ext/357591503/legato_tablestring.o
                0x23f1e4d0                _leTableString_IsEmpty
 .text.leTableString_Constructor
                0x23f1e550       0x28 build/dsi_xlcdc_rgba8888_ws_9x75_curiosity_720x720_round/debug/_ext/357591503/legato_tablestring.o
                0x23f1e550                leTableString_Constructor
 .text.nextState
                0x23f1e578       0xe4 build/dsi_xlcdc_rgba8888_ws_9x75_curiosity_720x720_round/debug/_ext/1591588594/legato_widget_image_skin_classic.o
 .text.drawImage
                0x23f1e65c       0xf4 build/dsi_xlcdc_rgba8888_ws_9x75_curiosity_720x720_round/debug/_ext/1591588594/legato_widget_image_skin_classic.o
 .text.drawBackground
                0x23f1e750       0xf0 build/dsi_xlcdc_rgba8888_ws_9x75_curiosity_720x720_round/debug/_ext/1591588594/legato_widget_image_skin_classic.o
 .text.drawBorder
                0x23f1e840      0x11c build/dsi_xlcdc_rgba8888_ws_9x75_curiosity_720x720_round/debug/_ext/1591588594/legato_widget_image_skin_classic.o
 .text._leImageWidget_GetImageRect
                0x23f1e95c       0xac build/dsi_xlcdc_rgba8888_ws_9x75_curiosity_720x720_round/debug/_ext/1591588594/legato_widget_image_skin_classic.o
                0x23f1e95c                _leImageWidget_GetImageRect
 .text._leImageWidget_Paint
                0x23f1ea08       0x4c build/dsi_xlcdc_rgba8888_ws_9x75_curiosity_720x720_round/debug/_ext/1591588594/legato_widget_image_skin_classic.o
                0x23f1ea08                _leImageWidget_Paint
 .text._leImageWidget_GetImage
                0x23f1ea54        0x8 build/dsi_xlcdc_rgba8888_ws_9x75_curiosity_720x720_round/debug/_ext/1591588594/legato_widget_image.o
                0x23f1ea54                _leImageWidget_GetImage
 .text._leImageWidget_Destructor
                0x23f1ea5c        0x4 build/dsi_xlcdc_rgba8888_ws_9x75_curiosity_720x720_round/debug/_ext/1591588594/legato_widget_image.o
                0x23f1ea5c                _leImageWidget_Destructor
 .text.invalidateContents
                0x23f1ea60       0x6c build/dsi_xlcdc_rgba8888_ws_9x75_curiosity_720x720_round/debug/_ext/1591588594/legato_widget_image.o
 .text._leImageWidget_SetImage
                0x23f1eacc       0xe0 build/dsi_xlcdc_rgba8888_ws_9x75_curiosity_720x720_round/debug/_ext/1591588594/legato_widget_image.o
                0x23f1eacc                _leImageWidget_SetImage
 .text.leImageWidget_New
                0x23f1ebac       0x50 build/dsi_xlcdc_rgba8888_ws_9x75_curiosity_720x720_round/debug/_ext/1591588594/legato_widget_image.o
                0x23f1ebac                leImageWidget_New
 .text.nextState
                0x23f1ebfc       0xf8 build/dsi_xlcdc_rgba8888_ws_9x75_curiosity_720x720_round/debug/_ext/1589174617/legato_widget_label_skin_classic.o
 .text.drawBackground
                0x23f1ecf4      0x104 build/dsi_xlcdc_rgba8888_ws_9x75_curiosity_720x720_round/debug/_ext/1589174617/legato_widget_label_skin_classic.o
 .text.drawBorder
                0x23f1edf8      0x130 build/dsi_xlcdc_rgba8888_ws_9x75_curiosity_720x720_round/debug/_ext/1589174617/legato_widget_label_skin_classic.o
 .text._leLabelWidget_GetTextRects
                0x23f1ef28      0x108 build/dsi_xlcdc_rgba8888_ws_9x75_curiosity_720x720_round/debug/_ext/1589174617/legato_widget_label_skin_classic.o
                0x23f1ef28                _leLabelWidget_GetTextRects
 .text.drawString
                0x23f1f030       0x98 build/dsi_xlcdc_rgba8888_ws_9x75_curiosity_720x720_round/debug/_ext/1589174617/legato_widget_label_skin_classic.o
 .text._leLabelWidget_Paint
                0x23f1f0c8       0x4c build/dsi_xlcdc_rgba8888_ws_9x75_curiosity_720x720_round/debug/_ext/1589174617/legato_widget_label_skin_classic.o
                0x23f1f0c8                _leLabelWidget_Paint
 .text.handleLanguageChangeEvent
                0x23f1f114       0x18 build/dsi_xlcdc_rgba8888_ws_9x75_curiosity_720x720_round/debug/_ext/1589174617/legato_widget_label.o
 .text.getString
                0x23f1f12c        0x8 build/dsi_xlcdc_rgba8888_ws_9x75_curiosity_720x720_round/debug/_ext/1589174617/legato_widget_label.o
 .text._leLabelWidget_Destructor
                0x23f1f134        0xc build/dsi_xlcdc_rgba8888_ws_9x75_curiosity_720x720_round/debug/_ext/1589174617/legato_widget_label.o
 .text.invalidateContents
                0x23f1f140       0x40 build/dsi_xlcdc_rgba8888_ws_9x75_curiosity_720x720_round/debug/_ext/1589174617/legato_widget_label.o
 .text.stringPreinvalidate
                0x23f1f180       0x44 build/dsi_xlcdc_rgba8888_ws_9x75_curiosity_720x720_round/debug/_ext/1589174617/legato_widget_label.o
 .text.stringInvalidate
                0x23f1f1c4       0x44 build/dsi_xlcdc_rgba8888_ws_9x75_curiosity_720x720_round/debug/_ext/1589174617/legato_widget_label.o
 .text.setString
                0x23f1f208      0x110 build/dsi_xlcdc_rgba8888_ws_9x75_curiosity_720x720_round/debug/_ext/1589174617/legato_widget_label.o
 .text.leLabelWidget_New
                0x23f1f318       0x54 build/dsi_xlcdc_rgba8888_ws_9x75_curiosity_720x720_round/debug/_ext/1589174617/legato_widget_label.o
                0x23f1f318                leLabelWidget_New
 .text.leWidget_SkinClassic_FillRoundCornerRect
                0x23f1f36c      0x2a0 build/dsi_xlcdc_rgba8888_ws_9x75_curiosity_720x720_round/debug/_ext/461530114/legato_widget_skin_classic_common.o
                0x23f1f36c                leWidget_SkinClassic_FillRoundCornerRect
 .text.leWidget_SkinClassic_DrawBackground
                0x23f1f60c       0x6c build/dsi_xlcdc_rgba8888_ws_9x75_curiosity_720x720_round/debug/_ext/461530114/legato_widget_skin_classic_common.o
                0x23f1f60c                leWidget_SkinClassic_DrawBackground
 .text.leWidget_SkinClassic_DrawRoundCornerBackground
                0x23f1f678       0x40 build/dsi_xlcdc_rgba8888_ws_9x75_curiosity_720x720_round/debug/_ext/461530114/legato_widget_skin_classic_common.o
                0x23f1f678                leWidget_SkinClassic_DrawRoundCornerBackground
 .text.leWidget_SkinClassic_DrawStandardBackground
                0x23f1f6b8       0x84 build/dsi_xlcdc_rgba8888_ws_9x75_curiosity_720x720_round/debug/_ext/461530114/legato_widget_skin_classic_common.o
                0x23f1f6b8                leWidget_SkinClassic_DrawStandardBackground
 .text.leWidget_SkinClassic_DrawRoundCornerLineBorder
                0x23f1f73c      0x244 build/dsi_xlcdc_rgba8888_ws_9x75_curiosity_720x720_round/debug/_ext/461530114/legato_widget_skin_classic_common.o
                0x23f1f73c                leWidget_SkinClassic_DrawRoundCornerLineBorder
 .text.leWidget_SkinClassic_DrawLineBorder
                0x23f1f980       0xa4 build/dsi_xlcdc_rgba8888_ws_9x75_curiosity_720x720_round/debug/_ext/461530114/legato_widget_skin_classic_common.o
                0x23f1f980                leWidget_SkinClassic_DrawLineBorder
 .text.leWidget_SkinClassic_Draw2x2BeveledBorder
                0x23f1fa24      0x154 build/dsi_xlcdc_rgba8888_ws_9x75_curiosity_720x720_round/debug/_ext/461530114/legato_widget_skin_classic_common.o
                0x23f1fa24                leWidget_SkinClassic_Draw2x2BeveledBorder
 .text.leWidget_SkinClassic_DrawStandardLineBorder
                0x23f1fb78       0x78 build/dsi_xlcdc_rgba8888_ws_9x75_curiosity_720x720_round/debug/_ext/461530114/legato_widget_skin_classic_common.o
                0x23f1fb78                leWidget_SkinClassic_DrawStandardLineBorder
 .text.leWidget_SkinClassic_DrawStandardRaisedBorder
                0x23f1fbf0       0x80 build/dsi_xlcdc_rgba8888_ws_9x75_curiosity_720x720_round/debug/_ext/461530114/legato_widget_skin_classic_common.o
                0x23f1fbf0                leWidget_SkinClassic_DrawStandardRaisedBorder
 .text.leWidget_SkinClassic_InvalidateBorderAreas
                0x23f1fc70      0x17c build/dsi_xlcdc_rgba8888_ws_9x75_curiosity_720x720_round/debug/_ext/461530114/legato_widget_skin_classic_common.o
                0x23f1fc70                leWidget_SkinClassic_InvalidateBorderAreas
 .text.drawBorder
                0x23f1fdec       0x54 build/dsi_xlcdc_rgba8888_ws_9x75_curiosity_720x720_round/debug/_ext/461530114/legato_widget_skin_classic.o
 .text.drawBackground
                0x23f1fe40       0xdc build/dsi_xlcdc_rgba8888_ws_9x75_curiosity_720x720_round/debug/_ext/461530114/legato_widget_skin_classic.o
 .text._leWidget_Paint
                0x23f1ff1c       0x80 build/dsi_xlcdc_rgba8888_ws_9x75_curiosity_720x720_round/debug/_ext/461530114/legato_widget_skin_classic.o
                0x23f1ff1c                _leWidget_Paint
 .text._leWidget_GetType
                0x23f1ff9c        0x8 build/dsi_xlcdc_rgba8888_ws_9x75_curiosity_720x720_round/debug/_ext/461530114/legato_widget.o
                0x23f1ff9c                _leWidget_GetType
 .text._leWidget_GetX
                0x23f1ffa4        0x8 build/dsi_xlcdc_rgba8888_ws_9x75_curiosity_720x720_round/debug/_ext/461530114/legato_widget.o
                0x23f1ffa4                _leWidget_GetX
 .text._leWidget_SetX
                0x23f1ffac       0x80 build/dsi_xlcdc_rgba8888_ws_9x75_curiosity_720x720_round/debug/_ext/461530114/legato_widget.o
                0x23f1ffac                _leWidget_SetX
 .text._leWidget_GetY
                0x23f2002c        0x8 build/dsi_xlcdc_rgba8888_ws_9x75_curiosity_720x720_round/debug/_ext/461530114/legato_widget.o
                0x23f2002c                _leWidget_GetY
 .text._leWidget_SetY
                0x23f20034       0x80 build/dsi_xlcdc_rgba8888_ws_9x75_curiosity_720x720_round/debug/_ext/461530114/legato_widget.o
                0x23f20034                _leWidget_SetY
 .text._leWidget_SetPosition
                0x23f200b4       0xd8 build/dsi_xlcdc_rgba8888_ws_9x75_curiosity_720x720_round/debug/_ext/461530114/legato_widget.o
                0x23f200b4                _leWidget_SetPosition
 .text._leWidget_Translate
                0x23f2018c       0xd0 build/dsi_xlcdc_rgba8888_ws_9x75_curiosity_720x720_round/debug/_ext/461530114/legato_widget.o
                0x23f2018c                _leWidget_Translate
 .text._leWidget_GetWidth
                0x23f2025c        0x8 build/dsi_xlcdc_rgba8888_ws_9x75_curiosity_720x720_round/debug/_ext/461530114/legato_widget.o
                0x23f2025c                _leWidget_GetWidth
 .text._leWidget_SetWidth
                0x23f20264       0xb8 build/dsi_xlcdc_rgba8888_ws_9x75_curiosity_720x720_round/debug/_ext/461530114/legato_widget.o
                0x23f20264                _leWidget_SetWidth
 .text._leWidget_GetHeight
                0x23f2031c        0x8 build/dsi_xlcdc_rgba8888_ws_9x75_curiosity_720x720_round/debug/_ext/461530114/legato_widget.o
                0x23f2031c                _leWidget_GetHeight
 .text._leWidget_SetHeight
                0x23f20324       0xb8 build/dsi_xlcdc_rgba8888_ws_9x75_curiosity_720x720_round/debug/_ext/461530114/legato_widget.o
                0x23f20324                _leWidget_SetHeight
 .text._leWidget_SetSize
                0x23f203dc       0xe8 build/dsi_xlcdc_rgba8888_ws_9x75_curiosity_720x720_round/debug/_ext/461530114/legato_widget.o
                0x23f203dc                _leWidget_SetSize
 .text._leWidget_GetAlphaEnabled
                0x23f204c4       0x10 build/dsi_xlcdc_rgba8888_ws_9x75_curiosity_720x720_round/debug/_ext/461530114/legato_widget.o
                0x23f204c4                _leWidget_GetAlphaEnabled
 .text._leWidget_GetCumulativeAlphaEnabled
                0x23f204d4       0x2c build/dsi_xlcdc_rgba8888_ws_9x75_curiosity_720x720_round/debug/_ext/461530114/legato_widget.o
                0x23f204d4                _leWidget_GetCumulativeAlphaEnabled
 .text._leWidget_SetAlphaEnabled
                0x23f20500       0x44 build/dsi_xlcdc_rgba8888_ws_9x75_curiosity_720x720_round/debug/_ext/461530114/legato_widget.o
                0x23f20500                _leWidget_SetAlphaEnabled
 .text._leWidget_GetAlphaAmount
                0x23f20544        0x8 build/dsi_xlcdc_rgba8888_ws_9x75_curiosity_720x720_round/debug/_ext/461530114/legato_widget.o
                0x23f20544                _leWidget_GetAlphaAmount
 .text._leWidget_SetAlphaAmount
                0x23f2054c       0x38 build/dsi_xlcdc_rgba8888_ws_9x75_curiosity_720x720_round/debug/_ext/461530114/legato_widget.o
                0x23f2054c                _leWidget_SetAlphaAmount
 .text._leWidget_IsOpaque
                0x23f20584       0x4c build/dsi_xlcdc_rgba8888_ws_9x75_curiosity_720x720_round/debug/_ext/461530114/legato_widget.o
                0x23f20584                _leWidget_IsOpaque
 .text._leWidget_GetEnabled
                0x23f205d0        0xc build/dsi_xlcdc_rgba8888_ws_9x75_curiosity_720x720_round/debug/_ext/461530114/legato_widget.o
                0x23f205d0                _leWidget_GetEnabled
 .text._leWidget_SetEnabled
                0x23f205dc       0x40 build/dsi_xlcdc_rgba8888_ws_9x75_curiosity_720x720_round/debug/_ext/461530114/legato_widget.o
                0x23f205dc                _leWidget_SetEnabled
 .text._leWidget_GetVisible
                0x23f2061c       0x10 build/dsi_xlcdc_rgba8888_ws_9x75_curiosity_720x720_round/debug/_ext/461530114/legato_widget.o
                0x23f2061c                _leWidget_GetVisible
 .text._leWidget_SetVisible
                0x23f2062c       0x44 build/dsi_xlcdc_rgba8888_ws_9x75_curiosity_720x720_round/debug/_ext/461530114/legato_widget.o
                0x23f2062c                _leWidget_SetVisible
 .text._leWidget_LocalRect
                0x23f20670       0x28 build/dsi_xlcdc_rgba8888_ws_9x75_curiosity_720x720_round/debug/_ext/461530114/legato_widget.o
                0x23f20670                _leWidget_LocalRect
 .text._leWidget_RectToParentSpace
                0x23f20698       0x44 build/dsi_xlcdc_rgba8888_ws_9x75_curiosity_720x720_round/debug/_ext/461530114/legato_widget.o
                0x23f20698                _leWidget_RectToParentSpace
 .text._leWidget_GetRootWidget
                0x23f206dc       0x20 build/dsi_xlcdc_rgba8888_ws_9x75_curiosity_720x720_round/debug/_ext/461530114/legato_widget.o
                0x23f206dc                _leWidget_GetRootWidget
 .text._leWidget_SetParent
                0x23f206fc       0x4c build/dsi_xlcdc_rgba8888_ws_9x75_curiosity_720x720_round/debug/_ext/461530114/legato_widget.o
                0x23f206fc                _leWidget_SetParent
 .text._leWidget_GetChildCount
                0x23f20748        0x8 build/dsi_xlcdc_rgba8888_ws_9x75_curiosity_720x720_round/debug/_ext/461530114/legato_widget.o
                0x23f20748                _leWidget_GetChildCount
 .text._leWidget_GetChildAtIndex
                0x23f20750       0x20 build/dsi_xlcdc_rgba8888_ws_9x75_curiosity_720x720_round/debug/_ext/461530114/legato_widget.o
                0x23f20750                _leWidget_GetChildAtIndex
 .text._leWidget_ContainsDescendant
                0x23f20770       0x80 build/dsi_xlcdc_rgba8888_ws_9x75_curiosity_720x720_round/debug/_ext/461530114/legato_widget.o
                0x23f20770                _leWidget_ContainsDescendant
 .text._leWidget_GetScheme
                0x23f207f0        0x8 build/dsi_xlcdc_rgba8888_ws_9x75_curiosity_720x720_round/debug/_ext/461530114/legato_widget.o
                0x23f207f0                _leWidget_GetScheme
 .text._leWidget_SetScheme
                0x23f207f8       0x30 build/dsi_xlcdc_rgba8888_ws_9x75_curiosity_720x720_round/debug/_ext/461530114/legato_widget.o
                0x23f207f8                _leWidget_SetScheme
 .text._leWidget_GetBorderType
                0x23f20828        0x8 build/dsi_xlcdc_rgba8888_ws_9x75_curiosity_720x720_round/debug/_ext/461530114/legato_widget.o
                0x23f20828                _leWidget_GetBorderType
 .text._leWidget_SetBorderType
                0x23f20830       0x30 build/dsi_xlcdc_rgba8888_ws_9x75_curiosity_720x720_round/debug/_ext/461530114/legato_widget.o
                0x23f20830                _leWidget_SetBorderType
 .text._leWidget_GetBackgroundType
                0x23f20860        0x8 build/dsi_xlcdc_rgba8888_ws_9x75_curiosity_720x720_round/debug/_ext/461530114/legato_widget.o
                0x23f20860                _leWidget_GetBackgroundType
 .text._leWidget_SetBackgroundType
                0x23f20868       0x30 build/dsi_xlcdc_rgba8888_ws_9x75_curiosity_720x720_round/debug/_ext/461530114/legato_widget.o
                0x23f20868                _leWidget_SetBackgroundType
 .text._leWidget_GetHAlignment
                0x23f20898        0x8 build/dsi_xlcdc_rgba8888_ws_9x75_curiosity_720x720_round/debug/_ext/461530114/legato_widget.o
                0x23f20898                _leWidget_GetHAlignment
 .text._leWidget_SetHAlignment
                0x23f208a0       0x48 build/dsi_xlcdc_rgba8888_ws_9x75_curiosity_720x720_round/debug/_ext/461530114/legato_widget.o
                0x23f208a0                _leWidget_SetHAlignment
 .text._leWidget_GetVAlignment
                0x23f208e8        0x8 build/dsi_xlcdc_rgba8888_ws_9x75_curiosity_720x720_round/debug/_ext/461530114/legato_widget.o
                0x23f208e8                _leWidget_GetVAlignment
 .text._leWidget_SetVAlignment
                0x23f208f0       0x48 build/dsi_xlcdc_rgba8888_ws_9x75_curiosity_720x720_round/debug/_ext/461530114/legato_widget.o
                0x23f208f0                _leWidget_SetVAlignment
 .text._leWidget_GetMargins
                0x23f20938       0x30 build/dsi_xlcdc_rgba8888_ws_9x75_curiosity_720x720_round/debug/_ext/461530114/legato_widget.o
                0x23f20938                _leWidget_GetMargins
 .text._leWidget_SetMargins
                0x23f20968       0x64 build/dsi_xlcdc_rgba8888_ws_9x75_curiosity_720x720_round/debug/_ext/461530114/legato_widget.o
                0x23f20968                _leWidget_SetMargins
 .text._leWidget_GetCornerRadius
                0x23f209cc        0x8 build/dsi_xlcdc_rgba8888_ws_9x75_curiosity_720x720_round/debug/_ext/461530114/legato_widget.o
                0x23f209cc                _leWidget_GetCornerRadius
 .text._leWidget_SetCornerRadius
                0x23f209d4       0x3c build/dsi_xlcdc_rgba8888_ws_9x75_curiosity_720x720_round/debug/_ext/461530114/legato_widget.o
                0x23f209d4                _leWidget_SetCornerRadius
 .text._leWidget_Invalidate
                0x23f20a10       0x38 build/dsi_xlcdc_rgba8888_ws_9x75_curiosity_720x720_round/debug/_ext/461530114/legato_widget.o
                0x23f20a10                _leWidget_Invalidate
 .text._leWidget_InvalidateContents
                0x23f20a48        0x4 build/dsi_xlcdc_rgba8888_ws_9x75_curiosity_720x720_round/debug/_ext/461530114/legato_widget.o
                0x23f20a48                _leWidget_InvalidateContents
 .text._leWidget_InstallEventFilter
                0x23f20a4c       0x58 build/dsi_xlcdc_rgba8888_ws_9x75_curiosity_720x720_round/debug/_ext/461530114/legato_widget.o
                0x23f20a4c                _leWidget_InstallEventFilter
 .text._leWidget_RemoveEventFilter
                0x23f20aa4       0x58 build/dsi_xlcdc_rgba8888_ws_9x75_curiosity_720x720_round/debug/_ext/461530114/legato_widget.o
                0x23f20aa4                _leWidget_RemoveEventFilter
 .text._leWidget_TouchDownEvent
                0x23f20afc        0x4 build/dsi_xlcdc_rgba8888_ws_9x75_curiosity_720x720_round/debug/_ext/461530114/legato_widget.o
                0x23f20afc                _leWidget_TouchDownEvent
 .text._leWidget_HandleEvent
                0x23f20b00      0x340 build/dsi_xlcdc_rgba8888_ws_9x75_curiosity_720x720_round/debug/_ext/461530114/legato_widget.o
                0x23f20b00                _leWidget_HandleEvent
 .text._leWidget_ValidateChildren
                0x23f20e40       0x50 build/dsi_xlcdc_rgba8888_ws_9x75_curiosity_720x720_round/debug/_ext/461530114/legato_widget.o
                0x23f20e40                _leWidget_ValidateChildren
 .text._leWidget_IncreaseDirtyState
                0x23f20e90       0x10 build/dsi_xlcdc_rgba8888_ws_9x75_curiosity_720x720_round/debug/_ext/461530114/legato_widget.o
                0x23f20e90                _leWidget_IncreaseDirtyState
 .text._leWidget_SetDirtyState
                0x23f20ea0        0x8 build/dsi_xlcdc_rgba8888_ws_9x75_curiosity_720x720_round/debug/_ext/461530114/legato_widget.o
                0x23f20ea0                _leWidget_SetDirtyState
 .text._leWidget_ClearDirtyState
                0x23f20ea8        0xc build/dsi_xlcdc_rgba8888_ws_9x75_curiosity_720x720_round/debug/_ext/461530114/legato_widget.o
                0x23f20ea8                _leWidget_ClearDirtyState
 .text._leWidget_Update
                0x23f20eb4        0x4 build/dsi_xlcdc_rgba8888_ws_9x75_curiosity_720x720_round/debug/_ext/461530114/legato_widget.o
                0x23f20eb4                _leWidget_Update
 .text._leWidget_HasFocus
                0x23f20eb8       0x20 build/dsi_xlcdc_rgba8888_ws_9x75_curiosity_720x720_round/debug/_ext/461530114/legato_widget.o
                0x23f20eb8                _leWidget_HasFocus
 .text._leWidget_SetFocus
                0x23f20ed8        0x4 build/dsi_xlcdc_rgba8888_ws_9x75_curiosity_720x720_round/debug/_ext/461530114/legato_widget.o
                0x23f20ed8                _leWidget_SetFocus
 .text._leWidget_Destructor
                0x23f20edc       0x98 build/dsi_xlcdc_rgba8888_ws_9x75_curiosity_720x720_round/debug/_ext/461530114/legato_widget.o
                0x23f20edc                _leWidget_Destructor
 .text._leWidget_RemoveAllChildren
                0x23f20f74       0x70 build/dsi_xlcdc_rgba8888_ws_9x75_curiosity_720x720_round/debug/_ext/461530114/legato_widget.o
                0x23f20f74                _leWidget_RemoveAllChildren
 .text._leWidget_Resize
                0x23f20fe4      0x108 build/dsi_xlcdc_rgba8888_ws_9x75_curiosity_720x720_round/debug/_ext/461530114/legato_widget.o
                0x23f20fe4                _leWidget_Resize
 .text._leWidget_RectToScreenSpace
                0x23f210ec       0x50 build/dsi_xlcdc_rgba8888_ws_9x75_curiosity_720x720_round/debug/_ext/461530114/legato_widget.o
                0x23f210ec                _leWidget_RectToScreenSpace
 .text._leWidget_AddChild
                0x23f2113c       0x94 build/dsi_xlcdc_rgba8888_ws_9x75_curiosity_720x720_round/debug/_ext/461530114/legato_widget.o
                0x23f2113c                _leWidget_AddChild
 .text._leWidget_InsertChild
                0x23f211d0       0x9c build/dsi_xlcdc_rgba8888_ws_9x75_curiosity_720x720_round/debug/_ext/461530114/legato_widget.o
                0x23f211d0                _leWidget_InsertChild
 .text._leWidget_RemoveChild
                0x23f2126c       0x54 build/dsi_xlcdc_rgba8888_ws_9x75_curiosity_720x720_round/debug/_ext/461530114/legato_widget.o
                0x23f2126c                _leWidget_RemoveChild
 .text._leWidget_SetChildIndex
                0x23f212c0       0x4c build/dsi_xlcdc_rgba8888_ws_9x75_curiosity_720x720_round/debug/_ext/461530114/legato_widget.o
                0x23f212c0                _leWidget_SetChildIndex
 .text._leWidget_RemoveChildAt
                0x23f2130c       0x58 build/dsi_xlcdc_rgba8888_ws_9x75_curiosity_720x720_round/debug/_ext/461530114/legato_widget.o
                0x23f2130c                _leWidget_RemoveChildAt
 .text._leWidget_GetIndexOfChild
                0x23f21364       0x1c build/dsi_xlcdc_rgba8888_ws_9x75_curiosity_720x720_round/debug/_ext/461530114/legato_widget.o
                0x23f21364                _leWidget_GetIndexOfChild
 .text._leWidget_InvalidateBorderAreas
                0x23f21380        0x4 build/dsi_xlcdc_rgba8888_ws_9x75_curiosity_720x720_round/debug/_ext/461530114/legato_widget.o
                0x23f21380                _leWidget_InvalidateBorderAreas
 .text._leWidget_GetCumulativeAlphaAmount
                0x23f21384       0x8c build/dsi_xlcdc_rgba8888_ws_9x75_curiosity_720x720_round/debug/_ext/461530114/legato_widget.o
                0x23f21384                _leWidget_GetCumulativeAlphaAmount
 .text._leWidget_DamageArea
                0x23f21410       0x30 build/dsi_xlcdc_rgba8888_ws_9x75_curiosity_720x720_round/debug/_ext/461530114/legato_widget.o
                0x23f21410                _leWidget_DamageArea
 .text._leWidget_MoveEvent
                0x23f21440        0x4 build/dsi_xlcdc_rgba8888_ws_9x75_curiosity_720x720_round/debug/_ext/461530114/legato_widget.o
                0x23f21440                _leWidget_MoveEvent
 .text._leWidget_LanguageChangeEvent
                0x23f21444        0x4 build/dsi_xlcdc_rgba8888_ws_9x75_curiosity_720x720_round/debug/_ext/461530114/legato_widget.o
                0x23f21444                _leWidget_LanguageChangeEvent
 .text._leWidget_ResizeEvent
                0x23f21448        0x4 build/dsi_xlcdc_rgba8888_ws_9x75_curiosity_720x720_round/debug/_ext/461530114/legato_widget.o
                0x23f21448                _leWidget_ResizeEvent
 .text._leWidget_TouchUpEvent
                0x23f2144c        0x4 build/dsi_xlcdc_rgba8888_ws_9x75_curiosity_720x720_round/debug/_ext/461530114/legato_widget.o
                0x23f2144c                _leWidget_TouchUpEvent
 .text._leWidget_TouchMoveEvent
                0x23f21450        0x4 build/dsi_xlcdc_rgba8888_ws_9x75_curiosity_720x720_round/debug/_ext/461530114/legato_widget.o
                0x23f21450                _leWidget_TouchMoveEvent
 .text._leWidget_FocusLostEvent
                0x23f21454        0x4 build/dsi_xlcdc_rgba8888_ws_9x75_curiosity_720x720_round/debug/_ext/461530114/legato_widget.o
                0x23f21454                _leWidget_FocusLostEvent
 .text._leWidget_FocusGainedEvent
                0x23f21458        0x4 build/dsi_xlcdc_rgba8888_ws_9x75_curiosity_720x720_round/debug/_ext/461530114/legato_widget.o
                0x23f21458                _leWidget_FocusGainedEvent
 .text.leWidget_Constructor
                0x23f2145c       0x9c build/dsi_xlcdc_rgba8888_ws_9x75_curiosity_720x720_round/debug/_ext/461530114/legato_widget.o
                0x23f2145c                leWidget_Constructor
 .text.leWidget_New
                0x23f214f8       0xac build/dsi_xlcdc_rgba8888_ws_9x75_curiosity_720x720_round/debug/_ext/461530114/legato_widget.o
                0x23f214f8                leWidget_New
 .text.leWidget_Delete
                0x23f215a4       0x24 build/dsi_xlcdc_rgba8888_ws_9x75_curiosity_720x720_round/debug/_ext/461530114/legato_widget.o
                0x23f215a4                leWidget_Delete
 .text.AIC_INT_Initialize
                0x23f215c8      0x11c build/dsi_xlcdc_rgba8888_ws_9x75_curiosity_720x720_round/debug/_ext/1886844053/plib_aic.o
                0x23f215c8                AIC_INT_Initialize
 .text.AIC_INT_IrqDisable
                0x23f216e4       0x30 build/dsi_xlcdc_rgba8888_ws_9x75_curiosity_720x720_round/debug/_ext/1886844053/plib_aic.o
                0x23f216e4                AIC_INT_IrqDisable
 .text.AIC_INT_IrqRestore
                0x23f21714       0x28 build/dsi_xlcdc_rgba8888_ws_9x75_curiosity_720x720_round/debug/_ext/1886844053/plib_aic.o
                0x23f21714                AIC_INT_IrqRestore
 .text.CLK_Initialize
                0x23f2173c      0x318 build/dsi_xlcdc_rgba8888_ws_9x75_curiosity_720x720_round/debug/_ext/1886846076/plib_clk.o
                0x23f2173c                CLK_Initialize
 .text.DBGU_Initialize
                0x23f21a54       0x28 build/dsi_xlcdc_rgba8888_ws_9x75_curiosity_720x720_round/debug/_ext/1637293614/plib_dbgu.o
                0x23f21a54                DBGU_Initialize
 .text.DBGU_Read
                0x23f21a7c       0xc4 build/dsi_xlcdc_rgba8888_ws_9x75_curiosity_720x720_round/debug/_ext/1637293614/plib_dbgu.o
                0x23f21a7c                DBGU_Read
 .text.DBGU_Write
                0x23f21b40       0x3c build/dsi_xlcdc_rgba8888_ws_9x75_curiosity_720x720_round/debug/_ext/1637293614/plib_dbgu.o
                0x23f21b40                DBGU_Write
 .text.FLEXCOM6_TWI_InitiateTransfer
                0x23f21b7c      0x1ac build/dsi_xlcdc_rgba8888_ws_9x75_curiosity_720x720_round/debug/_ext/545877704/plib_flexcom6_twi_master.o
 .text.FLEXCOM6_TWI_Initialize
                0x23f21d28       0x74 build/dsi_xlcdc_rgba8888_ws_9x75_curiosity_720x720_round/debug/_ext/545877704/plib_flexcom6_twi_master.o
                0x23f21d28                FLEXCOM6_TWI_Initialize
 .text.FLEXCOM6_TWI_CallbackRegister
                0x23f21d9c       0x18 build/dsi_xlcdc_rgba8888_ws_9x75_curiosity_720x720_round/debug/_ext/545877704/plib_flexcom6_twi_master.o
                0x23f21d9c                FLEXCOM6_TWI_CallbackRegister
 .text.FLEXCOM6_TWI_Read
                0x23f21db4       0xe4 build/dsi_xlcdc_rgba8888_ws_9x75_curiosity_720x720_round/debug/_ext/545877704/plib_flexcom6_twi_master.o
                0x23f21db4                FLEXCOM6_TWI_Read
 .text.FLEXCOM6_TWI_Write
                0x23f21e98       0x74 build/dsi_xlcdc_rgba8888_ws_9x75_curiosity_720x720_round/debug/_ext/545877704/plib_flexcom6_twi_master.o
                0x23f21e98                FLEXCOM6_TWI_Write
 .text.FLEXCOM6_TWI_WriteRead
                0x23f21f0c       0x78 build/dsi_xlcdc_rgba8888_ws_9x75_curiosity_720x720_round/debug/_ext/545877704/plib_flexcom6_twi_master.o
                0x23f21f0c                FLEXCOM6_TWI_WriteRead
 .text.FLEXCOM6_TWI_TransferAbort
                0x23f21f84       0x3c build/dsi_xlcdc_rgba8888_ws_9x75_curiosity_720x720_round/debug/_ext/545877704/plib_flexcom6_twi_master.o
                0x23f21f84                FLEXCOM6_TWI_TransferAbort
 .text.FLEXCOM6_TWI_ErrorGet
                0x23f21fc0       0x18 build/dsi_xlcdc_rgba8888_ws_9x75_curiosity_720x720_round/debug/_ext/545877704/plib_flexcom6_twi_master.o
                0x23f21fc0                FLEXCOM6_TWI_ErrorGet
 .text.FLEXCOM6_TWI_TransferSetup
                0x23f21fd8       0xb4 build/dsi_xlcdc_rgba8888_ws_9x75_curiosity_720x720_round/debug/_ext/545877704/plib_flexcom6_twi_master.o
                0x23f21fd8                FLEXCOM6_TWI_TransferSetup
 .text.FLEXCOM6_InterruptHandler
                0x23f2208c      0x348 build/dsi_xlcdc_rgba8888_ws_9x75_curiosity_720x720_round/debug/_ext/545877704/plib_flexcom6_twi_master.o
                0x23f2208c                FLEXCOM6_InterruptHandler
 .text.PLIB_GFX2D_SetOutstandingRegulationEnable
                0x23f223d4       0x24 build/dsi_xlcdc_rgba8888_ws_9x75_curiosity_720x720_round/debug/_ext/786409605/plib_gfx2d.o
                0x23f223d4                PLIB_GFX2D_SetOutstandingRegulationEnable
 .text.PLIB_GFX2D_SetQOSLatency
                0x23f223f8       0x58 build/dsi_xlcdc_rgba8888_ws_9x75_curiosity_720x720_round/debug/_ext/786409605/plib_gfx2d.o
                0x23f223f8                PLIB_GFX2D_SetQOSLatency
 .text.PLIB_GFX2D_GetGlobalStatusBusy
                0x23f22450       0x18 build/dsi_xlcdc_rgba8888_ws_9x75_curiosity_720x720_round/debug/_ext/786409605/plib_gfx2d.o
                0x23f22450                PLIB_GFX2D_GetGlobalStatusBusy
 .text.PLIB_GFX2D_Initialize
                0x23f22468       0x78 build/dsi_xlcdc_rgba8888_ws_9x75_curiosity_720x720_round/debug/_ext/786409605/plib_gfx2d.o
                0x23f22468                PLIB_GFX2D_Initialize
 .text.PLIB_GFX2D_Enable
                0x23f224e0       0x38 build/dsi_xlcdc_rgba8888_ws_9x75_curiosity_720x720_round/debug/_ext/786409605/plib_gfx2d.o
                0x23f224e0                PLIB_GFX2D_Enable
 .text.PLIB_GFX2D_Fill
                0x23f22518      0x12c build/dsi_xlcdc_rgba8888_ws_9x75_curiosity_720x720_round/debug/_ext/786409605/plib_gfx2d.o
                0x23f22518                PLIB_GFX2D_Fill
 .text.PLIB_GFX2D_Copy
                0x23f22644      0x168 build/dsi_xlcdc_rgba8888_ws_9x75_curiosity_720x720_round/debug/_ext/786409605/plib_gfx2d.o
                0x23f22644                PLIB_GFX2D_Copy
 .text.dcache_CleanInvalidateByAddr
                0x23f227ac       0x48 build/dsi_xlcdc_rgba8888_ws_9x75_curiosity_720x720_round/debug/_ext/1886855727/plib_mmu.o
                0x23f227ac                dcache_CleanInvalidateByAddr
 *fill*         0x23f227f4        0x4 
 .text.MMU_Initialize
                0x23f227f8      0x2d0 build/dsi_xlcdc_rgba8888_ws_9x75_curiosity_720x720_round/debug/_ext/1886855727/plib_mmu.o
                0x23f227f8                MMU_Initialize
 .text.PIO_Initialize
                0x23f22ac8       0xe0 build/dsi_xlcdc_rgba8888_ws_9x75_curiosity_720x720_round/debug/_ext/1886858480/plib_pio.o
                0x23f22ac8                PIO_Initialize
 .text.RTT_Initialize
                0x23f22ba8       0x24 build/dsi_xlcdc_rgba8888_ws_9x75_curiosity_720x720_round/debug/_ext/1886860748/plib_rtt.o
                0x23f22ba8                RTT_Initialize
 .text.RTT_Enable
                0x23f22bcc       0x20 build/dsi_xlcdc_rgba8888_ws_9x75_curiosity_720x720_round/debug/_ext/1886860748/plib_rtt.o
                0x23f22bcc                RTT_Enable
 .text.RTT_Disable
                0x23f22bec       0x14 build/dsi_xlcdc_rgba8888_ws_9x75_curiosity_720x720_round/debug/_ext/1886860748/plib_rtt.o
                0x23f22bec                RTT_Disable
 .text.RTT_AlarmValueSet
                0x23f22c00       0x2c build/dsi_xlcdc_rgba8888_ws_9x75_curiosity_720x720_round/debug/_ext/1886860748/plib_rtt.o
                0x23f22c00                RTT_AlarmValueSet
 .text.RTT_CallbackRegister
                0x23f22c2c       0x14 build/dsi_xlcdc_rgba8888_ws_9x75_curiosity_720x720_round/debug/_ext/1886860748/plib_rtt.o
                0x23f22c2c                RTT_CallbackRegister
 .text.RTT_TimerValueGet
                0x23f22c40       0x28 build/dsi_xlcdc_rgba8888_ws_9x75_curiosity_720x720_round/debug/_ext/1886860748/plib_rtt.o
                0x23f22c40                RTT_TimerValueGet
 .text.RTT_FrequencyGet
                0x23f22c68       0x40 build/dsi_xlcdc_rgba8888_ws_9x75_curiosity_720x720_round/debug/_ext/1886860748/plib_rtt.o
                0x23f22c68                RTT_FrequencyGet
 .text.RTT_InterruptHandler
                0x23f22ca8       0xa4 build/dsi_xlcdc_rgba8888_ws_9x75_curiosity_720x720_round/debug/_ext/1886860748/plib_rtt.o
                0x23f22ca8                RTT_InterruptHandler
 .text.TC1_CH0_TimerInitialize
                0x23f22d4c       0x44 build/dsi_xlcdc_rgba8888_ws_9x75_curiosity_720x720_round/debug/_ext/60866517/plib_tc1.o
                0x23f22d4c                TC1_CH0_TimerInitialize
 .text.TC1_CH0_TimerStart
                0x23f22d90       0x14 build/dsi_xlcdc_rgba8888_ws_9x75_curiosity_720x720_round/debug/_ext/60866517/plib_tc1.o
                0x23f22d90                TC1_CH0_TimerStart
 .text.TC1_CH0_TimerStop
                0x23f22da4       0x14 build/dsi_xlcdc_rgba8888_ws_9x75_curiosity_720x720_round/debug/_ext/60866517/plib_tc1.o
                0x23f22da4                TC1_CH0_TimerStop
 .text.TC1_CH0_TimerCallbackRegister
                0x23f22db8       0x14 build/dsi_xlcdc_rgba8888_ws_9x75_curiosity_720x720_round/debug/_ext/60866517/plib_tc1.o
                0x23f22db8                TC1_CH0_TimerCallbackRegister
 .text.TC1_CH1_TimerInitialize
                0x23f22dcc       0x44 build/dsi_xlcdc_rgba8888_ws_9x75_curiosity_720x720_round/debug/_ext/60866517/plib_tc1.o
                0x23f22dcc                TC1_CH1_TimerInitialize
 .text.TC1_CH1_TimerStart
                0x23f22e10       0x14 build/dsi_xlcdc_rgba8888_ws_9x75_curiosity_720x720_round/debug/_ext/60866517/plib_tc1.o
                0x23f22e10                TC1_CH1_TimerStart
 .text.TC1_CH1_TimerStop
                0x23f22e24       0x14 build/dsi_xlcdc_rgba8888_ws_9x75_curiosity_720x720_round/debug/_ext/60866517/plib_tc1.o
                0x23f22e24                TC1_CH1_TimerStop
 .text.TC1_CH1_TimerCallbackRegister
                0x23f22e38       0x14 build/dsi_xlcdc_rgba8888_ws_9x75_curiosity_720x720_round/debug/_ext/60866517/plib_tc1.o
                0x23f22e38                TC1_CH1_TimerCallbackRegister
 .text.TC1_InterruptHandler
                0x23f22e4c       0x84 build/dsi_xlcdc_rgba8888_ws_9x75_curiosity_720x720_round/debug/_ext/60866517/plib_tc1.o
                0x23f22e4c                TC1_InterruptHandler
 .text.read     0x23f22ed0       0x40 build/dsi_xlcdc_rgba8888_ws_9x75_curiosity_720x720_round/debug/_ext/1477359996/xc32_monitor.o
                0x23f22ed0                read
 .text.write    0x23f22f10       0x38 build/dsi_xlcdc_rgba8888_ws_9x75_curiosity_720x720_round/debug/_ext/1477359996/xc32_monitor.o
                0x23f22f10                write
 .text.SYS_INP_Init
                0x23f22f48       0x44 build/dsi_xlcdc_rgba8888_ws_9x75_curiosity_720x720_round/debug/_ext/1949213289/sys_input.o
                0x23f22f48                SYS_INP_Init
 .text.SYS_INP_Tasks
                0x23f22f8c      0x1b0 build/dsi_xlcdc_rgba8888_ws_9x75_curiosity_720x720_round/debug/_ext/1949213289/sys_input.o
                0x23f22f8c                SYS_INP_Tasks
 .text.SYS_INP_AddListener
                0x23f2313c       0x78 build/dsi_xlcdc_rgba8888_ws_9x75_curiosity_720x720_round/debug/_ext/1949213289/sys_input.o
                0x23f2313c                SYS_INP_AddListener
 .text.SYS_INP_InjectTouchDown
                0x23f231b4       0x50 build/dsi_xlcdc_rgba8888_ws_9x75_curiosity_720x720_round/debug/_ext/1949213289/sys_input.o
                0x23f231b4                SYS_INP_InjectTouchDown
 .text.SYS_INP_InjectTouchUp
                0x23f23204       0x50 build/dsi_xlcdc_rgba8888_ws_9x75_curiosity_720x720_round/debug/_ext/1949213289/sys_input.o
                0x23f23204                SYS_INP_InjectTouchUp
 .text.SYS_INP_InjectTouchMove
                0x23f23254       0x50 build/dsi_xlcdc_rgba8888_ws_9x75_curiosity_720x720_round/debug/_ext/1949213289/sys_input.o
                0x23f23254                SYS_INP_InjectTouchMove
 .text.SYS_INT_Disable
                0x23f232a4        0x4 build/dsi_xlcdc_rgba8888_ws_9x75_curiosity_720x720_round/debug/_ext/586618287/sys_int.o
                0x23f232a4                SYS_INT_Disable
 .text.SYS_INT_Restore
                0x23f232a8        0x4 build/dsi_xlcdc_rgba8888_ws_9x75_curiosity_720x720_round/debug/_ext/586618287/sys_int.o
                0x23f232a8                SYS_INT_Restore
 .text.SYS_INT_SourceDisable
                0x23f232ac       0x40 build/dsi_xlcdc_rgba8888_ws_9x75_curiosity_720x720_round/debug/_ext/586618287/sys_int.o
                0x23f232ac                SYS_INT_SourceDisable
 .text.SYS_INT_SourceRestore
                0x23f232ec       0x30 build/dsi_xlcdc_rgba8888_ws_9x75_curiosity_720x720_round/debug/_ext/586618287/sys_int.o
                0x23f232ec                SYS_INT_SourceRestore
 .text.SYS_TIME_HwTimerCompareUpdate
                0x23f2331c       0xbc build/dsi_xlcdc_rgba8888_ws_9x75_curiosity_720x720_round/debug/_ext/690637493/sys_time.o
 .text.SYS_TIME_TimerAdd
                0x23f233d8      0x198 build/dsi_xlcdc_rgba8888_ws_9x75_curiosity_720x720_round/debug/_ext/690637493/sys_time.o
 .text.SYS_TIME_Initialize
                0x23f23570      0x128 build/dsi_xlcdc_rgba8888_ws_9x75_curiosity_720x720_round/debug/_ext/690637493/sys_time.o
                0x23f23570                SYS_TIME_Initialize
 .text.SYS_TIME_TimerDestroy
                0x23f23698      0x164 build/dsi_xlcdc_rgba8888_ws_9x75_curiosity_720x720_round/debug/_ext/690637493/sys_time.o
                0x23f23698                SYS_TIME_TimerDestroy
 .text.SYS_TIME_PLIBCallback
                0x23f237fc      0x31c build/dsi_xlcdc_rgba8888_ws_9x75_curiosity_720x720_round/debug/_ext/690637493/sys_time.o
 .text.SYS_TIME_TimerStart
                0x23f23b18      0x1d8 build/dsi_xlcdc_rgba8888_ws_9x75_curiosity_720x720_round/debug/_ext/690637493/sys_time.o
                0x23f23b18                SYS_TIME_TimerStart
 .text.SYS_TIME_TimerStop
                0x23f23cf0      0x15c build/dsi_xlcdc_rgba8888_ws_9x75_curiosity_720x720_round/debug/_ext/690637493/sys_time.o
                0x23f23cf0                SYS_TIME_TimerStop
 .text.SYS_TIME_DelayMS
                0x23f23e4c      0x1d0 build/dsi_xlcdc_rgba8888_ws_9x75_curiosity_720x720_round/debug/_ext/690637493/sys_time.o
                0x23f23e4c                SYS_TIME_DelayMS
 .text.SYS_TIME_DelayIsComplete
                0x23f2401c       0xf0 build/dsi_xlcdc_rgba8888_ws_9x75_curiosity_720x720_round/debug/_ext/690637493/sys_time.o
                0x23f2401c                SYS_TIME_DelayIsComplete
 .text.SYS_TIME_CallbackRegisterMS
                0x23f2410c      0x1d4 build/dsi_xlcdc_rgba8888_ws_9x75_curiosity_720x720_round/debug/_ext/690637493/sys_time.o
                0x23f2410c                SYS_TIME_CallbackRegisterMS
 .text          0x23f242e0       0xa0 build/dsi_xlcdc_rgba8888_ws_9x75_curiosity_720x720_round/debug/_ext/1295507646/cstartup.o
 .text.SYSC_SharedHandler
                0x23f24380        0x4 build/dsi_xlcdc_rgba8888_ws_9x75_curiosity_720x720_round/debug/_ext/1295507646/interrupts.o
                0x23f24380                SYSC_SharedHandler
 .text.SPURIOUS_INTERRUPT_Handler
                0x23f24384       0x18 build/dsi_xlcdc_rgba8888_ws_9x75_curiosity_720x720_round/debug/_ext/1295507646/interrupts.o
                0x23f24384                SPURIOUS_INTERRUPT_Handler
 .text.SYS_Initialize
                0x23f2439c      0x114 build/dsi_xlcdc_rgba8888_ws_9x75_curiosity_720x720_round/debug/_ext/1295507646/initialization.o
                0x23f2439c                SYS_Initialize
 .text.undefined_instruction_irq_handler
                0x23f244b0        0x4 build/dsi_xlcdc_rgba8888_ws_9x75_curiosity_720x720_round/debug/_ext/1295507646/fault_handlers.o
                0x23f244b0                undefined_instruction_irq_handler
 .text.software_interrupt_irq_handler
                0x23f244b4        0x4 build/dsi_xlcdc_rgba8888_ws_9x75_curiosity_720x720_round/debug/_ext/1295507646/fault_handlers.o
                0x23f244b4                software_interrupt_irq_handler
 .text.data_abort_irq_handler
                0x23f244b8        0x4 build/dsi_xlcdc_rgba8888_ws_9x75_curiosity_720x720_round/debug/_ext/1295507646/fault_handlers.o
                0x23f244b8                data_abort_irq_handler
 .text.prefetch_abort_irq_handler
                0x23f244bc        0x4 build/dsi_xlcdc_rgba8888_ws_9x75_curiosity_720x720_round/debug/_ext/1295507646/fault_handlers.o
                0x23f244bc                prefetch_abort_irq_handler
 .text.SYS_Tasks
                0x23f244c0       0x20 build/dsi_xlcdc_rgba8888_ws_9x75_curiosity_720x720_round/debug/_ext/1295507646/tasks.o
                0x23f244c0                SYS_Tasks
 .text.main     0x23f244e0       0x20 build/dsi_xlcdc_rgba8888_ws_9x75_curiosity_720x720_round/debug/_ext/1360937237/main.o
                0x23f244e0                main
 .text.TC1_CH1_TimerInterruptHandler
                0x23f24500       0x18 build/dsi_xlcdc_rgba8888_ws_9x75_curiosity_720x720_round/debug/_ext/1360937237/app.o
                0x23f24500                TC1_CH1_TimerInterruptHandler
 .text.TC1_CH0_TimerInterruptHandler
                0x23f24518       0x18 build/dsi_xlcdc_rgba8888_ws_9x75_curiosity_720x720_round/debug/_ext/1360937237/app.o
                0x23f24518                TC1_CH0_TimerInterruptHandler
 .text.Screen0_OnShow
                0x23f24530       0x60 build/dsi_xlcdc_rgba8888_ws_9x75_curiosity_720x720_round/debug/_ext/1360937237/app.o
                0x23f24530                Screen0_OnShow
 .text.Screen0_OnUpdate
                0x23f24590        0x4 build/dsi_xlcdc_rgba8888_ws_9x75_curiosity_720x720_round/debug/_ext/1360937237/app.o
                0x23f24590                Screen0_OnUpdate
 .text.appSetNeedleImageData
                0x23f24594       0x30 build/dsi_xlcdc_rgba8888_ws_9x75_curiosity_720x720_round/debug/_ext/1360937237/app.o
                0x23f24594                appSetNeedleImageData
 .text.updateNeedle
                0x23f245c4       0x5c build/dsi_xlcdc_rgba8888_ws_9x75_curiosity_720x720_round/debug/_ext/1360937237/app.o
                0x23f245c4                updateNeedle
 .text.updateSpeedLabel
                0x23f24620       0x80 build/dsi_xlcdc_rgba8888_ws_9x75_curiosity_720x720_round/debug/_ext/1360937237/app.o
                0x23f24620                updateSpeedLabel
 .text.APP_Initialize
                0x23f246a0      0x128 build/dsi_xlcdc_rgba8888_ws_9x75_curiosity_720x720_round/debug/_ext/1360937237/app.o
                0x23f246a0                APP_Initialize
 .text.APP_Tasks
                0x23f247c8      0x450 build/dsi_xlcdc_rgba8888_ws_9x75_curiosity_720x720_round/debug/_ext/1360937237/app.o
                0x23f247c8                APP_Tasks
 .text.app_touchDownHandler
                0x23f24c18       0x4c build/dsi_xlcdc_rgba8888_ws_9x75_curiosity_720x720_round/debug/_ext/1360937237/app_drive.o
 .text.app_touchMoveHandler
                0x23f24c64      0x128 build/dsi_xlcdc_rgba8888_ws_9x75_curiosity_720x720_round/debug/_ext/1360937237/app_drive.o
 .text.app_touchUpHandler
                0x23f24d8c       0x4c build/dsi_xlcdc_rgba8888_ws_9x75_curiosity_720x720_round/debug/_ext/1360937237/app_drive.o
 .text.APP_ProcessNeedle
                0x23f24dd8      0x2e0 build/dsi_xlcdc_rgba8888_ws_9x75_curiosity_720x720_round/debug/_ext/1360937237/app_drive.o
                0x23f24dd8                APP_ProcessNeedle
 .text.updateMapLocation
                0x23f250b8      0x1f8 build/dsi_xlcdc_rgba8888_ws_9x75_curiosity_720x720_round/debug/_ext/1360937237/app_drive.o
                0x23f250b8                updateMapLocation
 .text.APP_ProcessMap
                0x23f252b0      0x2e4 build/dsi_xlcdc_rgba8888_ws_9x75_curiosity_720x720_round/debug/_ext/1360937237/app_drive.o
                0x23f252b0                APP_ProcessMap
 .text.checkNeedleAnime
                0x23f25594       0x94 build/dsi_xlcdc_rgba8888_ws_9x75_curiosity_720x720_round/debug/_ext/1360937237/app_drive.o
                0x23f25594                checkNeedleAnime
 .text.APP_initialize_needle_lookup_table
                0x23f25628     0x1024 build/dsi_xlcdc_rgba8888_ws_9x75_curiosity_720x720_round/debug/_ext/1360937237/app_drive.o
                0x23f25628                APP_initialize_needle_lookup_table
 .text.APP_InitDrive
                0x23f2664c       0xa8 build/dsi_xlcdc_rgba8888_ws_9x75_curiosity_720x720_round/debug/_ext/1360937237/app_drive.o
                0x23f2664c                APP_InitDrive
 .text          0x23f266f4       0xc8 c:/program files/microchip/xc32/v4.35/bin/bin/../../lib/gcc/pic32c/8.3.1/arm/v5te/nofp\libgcc.a(_udivsi3.o)
                0x23f266f4                __aeabi_uidiv
                0x23f266f4                __udivsi3
                0x23f2679c                __aeabi_uidivmod
 .text          0x23f267bc       0xfc c:/program files/microchip/xc32/v4.35/bin/bin/../../lib/gcc/pic32c/8.3.1/arm/v5te/nofp\libgcc.a(_divsi3.o)
                0x23f267bc                __divsi3
                0x23f267bc                __aeabi_idiv
                0x23f26898                __aeabi_idivmod
 .text          0x23f268b8        0x4 c:/program files/microchip/xc32/v4.35/bin/bin/../../lib/gcc/pic32c/8.3.1/arm/v5te/nofp\libgcc.a(_dvmd_tls.o)
                0x23f268b8                __aeabi_idiv0
                0x23f268b8                __aeabi_ldiv0
 .text          0x23f268bc      0x250 c:/program files/microchip/xc32/v4.35/bin/bin/../../lib/gcc/pic32c/8.3.1/arm/v5te/nofp\libgcc.a(_arm_addsubsf3.o)
                0x23f268bc                __aeabi_frsub
                0x23f268c4                __subsf3
                0x23f268c4                __aeabi_fsub
                0x23f268c8                __aeabi_fadd
                0x23f268c8                __addsf3
                0x23f26a58                __aeabi_ui2f
                0x23f26a58                __floatunsisf
                0x23f26a60                __aeabi_i2f
                0x23f26a60                __floatsisf
                0x23f26a80                __aeabi_ul2f
                0x23f26a80                __floatundisf
                0x23f26a90                __aeabi_l2f
                0x23f26a90                __floatdisf
 .text          0x23f26b0c      0x2f8 c:/program files/microchip/xc32/v4.35/bin/bin/../../lib/gcc/pic32c/8.3.1/arm/v5te/nofp\libgcc.a(_arm_muldivsf3.o)
                0x23f26b0c                __mulsf3
                0x23f26b0c                __aeabi_fmul
                0x23f26ca4                __aeabi_fdiv
                0x23f26ca4                __divsf3
 .text          0x23f26e04       0xfc c:/program files/microchip/xc32/v4.35/bin/bin/../../lib/gcc/pic32c/8.3.1/arm/v5te/nofp\libgcc.a(_arm_cmpsf2.o)
                0x23f26e04                __gesf2
                0x23f26e04                __gtsf2
                0x23f26e0c                __lesf2
                0x23f26e0c                __ltsf2
                0x23f26e14                __nesf2
                0x23f26e14                __eqsf2
                0x23f26e14                __cmpsf2
                0x23f26e78                __aeabi_cfrcmple
                0x23f26e88                __aeabi_cfcmpeq
                0x23f26e88                __aeabi_cfcmple
                0x23f26e9c                __aeabi_fcmpeq
                0x23f26eb0                __aeabi_fcmplt
                0x23f26ec4                __aeabi_fcmple
                0x23f26ed8                __aeabi_fcmpge
                0x23f26eec                __aeabi_fcmpgt
 .text          0x23f26f00       0x5c c:/program files/microchip/xc32/v4.35/bin/bin/../../lib/gcc/pic32c/8.3.1/arm/v5te/nofp\libgcc.a(_arm_fixsfsi.o)
                0x23f26f00                __aeabi_f2iz
                0x23f26f00                __fixsfsi
 .text          0x23f26f5c       0x54 c:/program files/microchip/xc32/v4.35/bin/bin/../../lib/gcc/pic32c/8.3.1/arm/v5te/nofp\libgcc.a(_arm_fixunssfsi.o)
                0x23f26f5c                __fixunssfsi
                0x23f26f5c                __aeabi_f2uiz
 .text          0x23f26fb0       0x3c c:/program files/microchip/xc32/v4.35/bin/bin/../../lib/gcc/pic32c/8.3.1/arm/v5te/nofp\libgcc.a(_aeabi_uldivmod.o)
                0x23f26fb0                __aeabi_uldivmod
 .text          0x23f26fec      0x12c c:/program files/microchip/xc32/v4.35/bin/bin/../../lib/gcc/pic32c/8.3.1/arm/v5te/nofp\libgcc.a(_udivmoddi4.o)
                0x23f26fec                __udivmoddi4
 .text.__dummy  0x23f27118        0x4 c:/program files/microchip/xc32/v4.35/bin/bin/../../lib/gcc/pic32c/8.3.1/../../../../pic32c/lib/arm/v5te/nofp\libg-musl.a(__libc_start_main.o)
                0x23f27118                __init_host
 .text.__libc_start_init
                0x23f2711c       0x88 c:/program files/microchip/xc32/v4.35/bin/bin/../../lib/gcc/pic32c/8.3.1/../../../../pic32c/lib/arm/v5te/nofp\libg-musl.a(__libc_start_main.o)
                0x23f2711c                __libc_init_array
 .text.__wrap_sprintf
                0x23f271a4       0x28 c:/program files/microchip/xc32/v4.35/bin/bin/../../lib/gcc/pic32c/8.3.1/../../../../pic32c/lib/arm/v5te/nofp\libg-musl.a(__sio_sprintf_dnpuxX.o)
                0x23f271a4                _dsprintf_dnpuxX
                0x23f271a4                _sprintf_dnpuxX
 .text.__fmt_d  0x23f271cc      0x118 c:/program files/microchip/xc32/v4.35/bin/bin/../../lib/gcc/pic32c/8.3.1/../../../../pic32c/lib/arm/v5te/nofp\libg-musl.a(__fmt_d.o)
                0x23f271cc                __fmt_d
                0x23f271cc                __fmt_d_needed
 .text.__fmt_u  0x23f272e4       0x94 c:/program files/microchip/xc32/v4.35/bin/bin/../../lib/gcc/pic32c/8.3.1/../../../../pic32c/lib/arm/v5te/nofp\libg-musl.a(__fmt_u.o)
                0x23f272e4                __fmt_u_needed
                0x23f272e4                __fmt_u
 .text.__fmt_x  0x23f27378      0x19c c:/program files/microchip/xc32/v4.35/bin/bin/../../lib/gcc/pic32c/8.3.1/../../../../pic32c/lib/arm/v5te/nofp\libg-musl.a(__fmt_x.o)
                0x23f27378                __fmt_x_needed
                0x23f27378                __fmt_x
 .text.__pop_int
                0x23f27514      0x164 c:/program files/microchip/xc32/v4.35/bin/bin/../../lib/gcc/pic32c/8.3.1/../../../../pic32c/lib/arm/v5te/nofp\libg-musl.a(__pop_int.o)
                0x23f27514                __pop_int_needed
                0x23f27514                __pop_int
 .text.__pop_ptr
                0x23f27678       0xec c:/program files/microchip/xc32/v4.35/bin/bin/../../lib/gcc/pic32c/8.3.1/../../../../pic32c/lib/arm/v5te/nofp\libg-musl.a(__pop_ptr.o)
                0x23f27678                __pop_ptr
                0x23f27678                __pop_ptr_needed
 .text.__pad    0x23f27764       0xc0 c:/program files/microchip/xc32/v4.35/bin/bin/../../lib/gcc/pic32c/8.3.1/../../../../pic32c/lib/arm/v5te/nofp\libg-musl.a(__printf_core.o)
                0x23f27764                __pad
 .text.__dummy_fmt3
                0x23f27824        0x8 c:/program files/microchip/xc32/v4.35/bin/bin/../../lib/gcc/pic32c/8.3.1/../../../../pic32c/lib/arm/v5te/nofp\libg-musl.a(__printf_core.o)
                0x23f27824                __fmt_o
 .text.__dummy_fmt4
                0x23f2782c        0x8 c:/program files/microchip/xc32/v4.35/bin/bin/../../lib/gcc/pic32c/8.3.1/../../../../pic32c/lib/arm/v5te/nofp\libg-musl.a(__printf_core.o)
                0x23f2782c                __fmt_fp
                0x23f2782c                __fmt_a
 .text.__dummy_fmts
                0x23f27834        0x8 c:/program files/microchip/xc32/v4.35/bin/bin/../../lib/gcc/pic32c/8.3.1/../../../../pic32c/lib/arm/v5te/nofp\libg-musl.a(__printf_core.o)
                0x23f27834                __fmt_s
 .text.__fmt_state
                0x23f2783c       0x74 c:/program files/microchip/xc32/v4.35/bin/bin/../../lib/gcc/pic32c/8.3.1/../../../../pic32c/lib/arm/v5te/nofp\libg-musl.a(__printf_core.o)
                0x23f2783c                __fmt_state
 .text.__printf_core
                0x23f278b0      0x554 c:/program files/microchip/xc32/v4.35/bin/bin/../../lib/gcc/pic32c/8.3.1/../../../../pic32c/lib/arm/v5te/nofp\libg-musl.a(__printf_core.o)
                0x23f278b0                __printf_core
 .text.__dummy  0x23f27e04        0x8 c:/program files/microchip/xc32/v4.35/bin/bin/../../lib/gcc/pic32c/8.3.1/../../../../pic32c/lib/arm/v5te/nofp\libg-musl.a(stdin.o)
                0x23f27e04                __stdio_seek_rw
 .text.__init_stdout
                0x23f27e0c       0x1c c:/program files/microchip/xc32/v4.35/bin/bin/../../lib/gcc/pic32c/8.3.1/../../../../pic32c/lib/arm/v5te/nofp\libg-musl.a(stdout.o)
                0x23f27e0c                __init_stdout
 .text.puts     0x23f27e28       0x40 c:/program files/microchip/xc32/v4.35/bin/bin/../../lib/gcc/pic32c/8.3.1/../../../../pic32c/lib/arm/v5te/nofp\libg-musl.a(puts.o)
                0x23f27e28                puts
 .text.setbuf   0x23f27e68       0x14 c:/program files/microchip/xc32/v4.35/bin/bin/../../lib/gcc/pic32c/8.3.1/../../../../pic32c/lib/arm/v5te/nofp\libg-musl.a(setbuf.o)
                0x23f27e68                setbuf
 .text.atoi     0x23f27e7c       0x7c c:/program files/microchip/xc32/v4.35/bin/bin/../../lib/gcc/pic32c/8.3.1/../../../../pic32c/lib/arm/v5te/nofp\libg-musl.a(atoi.o)
                0x23f27e7c                atoi
 .text.memcpy   0x23f27ef8       0x24 c:/program files/microchip/xc32/v4.35/bin/bin/../../lib/gcc/pic32c/8.3.1/../../../../pic32c/lib/arm/v5te/nofp\libg-musl.a(memcpy.o)
                0x23f27ef8                memcpy
 .text.memmove  0x23f27f1c       0x58 c:/program files/microchip/xc32/v4.35/bin/bin/../../lib/gcc/pic32c/8.3.1/../../../../pic32c/lib/arm/v5te/nofp\libg-musl.a(memmove.o)
                0x23f27f1c                memmove
 .text.memset   0x23f27f74       0x24 c:/program files/microchip/xc32/v4.35/bin/bin/../../lib/gcc/pic32c/8.3.1/../../../../pic32c/lib/arm/v5te/nofp\libg-musl.a(memset.o)
                0x23f27f74                memset
 .text.strlen   0x23f27f98       0x2c c:/program files/microchip/xc32/v4.35/bin/bin/../../lib/gcc/pic32c/8.3.1/../../../../pic32c/lib/arm/v5te/nofp\libg-musl.a(strlen.o)
                0x23f27f98                strlen
 .text.tolower  0x23f27fc4       0x10 c:/program files/microchip/xc32/v4.35/bin/bin/../../lib/gcc/pic32c/8.3.1/../../../../pic32c/lib/arm/v5te/nofp\libg-musl.a(tolower.o)
                0x23f27fc4                tolower
 .text.toupper  0x23f27fd4       0x10 c:/program files/microchip/xc32/v4.35/bin/bin/../../lib/gcc/pic32c/8.3.1/../../../../pic32c/lib/arm/v5te/nofp\libg-musl.a(toupper.o)
                0x23f27fd4                toupper
 .text.__vfprintf
                0x23f27fe4       0x28 c:/program files/microchip/xc32/v4.35/bin/bin/../../lib/gcc/pic32c/8.3.1/../../../../pic32c/lib/arm/v5te/nofp\libg-musl.a(__int_vfprintf.o)
                0x23f27fe4                __vfprintf
 .text.__vsprintf
                0x23f2800c       0x10 c:/program files/microchip/xc32/v4.35/bin/bin/../../lib/gcc/pic32c/8.3.1/../../../../pic32c/lib/arm/v5te/nofp\libg-musl.a(__int_vsprintf.o)
                0x23f2800c                __vsprintf
 .text.fputs    0x23f2801c       0x34 c:/program files/microchip/xc32/v4.35/bin/bin/../../lib/gcc/pic32c/8.3.1/../../../../pic32c/lib/arm/v5te/nofp\libg-musl.a(fputs.o)
                0x23f2801c                fputs
                0x23f2801c                fputs_unlocked
 .text.__cvt_u  0x23f28050       0xb8 c:/program files/microchip/xc32/v4.35/bin/bin/../../lib/gcc/pic32c/8.3.1/../../../../pic32c/lib/arm/v5te/nofp\libg-musl.a(__cvt_u.o)
                0x23f28050                __cvt_u
 .text.__pop_float
                0x23f28108       0x44 c:/program files/microchip/xc32/v4.35/bin/bin/../../lib/gcc/pic32c/8.3.1/../../../../pic32c/lib/arm/v5te/nofp\libg-musl.a(__pop_float.o)
                0x23f28108                __pop_float_needed
                0x23f28108                __pop_float
 .text.__stdio_read
                0x23f2814c       0xac c:/program files/microchip/xc32/v4.35/bin/bin/../../lib/gcc/pic32c/8.3.1/../../../../pic32c/lib/arm/v5te/nofp\libg-musl.a(__stdio_read.o)
                0x23f2814c                __stdio_read
 .text.__towrite_rw
                0x23f281f8       0x34 c:/program files/microchip/xc32/v4.35/bin/bin/../../lib/gcc/pic32c/8.3.1/../../../../pic32c/lib/arm/v5te/nofp\libg-musl.a(__towrite_rw.o)
                0x23f281f8                __towrite_rw
                0x23f281f8                __towrite_rw_needed
 .text.fwrite   0x23f2822c       0x48 c:/program files/microchip/xc32/v4.35/bin/bin/../../lib/gcc/pic32c/8.3.1/../../../../pic32c/lib/arm/v5te/nofp\libg-musl.a(fwrite.o)
                0x23f2822c                fwrite
                0x23f2822c                fwrite_unlocked
 .text.__putc_unbuffered
                0x23f28274       0x50 c:/program files/microchip/xc32/v4.35/bin/bin/../../lib/gcc/pic32c/8.3.1/../../../../pic32c/lib/arm/v5te/nofp\libg-musl.a(putc.o)
                0x23f28274                __putc_unbuffered
 .text.putc     0x23f282c4        0xc c:/program files/microchip/xc32/v4.35/bin/bin/../../lib/gcc/pic32c/8.3.1/../../../../pic32c/lib/arm/v5te/nofp\libg-musl.a(putc.o)
                0x23f282c4                putc
                0x23f282c4                fputc
                0x23f282c4                _IO_putc
                0x23f282c4                putc_unlocked
 .text.setvbuf  0x23f282d0       0x80 c:/program files/microchip/xc32/v4.35/bin/bin/../../lib/gcc/pic32c/8.3.1/../../../../pic32c/lib/arm/v5te/nofp\libg-musl.a(setvbuf.o)
                0x23f282d0                setvbuf
 .text.__readv  0x23f28350       0x48 c:/program files/microchip/xc32/v4.35/bin/bin/../../lib/gcc/pic32c/8.3.1/../../../../pic32c/lib/arm/v5te/nofp\libg-musl.a(readv.o)
                0x23f28350                readv
 .text.bin_index
                0x23f28398       0x48 c:/program files/microchip/xc32/v4.35/bin/bin/../../lib/gcc/pic32c/8.3.1/../../../../pic32c/lib/arm/v5te/nofp\libg-musl.a(malloc.o)
 .text.adjust_size
                0x23f283e0       0x60 c:/program files/microchip/xc32/v4.35/bin/bin/../../lib/gcc/pic32c/8.3.1/../../../../pic32c/lib/arm/v5te/nofp\libg-musl.a(malloc.o)
 .text.lock_bin
                0x23f28440       0x34 c:/program files/microchip/xc32/v4.35/bin/bin/../../lib/gcc/pic32c/8.3.1/../../../../pic32c/lib/arm/v5te/nofp\libg-musl.a(malloc.o)
 .text.unbin    0x23f28474       0x84 c:/program files/microchip/xc32/v4.35/bin/bin/../../lib/gcc/pic32c/8.3.1/../../../../pic32c/lib/arm/v5te/nofp\libg-musl.a(malloc.o)
 .text.alloc_fwd
                0x23f284f8       0x4c c:/program files/microchip/xc32/v4.35/bin/bin/../../lib/gcc/pic32c/8.3.1/../../../../pic32c/lib/arm/v5te/nofp\libg-musl.a(malloc.o)
 .text.alloc_rev
                0x23f28544       0x50 c:/program files/microchip/xc32/v4.35/bin/bin/../../lib/gcc/pic32c/8.3.1/../../../../pic32c/lib/arm/v5te/nofp\libg-musl.a(malloc.o)
 .text.free     0x23f28594      0x150 c:/program files/microchip/xc32/v4.35/bin/bin/../../lib/gcc/pic32c/8.3.1/../../../../pic32c/lib/arm/v5te/nofp\libg-musl.a(malloc.o)
                0x23f28594                free
 .text.trim     0x23f286e4       0x40 c:/program files/microchip/xc32/v4.35/bin/bin/../../lib/gcc/pic32c/8.3.1/../../../../pic32c/lib/arm/v5te/nofp\libg-musl.a(malloc.o)
 .text.malloc   0x23f28724      0x26c c:/program files/microchip/xc32/v4.35/bin/bin/../../lib/gcc/pic32c/8.3.1/../../../../pic32c/lib/arm/v5te/nofp\libg-musl.a(malloc.o)
                0x23f28724                malloc
 .text.__expand_heap
                0x23f28990       0x2c c:/program files/microchip/xc32/v4.35/bin/bin/../../lib/gcc/pic32c/8.3.1/../../../../pic32c/lib/arm/v5te/nofp\libg-musl.a(expand_heap.o)
                0x23f28990                __expand_heap
 .text.__vsnprintf
                0x23f289bc       0x84 c:/program files/microchip/xc32/v4.35/bin/bin/../../lib/gcc/pic32c/8.3.1/../../../../pic32c/lib/arm/v5te/nofp\libg-musl.a(__int_vsnprintf.o)
                0x23f289bc                __vsnprintf
 .text.__dummy  0x23f28a40        0x4 c:/program files/microchip/xc32/v4.35/bin/bin/../../lib/gcc/pic32c/8.3.1/../../../../pic32c/lib/arm/v5te/nofp\libg-musl.a(__init_stdio.o)
                0x23f28a40                __init_stdin
                0x23f28a40                __init_stderr
 .text.__init_stdio
                0x23f28a44       0x14 c:/program files/microchip/xc32/v4.35/bin/bin/../../lib/gcc/pic32c/8.3.1/../../../../pic32c/lib/arm/v5te/nofp\libg-musl.a(__init_stdio.o)
                0x23f28a44                __init_stdio_needed
                0x23f28a44                __init_stdio
 .text.__fwrite_min
                0x23f28a58        0x8 c:/program files/microchip/xc32/v4.35/bin/bin/../../lib/gcc/pic32c/8.3.1/../../../../pic32c/lib/arm/v5te/nofp\libg-musl.a(__out.o)
                0x23f28a58                __stdio_write_unbuffered
                0x23f28a58                __stdio_write
 .text.__out    0x23f28a60       0x68 c:/program files/microchip/xc32/v4.35/bin/bin/../../lib/gcc/pic32c/8.3.1/../../../../pic32c/lib/arm/v5te/nofp\libg-musl.a(__out.o)
                0x23f28a60                __out
                0x23f28a60                __out_needed
 .text.__putc   0x23f28ac8       0x54 c:/program files/microchip/xc32/v4.35/bin/bin/../../lib/gcc/pic32c/8.3.1/../../../../pic32c/lib/arm/v5te/nofp\libg-musl.a(__putc.o)
                0x23f28ac8                __putc_needed
                0x23f28ac8                __putc
 .text.__dummy  0x23f28b1c        0x4 c:/program files/microchip/xc32/v4.35/bin/bin/../../lib/gcc/pic32c/8.3.1/../../../../pic32c/lib/arm/v5te/nofp\libg-musl.a(__stderr.o)
                0x23f28b1c                __stdio_seek
 .text.__stdio_close_rw
                0x23f28b20       0xa8 c:/program files/microchip/xc32/v4.35/bin/bin/../../lib/gcc/pic32c/8.3.1/../../../../pic32c/lib/arm/v5te/nofp\libg-musl.a(__stdio_close.o)
                0x23f28b20                __stdio_close_rw
 .text.__write_buffered
                0x23f28bc8       0xdc c:/program files/microchip/xc32/v4.35/bin/bin/../../lib/gcc/pic32c/8.3.1/../../../../pic32c/lib/arm/v5te/nofp\libg-musl.a(__stdio_write.o)
                0x23f28bc8                __do_write
 .text.__stdio_write_buffered
                0x23f28ca4       0xe0 c:/program files/microchip/xc32/v4.35/bin/bin/../../lib/gcc/pic32c/8.3.1/../../../../pic32c/lib/arm/v5te/nofp\libg-musl.a(__stdio_write.o)
                0x23f28ca4                __stdio_write_buffered
 .text.__get_stdout
                0x23f28d84        0xc c:/program files/microchip/xc32/v4.35/bin/bin/../../lib/gcc/pic32c/8.3.1/../../../../pic32c/lib/arm/v5te/nofp\libg-musl.a(__stdout.o)
                0x23f28d84                __get_stdout
                0x23f28d84                __init_stdout_needed
 .text.__towrite
                0x23f28d90       0x30 c:/program files/microchip/xc32/v4.35/bin/bin/../../lib/gcc/pic32c/8.3.1/../../../../pic32c/lib/arm/v5te/nofp\libg-musl.a(__towrite.o)
                0x23f28d90                __towrite
 .text.__writev
                0x23f28dc0       0x48 c:/program files/microchip/xc32/v4.35/bin/bin/../../lib/gcc/pic32c/8.3.1/../../../../pic32c/lib/arm/v5te/nofp\libg-musl.a(writev.o)
                0x23f28dc0                writev
 .text.__overflow
                0x23f28e08       0x84 c:/program files/microchip/xc32/v4.35/bin/bin/../../lib/gcc/pic32c/8.3.1/../../../../pic32c/lib/arm/v5te/nofp\libg-musl.a(__overflow.o)
                0x23f28e08                __overflow
 .text.__fwrite
                0x23f28e8c       0x28 c:/program files/microchip/xc32/v4.35/bin/bin/../../lib/gcc/pic32c/8.3.1/../../../../pic32c/lib/arm/v5te/nofp\libg-musl.a(__fwrite.o)
                0x23f28e8c                __fwrite
                0x23f28e8c                __fwrite_needed
 .text.close    0x23f28eb4        0x8 c:/program files/microchip/xc32/v4.35/bin/bin/../../lib/gcc/pic32c/8.3.1/../../../../pic32c/lib/arm/v5te/nofp\libpic32c.a(close.o)
                0x23f28eb4                close
 .text.lseek    0x23f28ebc        0x8 c:/program files/microchip/xc32/v4.35/bin/bin/../../lib/gcc/pic32c/8.3.1/../../../../pic32c/lib/arm/v5te/nofp\libpic32c.a(lseek.o)
                0x23f28ebc                lseek
 .text._sbrk    0x23f28ec4       0x40 c:/program files/microchip/xc32/v4.35/bin/bin/../../lib/gcc/pic32c/8.3.1/../../../../pic32c/lib/arm/v5te/nofp\libpic32c.a(sbrk.o)
                0x23f28ec4                _sbrk
 *(.rodata .rodata* .gnu.linkonce.r.*)
 .rodata.gfxDriverInterface
                0x23f28f04        0xc build/dsi_xlcdc_rgba8888_ws_9x75_curiosity_720x720_round/debug/_ext/2010836581/gfx_canvas.o
                0x23f28f04                gfxDriverInterface
 .rodata.xlcdcDisplayDriver
                0x23f28f10        0xc build/dsi_xlcdc_rgba8888_ws_9x75_curiosity_720x720_round/debug/_ext/2010836581/gfx_canvas.o
 .rodata.initSeq
                0x23f28f1c        0x8 build/dsi_xlcdc_rgba8888_ws_9x75_curiosity_720x720_round/debug/_ext/1085405985/ws_touch_display.o
 .rodata.CSWTCH.8
                0x23f28f24        0x8 build/dsi_xlcdc_rgba8888_ws_9x75_curiosity_720x720_round/debug/_ext/505007713/drv_gfx_xlcdc.o
 .rodata.layerOrder
                0x23f28f2c        0x4 build/dsi_xlcdc_rgba8888_ws_9x75_curiosity_720x720_round/debug/_ext/505007713/drv_gfx_xlcdc.o
 .rodata.gfxColorInfoTable
                0x23f28f30      0x160 build/dsi_xlcdc_rgba8888_ws_9x75_curiosity_720x720_round/debug/_ext/1966656405/gfx_driver.o
                0x23f28f30                gfxColorInfoTable
 .rodata._cosTable
                0x23f29090       0xb8 build/dsi_xlcdc_rgba8888_ws_9x75_curiosity_720x720_round/debug/_ext/105237591/legato_math.o
                0x23f29090                _cosTable
 .rodata.leColorInfoTable
                0x23f29148      0x160 build/dsi_xlcdc_rgba8888_ws_9x75_curiosity_720x720_round/debug/_ext/105237591/legato_color.o
                0x23f29148                leColorInfoTable
 .rodata.leDefaultScheme
                0x23f292a8      0x2c8 build/dsi_xlcdc_rgba8888_ws_9x75_curiosity_720x720_round/debug/_ext/884805853/legato_scheme.o
                0x23f292a8                leDefaultScheme
 .rodata.NotoSansB_18_data
                0x23f29570      0x770 build/dsi_xlcdc_rgba8888_ws_9x75_curiosity_720x720_round/debug/_ext/1382756211/le_gen_fonts.o
                0x23f29570                NotoSansB_18_data
 .rodata.NotoSansB_18_glyphs
                0x23f29ce0     0x2ae8 build/dsi_xlcdc_rgba8888_ws_9x75_curiosity_720x720_round/debug/_ext/1382756211/le_gen_fonts.o
                0x23f29ce0                NotoSansB_18_glyphs
 .rodata.NotoSansBoldI_25_data
                0x23f2c7c8      0x770 build/dsi_xlcdc_rgba8888_ws_9x75_curiosity_720x720_round/debug/_ext/1382756211/le_gen_fonts.o
                0x23f2c7c8                NotoSansBoldI_25_data
 .rodata.NotoSansBoldI_25_glyphs
                0x23f2cf38     0x56c4 build/dsi_xlcdc_rgba8888_ws_9x75_curiosity_720x720_round/debug/_ext/1382756211/le_gen_fonts.o
                0x23f2cf38                NotoSansBoldI_25_glyphs
 .rodata.NotoSansBoldI_48_data
                0x23f325fc      0x770 build/dsi_xlcdc_rgba8888_ws_9x75_curiosity_720x720_round/debug/_ext/1382756211/le_gen_fonts.o
                0x23f325fc                NotoSansBoldI_48_data
 .rodata.NotoSansBoldI_48_glyphs
                0x23f32d6c    0x13918 build/dsi_xlcdc_rgba8888_ws_9x75_curiosity_720x720_round/debug/_ext/1382756211/le_gen_fonts.o
                0x23f32d6c                NotoSansBoldI_48_glyphs
 .rodata.LtA_data
                0x23f46684     0x1770 build/dsi_xlcdc_rgba8888_ws_9x75_curiosity_720x720_round/debug/_ext/86928605/le_gen_images.o
                0x23f46684                LtA_data
 .rodata.MicrochipLogo_data
                0x23f47df4     0xfb90 build/dsi_xlcdc_rgba8888_ws_9x75_curiosity_720x720_round/debug/_ext/86928605/le_gen_images.o
                0x23f47df4                MicrochipLogo_data
 .rodata.N0_157_422_data
                0x23f57984    0x12750 build/dsi_xlcdc_rgba8888_ws_9x75_curiosity_720x720_round/debug/_ext/86928605/le_gen_images.o
                0x23f57984                N0_157_422_data
 .rodata.N100_247_95_data
                0x23f6a0d4     0xf618 build/dsi_xlcdc_rgba8888_ws_9x75_curiosity_720x720_round/debug/_ext/86928605/le_gen_images.o
                0x23f6a0d4                N100_247_95_data
 .rodata.N102_256_95_data
                0x23f796ec     0xe5a0 build/dsi_xlcdc_rgba8888_ws_9x75_curiosity_720x720_round/debug/_ext/86928605/le_gen_images.o
                0x23f796ec                N102_256_95_data
 .rodata.N104_266_92_data
                0x23f87c8c     0xc490 build/dsi_xlcdc_rgba8888_ws_9x75_curiosity_720x720_round/debug/_ext/86928605/le_gen_images.o
                0x23f87c8c                N104_266_92_data
 .rodata.N106_275_89_data
                0x23f9411c     0xcea0 build/dsi_xlcdc_rgba8888_ws_9x75_curiosity_720x720_round/debug/_ext/86928605/le_gen_images.o
                0x23f9411c                N106_275_89_data
 .rodata.N108_276_79_data
                0x23fa0fbc    0x1129c build/dsi_xlcdc_rgba8888_ws_9x75_curiosity_720x720_round/debug/_ext/86928605/le_gen_images.o
                0x23fa0fbc                N108_276_79_data
 .rodata.N10_126_406_data
                0x23fb2258    0x11aa0 build/dsi_xlcdc_rgba8888_ws_9x75_curiosity_720x720_round/debug/_ext/86928605/le_gen_images.o
                0x23fb2258                N10_126_406_data
 .rodata.N110_298_79_data
                0x23fc3cf8     0xa7d0 build/dsi_xlcdc_rgba8888_ws_9x75_curiosity_720x720_round/debug/_ext/86928605/le_gen_images.o
                0x23fc3cf8                N110_298_79_data
 .rodata.N112_312_75_data
                0x23fce4c8     0x91d4 build/dsi_xlcdc_rgba8888_ws_9x75_curiosity_720x720_round/debug/_ext/86928605/le_gen_images.o
                0x23fce4c8                N112_312_75_data
 .rodata.N114_321_74_data
                0x23fd769c     0x73f4 build/dsi_xlcdc_rgba8888_ws_9x75_curiosity_720x720_round/debug/_ext/86928605/le_gen_images.o
                0x23fd769c                N114_321_74_data
 .rodata.N116_329_76_data
                0x23fdea90     0x6fe0 build/dsi_xlcdc_rgba8888_ws_9x75_curiosity_720x720_round/debug/_ext/86928605/le_gen_images.o
                0x23fdea90                N116_329_76_data
 .rodata.N118_338_74_data
                0x23fe5a70     0x5c4c build/dsi_xlcdc_rgba8888_ws_9x75_curiosity_720x720_round/debug/_ext/86928605/le_gen_images.o
                0x23fe5a70                N118_338_74_data
 .rodata.N120_346_71_data
                0x23feb6bc     0x4bf0 build/dsi_xlcdc_rgba8888_ws_9x75_curiosity_720x720_round/debug/_ext/86928605/le_gen_images.o
                0x23feb6bc                N120_346_71_data
 .rodata.N122_351_73_data
                0x23ff02ac     0x5730 build/dsi_xlcdc_rgba8888_ws_9x75_curiosity_720x720_round/debug/_ext/86928605/le_gen_images.o
                0x23ff02ac                N122_351_73_data
 .rodata.N124_356_72_data
                0x23ff59dc     0x73a0 build/dsi_xlcdc_rgba8888_ws_9x75_curiosity_720x720_round/debug/_ext/86928605/le_gen_images.o
                0x23ff59dc                N124_356_72_data
 .rodata.N126_359_74_data
                0x23ffcd7c     0x7260 build/dsi_xlcdc_rgba8888_ws_9x75_curiosity_720x720_round/debug/_ext/86928605/le_gen_images.o
                0x23ffcd7c                N126_359_74_data
 .rodata.N128_354_73_data
                0x24003fdc     0x9088 build/dsi_xlcdc_rgba8888_ws_9x75_curiosity_720x720_round/debug/_ext/86928605/le_gen_images.o
                0x24003fdc                N128_354_73_data
 .rodata.N12_111_407_data
                0x2400d064    0x12430 build/dsi_xlcdc_rgba8888_ws_9x75_curiosity_720x720_round/debug/_ext/86928605/le_gen_images.o
                0x2400d064                N12_111_407_data
 .rodata.N130_369_76_data
                0x2401f494     0x91d4 build/dsi_xlcdc_rgba8888_ws_9x75_curiosity_720x720_round/debug/_ext/86928605/le_gen_images.o
                0x2401f494                N130_369_76_data
 .rodata.N132_369_76_data
                0x24028668     0xbbe4 build/dsi_xlcdc_rgba8888_ws_9x75_curiosity_720x720_round/debug/_ext/86928605/le_gen_images.o
                0x24028668                N132_369_76_data
 .rodata.N134_371_76_data
                0x2403424c     0xca58 build/dsi_xlcdc_rgba8888_ws_9x75_curiosity_720x720_round/debug/_ext/86928605/le_gen_images.o
                0x2403424c                N134_371_76_data
 .rodata.N136_372_78_data
                0x24040ca4     0xd8cc build/dsi_xlcdc_rgba8888_ws_9x75_curiosity_720x720_round/debug/_ext/86928605/le_gen_images.o
                0x24040ca4                N136_372_78_data
 .rodata.N138_378_85_data
                0x2404e570     0xe514 build/dsi_xlcdc_rgba8888_ws_9x75_curiosity_720x720_round/debug/_ext/86928605/le_gen_images.o
                0x2404e570                N138_378_85_data
 .rodata.N140_388_89_data
                0x2405ca84     0xf064 build/dsi_xlcdc_rgba8888_ws_9x75_curiosity_720x720_round/debug/_ext/86928605/le_gen_images.o
                0x2405ca84                N140_388_89_data
 .rodata.N142_393_96_data
                0x2406bae8     0xf780 build/dsi_xlcdc_rgba8888_ws_9x75_curiosity_720x720_round/debug/_ext/86928605/le_gen_images.o
                0x2406bae8                N142_393_96_data
 .rodata.N144_392_96_data
                0x2407b268    0x13560 build/dsi_xlcdc_rgba8888_ws_9x75_curiosity_720x720_round/debug/_ext/86928605/le_gen_images.o
                0x2407b268                N144_392_96_data
 .rodata.N146_400_103_data
                0x2408e7c8    0x11490 build/dsi_xlcdc_rgba8888_ws_9x75_curiosity_720x720_round/debug/_ext/86928605/le_gen_images.o
                0x2408e7c8                N146_400_103_data
 .rodata.N148_404_110_data
                0x2409fc58    0x126d8 build/dsi_xlcdc_rgba8888_ws_9x75_curiosity_720x720_round/debug/_ext/86928605/le_gen_images.o
                0x2409fc58                N148_404_110_data
 .rodata.N14_110_394_data
                0x240b2330    0x13560 build/dsi_xlcdc_rgba8888_ws_9x75_curiosity_720x720_round/debug/_ext/86928605/le_gen_images.o
                0x240b2330                N14_110_394_data
 .rodata.N150_411_119_data
                0x240c5890    0x12354 build/dsi_xlcdc_rgba8888_ws_9x75_curiosity_720x720_round/debug/_ext/86928605/le_gen_images.o
                0x240c5890                N150_411_119_data
 .rodata.N152_412_121_data
                0x240d7be4    0x15950 build/dsi_xlcdc_rgba8888_ws_9x75_curiosity_720x720_round/debug/_ext/86928605/le_gen_images.o
                0x240d7be4                N152_412_121_data
 .rodata.N154_414_126_data
                0x240ed534    0x14b18 build/dsi_xlcdc_rgba8888_ws_9x75_curiosity_720x720_round/debug/_ext/86928605/le_gen_images.o
                0x240ed534                N154_414_126_data
 .rodata.N156_417_138_data
                0x2410204c    0x131dc build/dsi_xlcdc_rgba8888_ws_9x75_curiosity_720x720_round/debug/_ext/86928605/le_gen_images.o
                0x2410204c                N156_417_138_data
 .rodata.N158_423_146_data
                0x24115228    0x14a78 build/dsi_xlcdc_rgba8888_ws_9x75_curiosity_720x720_round/debug/_ext/86928605/le_gen_images.o
                0x24115228                N158_423_146_data
 .rodata.N160_425_154_data
                0x24129ca0    0x14640 build/dsi_xlcdc_rgba8888_ws_9x75_curiosity_720x720_round/debug/_ext/86928605/le_gen_images.o
                0x24129ca0                N160_425_154_data
 .rodata.N162_430_162_data
                0x2413e2e0    0x13b00 build/dsi_xlcdc_rgba8888_ws_9x75_curiosity_720x720_round/debug/_ext/86928605/le_gen_images.o
                0x2413e2e0                N162_430_162_data
 .rodata.N164_434_173_data
                0x24151de0    0x130b0 build/dsi_xlcdc_rgba8888_ws_9x75_curiosity_720x720_round/debug/_ext/86928605/le_gen_images.o
                0x24151de0                N164_434_173_data
 .rodata.N166_436_179_data
                0x24164e90    0x12cc8 build/dsi_xlcdc_rgba8888_ws_9x75_curiosity_720x720_round/debug/_ext/86928605/le_gen_images.o
                0x24164e90                N166_436_179_data
 .rodata.N168_439_188_data
                0x24177b58    0x12660 build/dsi_xlcdc_rgba8888_ws_9x75_curiosity_720x720_round/debug/_ext/86928605/le_gen_images.o
                0x24177b58                N168_439_188_data
 .rodata.N16_103_374_data
                0x2418a1b8    0x14c08 build/dsi_xlcdc_rgba8888_ws_9x75_curiosity_720x720_round/debug/_ext/86928605/le_gen_images.o
                0x2418a1b8                N16_103_374_data
 .rodata.N170_443_197_data
                0x2419edc0    0x11d00 build/dsi_xlcdc_rgba8888_ws_9x75_curiosity_720x720_round/debug/_ext/86928605/le_gen_images.o
                0x2419edc0                N170_443_197_data
 .rodata.N172_445_206_data
                0x241b0ac0    0x11828 build/dsi_xlcdc_rgba8888_ws_9x75_curiosity_720x720_round/debug/_ext/86928605/le_gen_images.o
                0x241b0ac0                N172_445_206_data
 .rodata.N174_449_215_data
                0x241c22e8    0x10fa0 build/dsi_xlcdc_rgba8888_ws_9x75_curiosity_720x720_round/debug/_ext/86928605/le_gen_images.o
                0x241c22e8                N174_449_215_data
 .rodata.N176_450_220_data
                0x241d3288    0x10040 build/dsi_xlcdc_rgba8888_ws_9x75_curiosity_720x720_round/debug/_ext/86928605/le_gen_images.o
                0x241d3288                N176_450_220_data
 .rodata.N178_455_235_data
                0x241e32c8     0xf7e4 build/dsi_xlcdc_rgba8888_ws_9x75_curiosity_720x720_round/debug/_ext/86928605/le_gen_images.o
                0x241e32c8                N178_455_235_data
 .rodata.N180_457_245_data
                0x241f2aac     0xe318 build/dsi_xlcdc_rgba8888_ws_9x75_curiosity_720x720_round/debug/_ext/86928605/le_gen_images.o
                0x241f2aac                N180_457_245_data
 .rodata.N182_457_254_data
                0x24200dc4     0xddc4 build/dsi_xlcdc_rgba8888_ws_9x75_curiosity_720x720_round/debug/_ext/86928605/le_gen_images.o
                0x24200dc4                N182_457_254_data
 .rodata.N184_460_265_data
                0x2420eb88     0xd158 build/dsi_xlcdc_rgba8888_ws_9x75_curiosity_720x720_round/debug/_ext/86928605/le_gen_images.o
                0x2420eb88                N184_460_265_data
 .rodata.N186_462_275_data
                0x2421bce0     0xc554 build/dsi_xlcdc_rgba8888_ws_9x75_curiosity_720x720_round/debug/_ext/86928605/le_gen_images.o
                0x2421bce0                N186_462_275_data
 .rodata.N188_464_284_data
                0x24228234     0xb840 build/dsi_xlcdc_rgba8888_ws_9x75_curiosity_720x720_round/debug/_ext/86928605/le_gen_images.o
                0x24228234                N188_464_284_data
 .rodata.N18_102_393_data
                0x24233a74     0xf2ac build/dsi_xlcdc_rgba8888_ws_9x75_curiosity_720x720_round/debug/_ext/86928605/le_gen_images.o
                0x24233a74                N18_102_393_data
 .rodata.N190_465_296_data
                0x24242d20     0xaa9c build/dsi_xlcdc_rgba8888_ws_9x75_curiosity_720x720_round/debug/_ext/86928605/le_gen_images.o
                0x24242d20                N190_465_296_data
 .rodata.N192_465_304_data
                0x2424d7bc     0x9630 build/dsi_xlcdc_rgba8888_ws_9x75_curiosity_720x720_round/debug/_ext/86928605/le_gen_images.o
                0x2424d7bc                N192_465_304_data
 .rodata.N194_468_318_data
                0x24256dec     0x8ca0 build/dsi_xlcdc_rgba8888_ws_9x75_curiosity_720x720_round/debug/_ext/86928605/le_gen_images.o
                0x24256dec                N194_468_318_data
 .rodata.N196_468_326_data
                0x2425fa8c     0x7e90 build/dsi_xlcdc_rgba8888_ws_9x75_curiosity_720x720_round/debug/_ext/86928605/le_gen_images.o
                0x2425fa8c                N196_468_326_data
 .rodata.N198_468_337_data
                0x2426791c     0x6c10 build/dsi_xlcdc_rgba8888_ws_9x75_curiosity_720x720_round/debug/_ext/86928605/le_gen_images.o
                0x2426791c                N198_468_337_data
 .rodata.N200_469_350_data
                0x2426e52c     0x5460 build/dsi_xlcdc_rgba8888_ws_9x75_curiosity_720x720_round/debug/_ext/86928605/le_gen_images.o
                0x2426e52c                N200_469_350_data
 .rodata.N202_469_352_data
                0x2427398c     0x5d54 build/dsi_xlcdc_rgba8888_ws_9x75_curiosity_720x720_round/debug/_ext/86928605/le_gen_images.o
                0x2427398c                N202_469_352_data
 .rodata.N204_468_358_data
                0x242796e0     0x6270 build/dsi_xlcdc_rgba8888_ws_9x75_curiosity_720x720_round/debug/_ext/86928605/le_gen_images.o
                0x242796e0                N204_468_358_data
 .rodata.N206_466_363_data
                0x2427f950     0x6ae0 build/dsi_xlcdc_rgba8888_ws_9x75_curiosity_720x720_round/debug/_ext/86928605/le_gen_images.o
                0x2427f950                N206_466_363_data
 .rodata.N208_465_367_data
                0x24286430     0x78f0 build/dsi_xlcdc_rgba8888_ws_9x75_curiosity_720x720_round/debug/_ext/86928605/le_gen_images.o
                0x24286430                N208_465_367_data
 .rodata.N20_92_382_data
                0x2428dd20     0xf618 build/dsi_xlcdc_rgba8888_ws_9x75_curiosity_720x720_round/debug/_ext/86928605/le_gen_images.o
                0x2428dd20                N20_92_382_data
 .rodata.N210_464_373_data
                0x2429d338     0x9108 build/dsi_xlcdc_rgba8888_ws_9x75_curiosity_720x720_round/debug/_ext/86928605/le_gen_images.o
                0x2429d338                N210_464_373_data
 .rodata.N212_463_377_data
                0x242a6440     0x9510 build/dsi_xlcdc_rgba8888_ws_9x75_curiosity_720x720_round/debug/_ext/86928605/le_gen_images.o
                0x242a6440                N212_463_377_data
 .rodata.N214_462_380_data
                0x242af950     0xa9b0 build/dsi_xlcdc_rgba8888_ws_9x75_curiosity_720x720_round/debug/_ext/86928605/le_gen_images.o
                0x242af950                N214_462_380_data
 .rodata.N216_457_386_data
                0x242ba300     0xbb64 build/dsi_xlcdc_rgba8888_ws_9x75_curiosity_720x720_round/debug/_ext/86928605/le_gen_images.o
                0x242ba300                N216_457_386_data
 .rodata.N218_457_388_data
                0x242c5e64     0xd41c build/dsi_xlcdc_rgba8888_ws_9x75_curiosity_720x720_round/debug/_ext/86928605/le_gen_images.o
                0x242c5e64                N218_457_388_data
 .rodata.N220_453_389_data
                0x242d3280     0xedd8 build/dsi_xlcdc_rgba8888_ws_9x75_curiosity_720x720_round/debug/_ext/86928605/le_gen_images.o
                0x242d3280                N220_453_389_data
 .rodata.N222_454_394_data
                0x242e2058     0xe878 build/dsi_xlcdc_rgba8888_ws_9x75_curiosity_720x720_round/debug/_ext/86928605/le_gen_images.o
                0x242e2058                N222_454_394_data
 .rodata.N224_449_401_data
                0x242f08d0    0x10634 build/dsi_xlcdc_rgba8888_ws_9x75_curiosity_720x720_round/debug/_ext/86928605/le_gen_images.o
                0x242f08d0                N224_449_401_data
 .rodata.N226_447_406_data
                0x24300f04     0xfc58 build/dsi_xlcdc_rgba8888_ws_9x75_curiosity_720x720_round/debug/_ext/86928605/le_gen_images.o
                0x24300f04                N226_447_406_data
 .rodata.N228_446_408_data
                0x24310b5c    0x105a0 build/dsi_xlcdc_rgba8888_ws_9x75_curiosity_720x720_round/debug/_ext/86928605/le_gen_images.o
                0x24310b5c                N228_446_408_data
 .rodata.N22_92_378_data
                0x243210fc     0xef10 build/dsi_xlcdc_rgba8888_ws_9x75_curiosity_720x720_round/debug/_ext/86928605/le_gen_images.o
                0x243210fc                N22_92_378_data
 .rodata.N230_443_411_data
                0x2433000c    0x11670 build/dsi_xlcdc_rgba8888_ws_9x75_curiosity_720x720_round/debug/_ext/86928605/le_gen_images.o
                0x2433000c                N230_443_411_data
 .rodata.N232_441_415_data
                0x2434167c    0x12328 build/dsi_xlcdc_rgba8888_ws_9x75_curiosity_720x720_round/debug/_ext/86928605/le_gen_images.o
                0x2434167c                N232_441_415_data
 .rodata.N234_438_417_data
                0x243539a4    0x12a00 build/dsi_xlcdc_rgba8888_ws_9x75_curiosity_720x720_round/debug/_ext/86928605/le_gen_images.o
                0x243539a4                N234_438_417_data
 .rodata.N236_438_417_data
                0x243663a4    0x12a98 build/dsi_xlcdc_rgba8888_ws_9x75_curiosity_720x720_round/debug/_ext/86928605/le_gen_images.o
                0x243663a4                N236_438_417_data
 .rodata.N238_432_424_data
                0x24378e3c    0x126f0 build/dsi_xlcdc_rgba8888_ws_9x75_curiosity_720x720_round/debug/_ext/86928605/le_gen_images.o
                0x24378e3c                N238_432_424_data
 .rodata.N240_428_428_data
                0x2438b52c    0x1298c build/dsi_xlcdc_rgba8888_ws_9x75_curiosity_720x720_round/debug/_ext/86928605/le_gen_images.o
                0x2438b52c                N240_428_428_data
 .rodata.N24_89_379_data
                0x2439deb8     0xdac0 build/dsi_xlcdc_rgba8888_ws_9x75_curiosity_720x720_round/debug/_ext/86928605/le_gen_images.o
                0x2439deb8                N24_89_379_data
 .rodata.N26_85_368_data
                0x243ab978     0xdac0 build/dsi_xlcdc_rgba8888_ws_9x75_curiosity_720x720_round/debug/_ext/86928605/le_gen_images.o
                0x243ab978                N26_85_368_data
 .rodata.N28_81_367_data
                0x243b9438     0xc198 build/dsi_xlcdc_rgba8888_ws_9x75_curiosity_720x720_round/debug/_ext/86928605/le_gen_images.o
                0x243b9438                N28_81_367_data
 .rodata.N2_151_420_data
                0x243c55d0    0x13f60 build/dsi_xlcdc_rgba8888_ws_9x75_curiosity_720x720_round/debug/_ext/86928605/le_gen_images.o
                0x243c55d0                N2_151_420_data
 .rodata.N30_80_362_data
                0x243d9530     0xc198 build/dsi_xlcdc_rgba8888_ws_9x75_curiosity_720x720_round/debug/_ext/86928605/le_gen_images.o
                0x243d9530                N30_80_362_data
 .rodata.N32_80_363_data
                0x243e56c8     0x981c build/dsi_xlcdc_rgba8888_ws_9x75_curiosity_720x720_round/debug/_ext/86928605/le_gen_images.o
                0x243e56c8                N32_80_363_data
 .rodata.N34_77_357_data
                0x243eeee4     0x8a48 build/dsi_xlcdc_rgba8888_ws_9x75_curiosity_720x720_round/debug/_ext/86928605/le_gen_images.o
                0x243eeee4                N34_77_357_data
 .rodata.N36_79_347_data
                0x243f792c     0x8a48 build/dsi_xlcdc_rgba8888_ws_9x75_curiosity_720x720_round/debug/_ext/86928605/le_gen_images.o
                0x243f792c                N36_79_347_data
 .rodata.N38_110_354_data
                0x24400374     0x5a00 build/dsi_xlcdc_rgba8888_ws_9x75_curiosity_720x720_round/debug/_ext/86928605/le_gen_images.o
                0x24400374                N38_110_354_data
 .rodata.N40_74_350_data
                0x24405d74     0x4bf0 build/dsi_xlcdc_rgba8888_ws_9x75_curiosity_720x720_round/debug/_ext/86928605/le_gen_images.o
                0x24405d74                N40_74_350_data
 .rodata.N42_74_341_data
                0x2440a964     0x5460 build/dsi_xlcdc_rgba8888_ws_9x75_curiosity_720x720_round/debug/_ext/86928605/le_gen_images.o
                0x2440a964                N42_74_341_data
 .rodata.N44_74_335_data
                0x2440fdc4     0x6248 build/dsi_xlcdc_rgba8888_ws_9x75_curiosity_720x720_round/debug/_ext/86928605/le_gen_images.o
                0x2440fdc4                N44_74_335_data
 .rodata.N46_76_323_data
                0x2441600c     0x8430 build/dsi_xlcdc_rgba8888_ws_9x75_curiosity_720x720_round/debug/_ext/86928605/le_gen_images.o
                0x2441600c                N46_76_323_data
 .rodata.N48_74_316_data
                0x2441e43c     0x8214 build/dsi_xlcdc_rgba8888_ws_9x75_curiosity_720x720_round/debug/_ext/86928605/le_gen_images.o
                0x2441e43c                N48_74_316_data
 .rodata.N4_145_419_data
                0x24426650    0x13c68 build/dsi_xlcdc_rgba8888_ws_9x75_curiosity_720x720_round/debug/_ext/86928605/le_gen_images.o
                0x24426650                N4_145_419_data
 .rodata.N50_75_296_data
                0x2443a2b8     0xa4f0 build/dsi_xlcdc_rgba8888_ws_9x75_curiosity_720x720_round/debug/_ext/86928605/le_gen_images.o
                0x2443a2b8                N50_75_296_data
 .rodata.N52_77_286_data
                0x244447a8     0xc0f8 build/dsi_xlcdc_rgba8888_ws_9x75_curiosity_720x720_round/debug/_ext/86928605/le_gen_images.o
                0x244447a8                N52_77_286_data
 .rodata.N54_83_281_data
                0x244508a0     0xb6d0 build/dsi_xlcdc_rgba8888_ws_9x75_curiosity_720x720_round/debug/_ext/86928605/le_gen_images.o
                0x244508a0                N54_83_281_data
 .rodata.N56_86_271_data
                0x2445bf70     0xca58 build/dsi_xlcdc_rgba8888_ws_9x75_curiosity_720x720_round/debug/_ext/86928605/le_gen_images.o
                0x2445bf70                N56_86_271_data
 .rodata.N58_87_258_data
                0x244689c8     0xe100 build/dsi_xlcdc_rgba8888_ws_9x75_curiosity_720x720_round/debug/_ext/86928605/le_gen_images.o
                0x244689c8                N58_87_258_data
 .rodata.N60_95_249_data
                0x24476ac8     0xe1c0 build/dsi_xlcdc_rgba8888_ws_9x75_curiosity_720x720_round/debug/_ext/86928605/le_gen_images.o
                0x24476ac8                N60_95_249_data
 .rodata.N62_102_238_data
                0x24484c88     0xef10 build/dsi_xlcdc_rgba8888_ws_9x75_curiosity_720x720_round/debug/_ext/86928605/le_gen_images.o
                0x24484c88                N62_102_238_data
 .rodata.N64_105_227_data
                0x24493b98    0x106f8 build/dsi_xlcdc_rgba8888_ws_9x75_curiosity_720x720_round/debug/_ext/86928605/le_gen_images.o
                0x24493b98                N64_105_227_data
 .rodata.N66_109_220_data
                0x244a4290    0x10ab4 build/dsi_xlcdc_rgba8888_ws_9x75_curiosity_720x720_round/debug/_ext/86928605/le_gen_images.o
                0x244a4290                N66_109_220_data
 .rodata.N68_114_211_data
                0x244b4d44    0x11b98 build/dsi_xlcdc_rgba8888_ws_9x75_curiosity_720x720_round/debug/_ext/86928605/le_gen_images.o
                0x244b4d44                N68_114_211_data
 .rodata.N6_133_412_data
                0x244c68dc    0x130b0 build/dsi_xlcdc_rgba8888_ws_9x75_curiosity_720x720_round/debug/_ext/86928605/le_gen_images.o
                0x244c68dc                N6_133_412_data
 .rodata.N70_120_201_data
                0x244d998c    0x11f00 build/dsi_xlcdc_rgba8888_ws_9x75_curiosity_720x720_round/debug/_ext/86928605/le_gen_images.o
                0x244d998c                N70_120_201_data
 .rodata.N72_127_190_data
                0x244eb88c    0x12700 build/dsi_xlcdc_rgba8888_ws_9x75_curiosity_720x720_round/debug/_ext/86928605/le_gen_images.o
                0x244eb88c                N72_127_190_data
 .rodata.N74_132_186_data
                0x244fdf8c    0x12c50 build/dsi_xlcdc_rgba8888_ws_9x75_curiosity_720x720_round/debug/_ext/86928605/le_gen_images.o
                0x244fdf8c                N74_132_186_data
 .rodata.N76_138_178_data
                0x24510bdc    0x12f30 build/dsi_xlcdc_rgba8888_ws_9x75_curiosity_720x720_round/debug/_ext/86928605/le_gen_images.o
                0x24510bdc                N76_138_178_data
 .rodata.N78_144_170_data
                0x24523b0c    0x13a10 build/dsi_xlcdc_rgba8888_ws_9x75_curiosity_720x720_round/debug/_ext/86928605/le_gen_images.o
                0x24523b0c                N78_144_170_data
 .rodata.N80_154_160_data
                0x2453751c    0x133f8 build/dsi_xlcdc_rgba8888_ws_9x75_curiosity_720x720_round/debug/_ext/86928605/le_gen_images.o
                0x2453751c                N80_154_160_data
 .rodata.N82_164_149_data
                0x2454a914    0x12ba0 build/dsi_xlcdc_rgba8888_ws_9x75_curiosity_720x720_round/debug/_ext/86928605/le_gen_images.o
                0x2454a914                N82_164_149_data
 .rodata.N84_169_142_data
                0x2455d4b4    0x13d30 build/dsi_xlcdc_rgba8888_ws_9x75_curiosity_720x720_round/debug/_ext/86928605/le_gen_images.o
                0x2455d4b4                N84_169_142_data
 .rodata.N86_180_138_data
                0x245711e4    0x12168 build/dsi_xlcdc_rgba8888_ws_9x75_curiosity_720x720_round/debug/_ext/86928605/le_gen_images.o
                0x245711e4                N86_180_138_data
 .rodata.N88_180_123_data
                0x2458334c    0x15f2c build/dsi_xlcdc_rgba8888_ws_9x75_curiosity_720x720_round/debug/_ext/86928605/le_gen_images.o
                0x2458334c                N88_180_123_data
 .rodata.N8_132_410_data
                0x24599278    0x12da0 build/dsi_xlcdc_rgba8888_ws_9x75_curiosity_720x720_round/debug/_ext/86928605/le_gen_images.o
                0x24599278                N8_132_410_data
 .rodata.N90_197_124_data
                0x245ac018    0x13194 build/dsi_xlcdc_rgba8888_ws_9x75_curiosity_720x720_round/debug/_ext/86928605/le_gen_images.o
                0x245ac018                N90_197_124_data
 .rodata.N92_203_118_data
                0x245bf1ac    0x12c00 build/dsi_xlcdc_rgba8888_ws_9x75_curiosity_720x720_round/debug/_ext/86928605/le_gen_images.o
                0x245bf1ac                N92_203_118_data
 .rodata.N94_215_112_data
                0x245d1dac    0x11c6c build/dsi_xlcdc_rgba8888_ws_9x75_curiosity_720x720_round/debug/_ext/86928605/le_gen_images.o
                0x245d1dac                N94_215_112_data
 .rodata.N96_224_102_data
                0x245e3a18    0x11f1c build/dsi_xlcdc_rgba8888_ws_9x75_curiosity_720x720_round/debug/_ext/86928605/le_gen_images.o
                0x245e3a18                N96_224_102_data
 .rodata.N98_231_103_data
                0x245f5934    0x104f0 build/dsi_xlcdc_rgba8888_ws_9x75_curiosity_720x720_round/debug/_ext/86928605/le_gen_images.o
                0x245f5934                N98_231_103_data
 .rodata.RtA_data
                0x24605e24     0x1770 build/dsi_xlcdc_rgba8888_ws_9x75_curiosity_720x720_round/debug/_ext/86928605/le_gen_images.o
                0x24605e24                RtA_data
 .rodata.Speedo_data
                0x24607594   0x1fa400 build/dsi_xlcdc_rgba8888_ws_9x75_curiosity_720x720_round/debug/_ext/86928605/le_gen_images.o
                0x24607594                Speedo_data
 .rodata.StA_data
                0x24801994     0x1770 build/dsi_xlcdc_rgba8888_ws_9x75_curiosity_720x720_round/debug/_ext/86928605/le_gen_images.o
                0x24801994                StA_data
 .rodata.blueBlur_data
                0x24803104   0x1faf40 build/dsi_xlcdc_rgba8888_ws_9x75_curiosity_720x720_round/debug/_ext/86928605/le_gen_images.o
                0x24803104                blueBlur_data
 .rodata.destinationIcon_data
                0x249fe044     0x2198 build/dsi_xlcdc_rgba8888_ws_9x75_curiosity_720x720_round/debug/_ext/86928605/le_gen_images.o
                0x249fe044                destinationIcon_data
 .rodata.leGlobalPalette
                0x24a001dc       0x14 build/dsi_xlcdc_rgba8888_ws_9x75_curiosity_720x720_round/debug/_ext/1965903633/le_gen_globalpalette.o
                0x24a001dc                leGlobalPalette
 .rodata.gfxGPUInterface
                0x24a001f0       0x1c build/dsi_xlcdc_rgba8888_ws_9x75_curiosity_720x720_round/debug/_ext/1965903633/le_gen_harmony.o
 .rodata.IndigoScheme
                0x24a0020c      0x2c8 build/dsi_xlcdc_rgba8888_ws_9x75_curiosity_720x720_round/debug/_ext/1965903633/le_gen_scheme.o
                0x24a0020c                IndigoScheme
 .rodata.stringTable
                0x24a004d4       0x18 build/dsi_xlcdc_rgba8888_ws_9x75_curiosity_720x720_round/debug/_ext/1965903633/le_gen_stringtable.o
                0x24a004d4                stringTable
 .rodata.stringTable_data
                0x24a004ec       0x88 build/dsi_xlcdc_rgba8888_ws_9x75_curiosity_720x720_round/debug/_ext/1965903633/le_gen_stringtable.o
                0x24a004ec                stringTable_data
 .rodata.abZigzag
                0x24a00574       0x40 build/dsi_xlcdc_rgba8888_ws_9x75_curiosity_720x720_round/debug/_ext/979623078/legato_imagedecoder_jpeg_common.o
 .rodata.bCbCrOffset.5354
                0x24a005b4        0x4 build/dsi_xlcdc_rgba8888_ws_9x75_curiosity_720x720_round/debug/_ext/979623078/legato_imagedecoder_jpeg_common.o
 .rodata.bOffsetX.5353
                0x24a005b8        0x4 build/dsi_xlcdc_rgba8888_ws_9x75_curiosity_720x720_round/debug/_ext/979623078/legato_imagedecoder_jpeg_common.o
 .rodata.bOffsetY.5352
                0x24a005bc        0x4 build/dsi_xlcdc_rgba8888_ws_9x75_curiosity_720x720_round/debug/_ext/979623078/legato_imagedecoder_jpeg_common.o
 .rodata.ADAM7_DX
                0x24a005c0       0x1c build/dsi_xlcdc_rgba8888_ws_9x75_curiosity_720x720_round/debug/_ext/799688951/lodepng.o
 .rodata.ADAM7_DY
                0x24a005dc       0x1c build/dsi_xlcdc_rgba8888_ws_9x75_curiosity_720x720_round/debug/_ext/799688951/lodepng.o
 .rodata.ADAM7_IX
                0x24a005f8       0x1c build/dsi_xlcdc_rgba8888_ws_9x75_curiosity_720x720_round/debug/_ext/799688951/lodepng.o
 .rodata.ADAM7_IY
                0x24a00614       0x1c build/dsi_xlcdc_rgba8888_ws_9x75_curiosity_720x720_round/debug/_ext/799688951/lodepng.o
 .rodata.CLCL_ORDER
                0x24a00630       0x4c build/dsi_xlcdc_rgba8888_ws_9x75_curiosity_720x720_round/debug/_ext/799688951/lodepng.o
 .rodata.CSWTCH.41
                0x24a0067c       0x1c build/dsi_xlcdc_rgba8888_ws_9x75_curiosity_720x720_round/debug/_ext/799688951/lodepng.o
 .rodata.DISTANCEBASE
                0x24a00698       0x78 build/dsi_xlcdc_rgba8888_ws_9x75_curiosity_720x720_round/debug/_ext/799688951/lodepng.o
 .rodata.DISTANCEEXTRA
                0x24a00710       0x78 build/dsi_xlcdc_rgba8888_ws_9x75_curiosity_720x720_round/debug/_ext/799688951/lodepng.o
 .rodata.LENGTHBASE
                0x24a00788       0x74 build/dsi_xlcdc_rgba8888_ws_9x75_curiosity_720x720_round/debug/_ext/799688951/lodepng.o
 .rodata.LENGTHEXTRA
                0x24a007fc       0x74 build/dsi_xlcdc_rgba8888_ws_9x75_curiosity_720x720_round/debug/_ext/799688951/lodepng.o
 .rodata.lodepng_crc32_table
                0x24a00870      0x400 build/dsi_xlcdc_rgba8888_ws_9x75_curiosity_720x720_round/debug/_ext/799688951/lodepng.o
 .rodata.calcOffset
                0x24a00c70       0x18 build/dsi_xlcdc_rgba8888_ws_9x75_curiosity_720x720_round/debug/_ext/1664643037/legato_image_utils.o
 .rodata.getDiscreteValue
                0x24a00c88       0x2c build/dsi_xlcdc_rgba8888_ws_9x75_curiosity_720x720_round/debug/_ext/1664643037/legato_image_utils.o
 .rodata.CSWTCH.13
                0x24a00cb4        0xc build/dsi_xlcdc_rgba8888_ws_9x75_curiosity_720x720_round/debug/_ext/2053165825/legato_gpu.o
 .rodata.CSWTCH.7
                0x24a00cc0        0xc build/dsi_xlcdc_rgba8888_ws_9x75_curiosity_720x720_round/debug/_ext/2053165825/legato_renderer.o
 .rodata.fixedStringVTable
                0x24a00ccc       0x6c build/dsi_xlcdc_rgba8888_ws_9x75_curiosity_720x720_round/debug/_ext/357591503/legato_fixedstring.o
 .rodata.tableStringVTable
                0x24a00d38       0x74 build/dsi_xlcdc_rgba8888_ws_9x75_curiosity_720x720_round/debug/_ext/357591503/legato_tablestring.o
 .rodata.imageWidgetVTable
                0x24a00dac      0x13c build/dsi_xlcdc_rgba8888_ws_9x75_curiosity_720x720_round/debug/_ext/1591588594/legato_widget_image.o
 .rodata.labelWidgetVTable
                0x24a00ee8      0x13c build/dsi_xlcdc_rgba8888_ws_9x75_curiosity_720x720_round/debug/_ext/1589174617/legato_widget_label.o
 .rodata.widgetVTable
                0x24a01024      0x134 build/dsi_xlcdc_rgba8888_ws_9x75_curiosity_720x720_round/debug/_ext/461530114/legato_widget.o
 .rodata        0x24a01158       0x30 build/dsi_xlcdc_rgba8888_ws_9x75_curiosity_720x720_round/debug/_ext/1886846076/plib_clk.o
 .rodata._gfx2d_pixel_size
                0x24a01188        0xc build/dsi_xlcdc_rgba8888_ws_9x75_curiosity_720x720_round/debug/_ext/786409605/plib_gfx2d.o
 .rodata.drvI2C0InitData
                0x24a01194       0x1c build/dsi_xlcdc_rgba8888_ws_9x75_curiosity_720x720_round/debug/_ext/1295507646/initialization.o
 .rodata.drvI2C0InterruptSources
                0x24a011b0       0x14 build/dsi_xlcdc_rgba8888_ws_9x75_curiosity_720x720_round/debug/_ext/1295507646/initialization.o
 .rodata.drvI2C0PLibAPI
                0x24a011c4       0x1c build/dsi_xlcdc_rgba8888_ws_9x75_curiosity_720x720_round/debug/_ext/1295507646/initialization.o
 .rodata.sysTimeInitData
                0x24a011e0        0x8 build/dsi_xlcdc_rgba8888_ws_9x75_curiosity_720x720_round/debug/_ext/1295507646/initialization.o
 .rodata.sysTimePlibAPI
                0x24a011e8       0x1c build/dsi_xlcdc_rgba8888_ws_9x75_curiosity_720x720_round/debug/_ext/1295507646/initialization.o
 .rodata        0x24a01204       0x14 build/dsi_xlcdc_rgba8888_ws_9x75_curiosity_720x720_round/debug/_ext/1360937237/main.o
 .rodata        0x24a01218        0x4 build/dsi_xlcdc_rgba8888_ws_9x75_curiosity_720x720_round/debug/_ext/1360937237/app.o
 .rodata        0x24a0121c       0x10 build/dsi_xlcdc_rgba8888_ws_9x75_curiosity_720x720_round/debug/_ext/1360937237/app_drive.o
 .rodata        0x24a0122c       0x1e c:/program files/microchip/xc32/v4.35/bin/bin/../../lib/gcc/pic32c/8.3.1/../../../../pic32c/lib/arm/v5te/nofp\libg-musl.a(__printf_core.o)
 .rodata        0x24a0124a       0x5c c:/program files/microchip/xc32/v4.35/bin/bin/../../lib/gcc/pic32c/8.3.1/../../../../pic32c/lib/arm/v5te/nofp\libg-musl.a(malloc.o)
 *(.ARM.extab* .gnu.linkonce.armextab.*)
                0x24a012a8                . = ALIGN (0x4)
 *fill*         0x24a012a6        0x2 
 *(.init)
 .init          0x24a012a8        0xc c:/program files/microchip/xc32/v4.35/bin/bin/../../lib/gcc/pic32c/8.3.1/arm/v5te/nofp/crti.o
                0x24a012a8                _init
 .init          0x24a012b4        0xc c:/program files/microchip/xc32/v4.35/bin/bin/../../lib/gcc/pic32c/8.3.1/arm/v5te/nofp/crtn.o
                0x24a012c0                . = ALIGN (0x4)
                [!provide]                PROVIDE (__preinit_array_start = .)
 *(.preinit_array)
                [!provide]                PROVIDE (__preinit_array_end = .)
                0x24a012c0                . = ALIGN (0x4)
                0x24a012c0                PROVIDE (__init_array_start = .)
 *(SORT_BY_NAME(.init_array.*))
 *(.init_array)
 .init_array    0x24a012c0        0x4 c:/program files/microchip/xc32/v4.35/bin/bin/../../lib/gcc/pic32c/8.3.1/arm/v5te/nofp/crtbegin.o
                0x24a012c4                PROVIDE (__init_array_end = .)
                0x24a012c4                . = ALIGN (0x4)
 *crtbegin.o(.ctors)
 *(EXCLUDE_FILE(*crtend.o) .ctors)
 *(SORT_BY_NAME(.ctors.*))
 *crtend.o(.ctors)
                0x24a012c4                . = ALIGN (0x4)
 *(.fini)
 .fini          0x24a012c4        0xc c:/program files/microchip/xc32/v4.35/bin/bin/../../lib/gcc/pic32c/8.3.1/arm/v5te/nofp/crti.o
                0x24a012c4                _fini
 .fini          0x24a012d0        0xc c:/program files/microchip/xc32/v4.35/bin/bin/../../lib/gcc/pic32c/8.3.1/arm/v5te/nofp/crtn.o
                0x24a012dc                . = ALIGN (0x4)
                [!provide]                PROVIDE (__fini_array_start = .)
 *(.fini_array)
 .fini_array    0x24a012dc        0x4 c:/program files/microchip/xc32/v4.35/bin/bin/../../lib/gcc/pic32c/8.3.1/arm/v5te/nofp/crtbegin.o
 *(SORT_BY_NAME(.fini_array.*))
                [!provide]                PROVIDE (__fini_array_end = .)
 *crtbegin.o(.dtors)
 *(EXCLUDE_FILE(*crtend.o) .dtors)
 *(SORT_BY_NAME(.dtors.*))
 *crtend.o(.dtors)
 *(.dinit*)
                0x24a012e0                . = ALIGN (0x4)

.data           0x24a012e0     0x24e4
 *(.data .data.*)
 .data.effectsIntervalMS
                0x24a012e0        0x4 build/dsi_xlcdc_rgba8888_ws_9x75_curiosity_720x720_round/debug/_ext/2010836581/gfx_canvas.o
 .data.gfxDispCtrlr
                0x24a012e4        0x4 build/dsi_xlcdc_rgba8888_ws_9x75_curiosity_720x720_round/debug/_ext/2010836581/gfx_canvas.o
                0x24a012e4                gfxDispCtrlr
 .data.brightSeq
                0x24a012e8        0x4 build/dsi_xlcdc_rgba8888_ws_9x75_curiosity_720x720_round/debug/_ext/1085405985/ws_touch_display.o
 .data.gfx2dFormats
                0x24a012ec        0xb build/dsi_xlcdc_rgba8888_ws_9x75_curiosity_720x720_round/debug/_ext/219820618/drv_gfx2d.o
                0x24a012ec                gfx2dFormats
 *fill*         0x24a012f7        0x1 
 .data.color_lerp_table
                0x24a012f8       0x2c build/dsi_xlcdc_rgba8888_ws_9x75_curiosity_720x720_round/debug/_ext/105237591/legato_color_lerp.o
                0x24a012f8                color_lerp_table
 .data.indexGet_FnTable
                0x24a01324       0x18 build/dsi_xlcdc_rgba8888_ws_9x75_curiosity_720x720_round/debug/_ext/105237591/legato_pixelbuffer.o
                0x24a01324                indexGet_FnTable
 .data.pixelGet_FnTable
                0x24a0133c       0x10 build/dsi_xlcdc_rgba8888_ws_9x75_curiosity_720x720_round/debug/_ext/105237591/legato_pixelbuffer.o
                0x24a0133c                pixelGet_FnTable
 .data.pixelSet_FnTable
                0x24a0134c       0x10 build/dsi_xlcdc_rgba8888_ws_9x75_curiosity_720x720_round/debug/_ext/105237591/legato_pixelbuffer.o
                0x24a0134c                pixelSet_FnTable
 .data.color_convert_table
                0x24a0135c      0x1e4 build/dsi_xlcdc_rgba8888_ws_9x75_curiosity_720x720_round/debug/_ext/105237591/legato_color_convert.o
                0x24a0135c                color_convert_table
 .data.NotoSansB_18
                0x24a01540       0x20 build/dsi_xlcdc_rgba8888_ws_9x75_curiosity_720x720_round/debug/_ext/1382756211/le_gen_fonts.o
                0x24a01540                NotoSansB_18
 .data.NotoSansBoldI_25
                0x24a01560       0x20 build/dsi_xlcdc_rgba8888_ws_9x75_curiosity_720x720_round/debug/_ext/1382756211/le_gen_fonts.o
                0x24a01560                NotoSansBoldI_25
 .data.NotoSansBoldI_48
                0x24a01580       0x20 build/dsi_xlcdc_rgba8888_ws_9x75_curiosity_720x720_round/debug/_ext/1382756211/le_gen_fonts.o
                0x24a01580                NotoSansBoldI_48
 .data.LtA      0x24a015a0       0x3c build/dsi_xlcdc_rgba8888_ws_9x75_curiosity_720x720_round/debug/_ext/86928605/le_gen_images.o
                0x24a015a0                LtA
 .data.MicrochipLogo
                0x24a015dc       0x3c build/dsi_xlcdc_rgba8888_ws_9x75_curiosity_720x720_round/debug/_ext/86928605/le_gen_images.o
                0x24a015dc                MicrochipLogo
 .data.N0_157_422
                0x24a01618       0x3c build/dsi_xlcdc_rgba8888_ws_9x75_curiosity_720x720_round/debug/_ext/86928605/le_gen_images.o
                0x24a01618                N0_157_422
 .data.N100_247_95
                0x24a01654       0x3c build/dsi_xlcdc_rgba8888_ws_9x75_curiosity_720x720_round/debug/_ext/86928605/le_gen_images.o
                0x24a01654                N100_247_95
 .data.N102_256_95
                0x24a01690       0x3c build/dsi_xlcdc_rgba8888_ws_9x75_curiosity_720x720_round/debug/_ext/86928605/le_gen_images.o
                0x24a01690                N102_256_95
 .data.N104_266_92
                0x24a016cc       0x3c build/dsi_xlcdc_rgba8888_ws_9x75_curiosity_720x720_round/debug/_ext/86928605/le_gen_images.o
                0x24a016cc                N104_266_92
 .data.N106_275_89
                0x24a01708       0x3c build/dsi_xlcdc_rgba8888_ws_9x75_curiosity_720x720_round/debug/_ext/86928605/le_gen_images.o
                0x24a01708                N106_275_89
 .data.N108_276_79
                0x24a01744       0x3c build/dsi_xlcdc_rgba8888_ws_9x75_curiosity_720x720_round/debug/_ext/86928605/le_gen_images.o
                0x24a01744                N108_276_79
 .data.N10_126_406
                0x24a01780       0x3c build/dsi_xlcdc_rgba8888_ws_9x75_curiosity_720x720_round/debug/_ext/86928605/le_gen_images.o
                0x24a01780                N10_126_406
 .data.N110_298_79
                0x24a017bc       0x3c build/dsi_xlcdc_rgba8888_ws_9x75_curiosity_720x720_round/debug/_ext/86928605/le_gen_images.o
                0x24a017bc                N110_298_79
 .data.N112_312_75
                0x24a017f8       0x3c build/dsi_xlcdc_rgba8888_ws_9x75_curiosity_720x720_round/debug/_ext/86928605/le_gen_images.o
                0x24a017f8                N112_312_75
 .data.N114_321_74
                0x24a01834       0x3c build/dsi_xlcdc_rgba8888_ws_9x75_curiosity_720x720_round/debug/_ext/86928605/le_gen_images.o
                0x24a01834                N114_321_74
 .data.N116_329_76
                0x24a01870       0x3c build/dsi_xlcdc_rgba8888_ws_9x75_curiosity_720x720_round/debug/_ext/86928605/le_gen_images.o
                0x24a01870                N116_329_76
 .data.N118_338_74
                0x24a018ac       0x3c build/dsi_xlcdc_rgba8888_ws_9x75_curiosity_720x720_round/debug/_ext/86928605/le_gen_images.o
                0x24a018ac                N118_338_74
 .data.N120_346_71
                0x24a018e8       0x3c build/dsi_xlcdc_rgba8888_ws_9x75_curiosity_720x720_round/debug/_ext/86928605/le_gen_images.o
                0x24a018e8                N120_346_71
 .data.N122_351_73
                0x24a01924       0x3c build/dsi_xlcdc_rgba8888_ws_9x75_curiosity_720x720_round/debug/_ext/86928605/le_gen_images.o
                0x24a01924                N122_351_73
 .data.N124_356_72
                0x24a01960       0x3c build/dsi_xlcdc_rgba8888_ws_9x75_curiosity_720x720_round/debug/_ext/86928605/le_gen_images.o
                0x24a01960                N124_356_72
 .data.N126_359_74
                0x24a0199c       0x3c build/dsi_xlcdc_rgba8888_ws_9x75_curiosity_720x720_round/debug/_ext/86928605/le_gen_images.o
                0x24a0199c                N126_359_74
 .data.N128_354_73
                0x24a019d8       0x3c build/dsi_xlcdc_rgba8888_ws_9x75_curiosity_720x720_round/debug/_ext/86928605/le_gen_images.o
                0x24a019d8                N128_354_73
 .data.N12_111_407
                0x24a01a14       0x3c build/dsi_xlcdc_rgba8888_ws_9x75_curiosity_720x720_round/debug/_ext/86928605/le_gen_images.o
                0x24a01a14                N12_111_407
 .data.N130_369_76
                0x24a01a50       0x3c build/dsi_xlcdc_rgba8888_ws_9x75_curiosity_720x720_round/debug/_ext/86928605/le_gen_images.o
                0x24a01a50                N130_369_76
 .data.N132_369_76
                0x24a01a8c       0x3c build/dsi_xlcdc_rgba8888_ws_9x75_curiosity_720x720_round/debug/_ext/86928605/le_gen_images.o
                0x24a01a8c                N132_369_76
 .data.N134_371_76
                0x24a01ac8       0x3c build/dsi_xlcdc_rgba8888_ws_9x75_curiosity_720x720_round/debug/_ext/86928605/le_gen_images.o
                0x24a01ac8                N134_371_76
 .data.N136_372_78
                0x24a01b04       0x3c build/dsi_xlcdc_rgba8888_ws_9x75_curiosity_720x720_round/debug/_ext/86928605/le_gen_images.o
                0x24a01b04                N136_372_78
 .data.N138_378_85
                0x24a01b40       0x3c build/dsi_xlcdc_rgba8888_ws_9x75_curiosity_720x720_round/debug/_ext/86928605/le_gen_images.o
                0x24a01b40                N138_378_85
 .data.N140_388_89
                0x24a01b7c       0x3c build/dsi_xlcdc_rgba8888_ws_9x75_curiosity_720x720_round/debug/_ext/86928605/le_gen_images.o
                0x24a01b7c                N140_388_89
 .data.N142_393_96
                0x24a01bb8       0x3c build/dsi_xlcdc_rgba8888_ws_9x75_curiosity_720x720_round/debug/_ext/86928605/le_gen_images.o
                0x24a01bb8                N142_393_96
 .data.N144_392_96
                0x24a01bf4       0x3c build/dsi_xlcdc_rgba8888_ws_9x75_curiosity_720x720_round/debug/_ext/86928605/le_gen_images.o
                0x24a01bf4                N144_392_96
 .data.N146_400_103
                0x24a01c30       0x3c build/dsi_xlcdc_rgba8888_ws_9x75_curiosity_720x720_round/debug/_ext/86928605/le_gen_images.o
                0x24a01c30                N146_400_103
 .data.N148_404_110
                0x24a01c6c       0x3c build/dsi_xlcdc_rgba8888_ws_9x75_curiosity_720x720_round/debug/_ext/86928605/le_gen_images.o
                0x24a01c6c                N148_404_110
 .data.N14_110_394
                0x24a01ca8       0x3c build/dsi_xlcdc_rgba8888_ws_9x75_curiosity_720x720_round/debug/_ext/86928605/le_gen_images.o
                0x24a01ca8                N14_110_394
 .data.N150_411_119
                0x24a01ce4       0x3c build/dsi_xlcdc_rgba8888_ws_9x75_curiosity_720x720_round/debug/_ext/86928605/le_gen_images.o
                0x24a01ce4                N150_411_119
 .data.N152_412_121
                0x24a01d20       0x3c build/dsi_xlcdc_rgba8888_ws_9x75_curiosity_720x720_round/debug/_ext/86928605/le_gen_images.o
                0x24a01d20                N152_412_121
 .data.N154_414_126
                0x24a01d5c       0x3c build/dsi_xlcdc_rgba8888_ws_9x75_curiosity_720x720_round/debug/_ext/86928605/le_gen_images.o
                0x24a01d5c                N154_414_126
 .data.N156_417_138
                0x24a01d98       0x3c build/dsi_xlcdc_rgba8888_ws_9x75_curiosity_720x720_round/debug/_ext/86928605/le_gen_images.o
                0x24a01d98                N156_417_138
 .data.N158_423_146
                0x24a01dd4       0x3c build/dsi_xlcdc_rgba8888_ws_9x75_curiosity_720x720_round/debug/_ext/86928605/le_gen_images.o
                0x24a01dd4                N158_423_146
 .data.N160_425_154
                0x24a01e10       0x3c build/dsi_xlcdc_rgba8888_ws_9x75_curiosity_720x720_round/debug/_ext/86928605/le_gen_images.o
                0x24a01e10                N160_425_154
 .data.N162_430_162
                0x24a01e4c       0x3c build/dsi_xlcdc_rgba8888_ws_9x75_curiosity_720x720_round/debug/_ext/86928605/le_gen_images.o
                0x24a01e4c                N162_430_162
 .data.N164_434_173
                0x24a01e88       0x3c build/dsi_xlcdc_rgba8888_ws_9x75_curiosity_720x720_round/debug/_ext/86928605/le_gen_images.o
                0x24a01e88                N164_434_173
 .data.N166_436_179
                0x24a01ec4       0x3c build/dsi_xlcdc_rgba8888_ws_9x75_curiosity_720x720_round/debug/_ext/86928605/le_gen_images.o
                0x24a01ec4                N166_436_179
 .data.N168_439_188
                0x24a01f00       0x3c build/dsi_xlcdc_rgba8888_ws_9x75_curiosity_720x720_round/debug/_ext/86928605/le_gen_images.o
                0x24a01f00                N168_439_188
 .data.N16_103_374
                0x24a01f3c       0x3c build/dsi_xlcdc_rgba8888_ws_9x75_curiosity_720x720_round/debug/_ext/86928605/le_gen_images.o
                0x24a01f3c                N16_103_374
 .data.N170_443_197
                0x24a01f78       0x3c build/dsi_xlcdc_rgba8888_ws_9x75_curiosity_720x720_round/debug/_ext/86928605/le_gen_images.o
                0x24a01f78                N170_443_197
 .data.N172_445_206
                0x24a01fb4       0x3c build/dsi_xlcdc_rgba8888_ws_9x75_curiosity_720x720_round/debug/_ext/86928605/le_gen_images.o
                0x24a01fb4                N172_445_206
 .data.N174_449_215
                0x24a01ff0       0x3c build/dsi_xlcdc_rgba8888_ws_9x75_curiosity_720x720_round/debug/_ext/86928605/le_gen_images.o
                0x24a01ff0                N174_449_215
 .data.N176_450_220
                0x24a0202c       0x3c build/dsi_xlcdc_rgba8888_ws_9x75_curiosity_720x720_round/debug/_ext/86928605/le_gen_images.o
                0x24a0202c                N176_450_220
 .data.N178_455_235
                0x24a02068       0x3c build/dsi_xlcdc_rgba8888_ws_9x75_curiosity_720x720_round/debug/_ext/86928605/le_gen_images.o
                0x24a02068                N178_455_235
 .data.N180_457_245
                0x24a020a4       0x3c build/dsi_xlcdc_rgba8888_ws_9x75_curiosity_720x720_round/debug/_ext/86928605/le_gen_images.o
                0x24a020a4                N180_457_245
 .data.N182_457_254
                0x24a020e0       0x3c build/dsi_xlcdc_rgba8888_ws_9x75_curiosity_720x720_round/debug/_ext/86928605/le_gen_images.o
                0x24a020e0                N182_457_254
 .data.N184_460_265
                0x24a0211c       0x3c build/dsi_xlcdc_rgba8888_ws_9x75_curiosity_720x720_round/debug/_ext/86928605/le_gen_images.o
                0x24a0211c                N184_460_265
 .data.N186_462_275
                0x24a02158       0x3c build/dsi_xlcdc_rgba8888_ws_9x75_curiosity_720x720_round/debug/_ext/86928605/le_gen_images.o
                0x24a02158                N186_462_275
 .data.N188_464_284
                0x24a02194       0x3c build/dsi_xlcdc_rgba8888_ws_9x75_curiosity_720x720_round/debug/_ext/86928605/le_gen_images.o
                0x24a02194                N188_464_284
 .data.N18_102_393
                0x24a021d0       0x3c build/dsi_xlcdc_rgba8888_ws_9x75_curiosity_720x720_round/debug/_ext/86928605/le_gen_images.o
                0x24a021d0                N18_102_393
 .data.N190_465_296
                0x24a0220c       0x3c build/dsi_xlcdc_rgba8888_ws_9x75_curiosity_720x720_round/debug/_ext/86928605/le_gen_images.o
                0x24a0220c                N190_465_296
 .data.N192_465_304
                0x24a02248       0x3c build/dsi_xlcdc_rgba8888_ws_9x75_curiosity_720x720_round/debug/_ext/86928605/le_gen_images.o
                0x24a02248                N192_465_304
 .data.N194_468_318
                0x24a02284       0x3c build/dsi_xlcdc_rgba8888_ws_9x75_curiosity_720x720_round/debug/_ext/86928605/le_gen_images.o
                0x24a02284                N194_468_318
 .data.N196_468_326
                0x24a022c0       0x3c build/dsi_xlcdc_rgba8888_ws_9x75_curiosity_720x720_round/debug/_ext/86928605/le_gen_images.o
                0x24a022c0                N196_468_326
 .data.N198_468_337
                0x24a022fc       0x3c build/dsi_xlcdc_rgba8888_ws_9x75_curiosity_720x720_round/debug/_ext/86928605/le_gen_images.o
                0x24a022fc                N198_468_337
 .data.N200_469_350
                0x24a02338       0x3c build/dsi_xlcdc_rgba8888_ws_9x75_curiosity_720x720_round/debug/_ext/86928605/le_gen_images.o
                0x24a02338                N200_469_350
 .data.N202_469_352
                0x24a02374       0x3c build/dsi_xlcdc_rgba8888_ws_9x75_curiosity_720x720_round/debug/_ext/86928605/le_gen_images.o
                0x24a02374                N202_469_352
 .data.N204_468_358
                0x24a023b0       0x3c build/dsi_xlcdc_rgba8888_ws_9x75_curiosity_720x720_round/debug/_ext/86928605/le_gen_images.o
                0x24a023b0                N204_468_358
 .data.N206_466_363
                0x24a023ec       0x3c build/dsi_xlcdc_rgba8888_ws_9x75_curiosity_720x720_round/debug/_ext/86928605/le_gen_images.o
                0x24a023ec                N206_466_363
 .data.N208_465_367
                0x24a02428       0x3c build/dsi_xlcdc_rgba8888_ws_9x75_curiosity_720x720_round/debug/_ext/86928605/le_gen_images.o
                0x24a02428                N208_465_367
 .data.N20_92_382
                0x24a02464       0x3c build/dsi_xlcdc_rgba8888_ws_9x75_curiosity_720x720_round/debug/_ext/86928605/le_gen_images.o
                0x24a02464                N20_92_382
 .data.N210_464_373
                0x24a024a0       0x3c build/dsi_xlcdc_rgba8888_ws_9x75_curiosity_720x720_round/debug/_ext/86928605/le_gen_images.o
                0x24a024a0                N210_464_373
 .data.N212_463_377
                0x24a024dc       0x3c build/dsi_xlcdc_rgba8888_ws_9x75_curiosity_720x720_round/debug/_ext/86928605/le_gen_images.o
                0x24a024dc                N212_463_377
 .data.N214_462_380
                0x24a02518       0x3c build/dsi_xlcdc_rgba8888_ws_9x75_curiosity_720x720_round/debug/_ext/86928605/le_gen_images.o
                0x24a02518                N214_462_380
 .data.N216_457_386
                0x24a02554       0x3c build/dsi_xlcdc_rgba8888_ws_9x75_curiosity_720x720_round/debug/_ext/86928605/le_gen_images.o
                0x24a02554                N216_457_386
 .data.N218_457_388
                0x24a02590       0x3c build/dsi_xlcdc_rgba8888_ws_9x75_curiosity_720x720_round/debug/_ext/86928605/le_gen_images.o
                0x24a02590                N218_457_388
 .data.N220_453_389
                0x24a025cc       0x3c build/dsi_xlcdc_rgba8888_ws_9x75_curiosity_720x720_round/debug/_ext/86928605/le_gen_images.o
                0x24a025cc                N220_453_389
 .data.N222_454_394
                0x24a02608       0x3c build/dsi_xlcdc_rgba8888_ws_9x75_curiosity_720x720_round/debug/_ext/86928605/le_gen_images.o
                0x24a02608                N222_454_394
 .data.N224_449_401
                0x24a02644       0x3c build/dsi_xlcdc_rgba8888_ws_9x75_curiosity_720x720_round/debug/_ext/86928605/le_gen_images.o
                0x24a02644                N224_449_401
 .data.N226_447_406
                0x24a02680       0x3c build/dsi_xlcdc_rgba8888_ws_9x75_curiosity_720x720_round/debug/_ext/86928605/le_gen_images.o
                0x24a02680                N226_447_406
 .data.N228_446_408
                0x24a026bc       0x3c build/dsi_xlcdc_rgba8888_ws_9x75_curiosity_720x720_round/debug/_ext/86928605/le_gen_images.o
                0x24a026bc                N228_446_408
 .data.N22_92_378
                0x24a026f8       0x3c build/dsi_xlcdc_rgba8888_ws_9x75_curiosity_720x720_round/debug/_ext/86928605/le_gen_images.o
                0x24a026f8                N22_92_378
 .data.N230_443_411
                0x24a02734       0x3c build/dsi_xlcdc_rgba8888_ws_9x75_curiosity_720x720_round/debug/_ext/86928605/le_gen_images.o
                0x24a02734                N230_443_411
 .data.N232_441_415
                0x24a02770       0x3c build/dsi_xlcdc_rgba8888_ws_9x75_curiosity_720x720_round/debug/_ext/86928605/le_gen_images.o
                0x24a02770                N232_441_415
 .data.N234_438_417
                0x24a027ac       0x3c build/dsi_xlcdc_rgba8888_ws_9x75_curiosity_720x720_round/debug/_ext/86928605/le_gen_images.o
                0x24a027ac                N234_438_417
 .data.N236_438_417
                0x24a027e8       0x3c build/dsi_xlcdc_rgba8888_ws_9x75_curiosity_720x720_round/debug/_ext/86928605/le_gen_images.o
                0x24a027e8                N236_438_417
 .data.N238_432_424
                0x24a02824       0x3c build/dsi_xlcdc_rgba8888_ws_9x75_curiosity_720x720_round/debug/_ext/86928605/le_gen_images.o
                0x24a02824                N238_432_424
 .data.N240_428_428
                0x24a02860       0x3c build/dsi_xlcdc_rgba8888_ws_9x75_curiosity_720x720_round/debug/_ext/86928605/le_gen_images.o
                0x24a02860                N240_428_428
 .data.N24_89_379
                0x24a0289c       0x3c build/dsi_xlcdc_rgba8888_ws_9x75_curiosity_720x720_round/debug/_ext/86928605/le_gen_images.o
                0x24a0289c                N24_89_379
 .data.N26_85_368
                0x24a028d8       0x3c build/dsi_xlcdc_rgba8888_ws_9x75_curiosity_720x720_round/debug/_ext/86928605/le_gen_images.o
                0x24a028d8                N26_85_368
 .data.N28_81_367
                0x24a02914       0x3c build/dsi_xlcdc_rgba8888_ws_9x75_curiosity_720x720_round/debug/_ext/86928605/le_gen_images.o
                0x24a02914                N28_81_367
 .data.N2_151_420
                0x24a02950       0x3c build/dsi_xlcdc_rgba8888_ws_9x75_curiosity_720x720_round/debug/_ext/86928605/le_gen_images.o
                0x24a02950                N2_151_420
 .data.N30_80_362
                0x24a0298c       0x3c build/dsi_xlcdc_rgba8888_ws_9x75_curiosity_720x720_round/debug/_ext/86928605/le_gen_images.o
                0x24a0298c                N30_80_362
 .data.N32_80_363
                0x24a029c8       0x3c build/dsi_xlcdc_rgba8888_ws_9x75_curiosity_720x720_round/debug/_ext/86928605/le_gen_images.o
                0x24a029c8                N32_80_363
 .data.N34_77_357
                0x24a02a04       0x3c build/dsi_xlcdc_rgba8888_ws_9x75_curiosity_720x720_round/debug/_ext/86928605/le_gen_images.o
                0x24a02a04                N34_77_357
 .data.N36_79_347
                0x24a02a40       0x3c build/dsi_xlcdc_rgba8888_ws_9x75_curiosity_720x720_round/debug/_ext/86928605/le_gen_images.o
                0x24a02a40                N36_79_347
 .data.N38_110_354
                0x24a02a7c       0x3c build/dsi_xlcdc_rgba8888_ws_9x75_curiosity_720x720_round/debug/_ext/86928605/le_gen_images.o
                0x24a02a7c                N38_110_354
 .data.N40_74_350
                0x24a02ab8       0x3c build/dsi_xlcdc_rgba8888_ws_9x75_curiosity_720x720_round/debug/_ext/86928605/le_gen_images.o
                0x24a02ab8                N40_74_350
 .data.N42_74_341
                0x24a02af4       0x3c build/dsi_xlcdc_rgba8888_ws_9x75_curiosity_720x720_round/debug/_ext/86928605/le_gen_images.o
                0x24a02af4                N42_74_341
 .data.N44_74_335
                0x24a02b30       0x3c build/dsi_xlcdc_rgba8888_ws_9x75_curiosity_720x720_round/debug/_ext/86928605/le_gen_images.o
                0x24a02b30                N44_74_335
 .data.N46_76_323
                0x24a02b6c       0x3c build/dsi_xlcdc_rgba8888_ws_9x75_curiosity_720x720_round/debug/_ext/86928605/le_gen_images.o
                0x24a02b6c                N46_76_323
 .data.N48_74_316
                0x24a02ba8       0x3c build/dsi_xlcdc_rgba8888_ws_9x75_curiosity_720x720_round/debug/_ext/86928605/le_gen_images.o
                0x24a02ba8                N48_74_316
 .data.N4_145_419
                0x24a02be4       0x3c build/dsi_xlcdc_rgba8888_ws_9x75_curiosity_720x720_round/debug/_ext/86928605/le_gen_images.o
                0x24a02be4                N4_145_419
 .data.N50_75_296
                0x24a02c20       0x3c build/dsi_xlcdc_rgba8888_ws_9x75_curiosity_720x720_round/debug/_ext/86928605/le_gen_images.o
                0x24a02c20                N50_75_296
 .data.N52_77_286
                0x24a02c5c       0x3c build/dsi_xlcdc_rgba8888_ws_9x75_curiosity_720x720_round/debug/_ext/86928605/le_gen_images.o
                0x24a02c5c                N52_77_286
 .data.N54_83_281
                0x24a02c98       0x3c build/dsi_xlcdc_rgba8888_ws_9x75_curiosity_720x720_round/debug/_ext/86928605/le_gen_images.o
                0x24a02c98                N54_83_281
 .data.N56_86_271
                0x24a02cd4       0x3c build/dsi_xlcdc_rgba8888_ws_9x75_curiosity_720x720_round/debug/_ext/86928605/le_gen_images.o
                0x24a02cd4                N56_86_271
 .data.N58_87_258
                0x24a02d10       0x3c build/dsi_xlcdc_rgba8888_ws_9x75_curiosity_720x720_round/debug/_ext/86928605/le_gen_images.o
                0x24a02d10                N58_87_258
 .data.N60_95_249
                0x24a02d4c       0x3c build/dsi_xlcdc_rgba8888_ws_9x75_curiosity_720x720_round/debug/_ext/86928605/le_gen_images.o
                0x24a02d4c                N60_95_249
 .data.N62_102_238
                0x24a02d88       0x3c build/dsi_xlcdc_rgba8888_ws_9x75_curiosity_720x720_round/debug/_ext/86928605/le_gen_images.o
                0x24a02d88                N62_102_238
 .data.N64_105_227
                0x24a02dc4       0x3c build/dsi_xlcdc_rgba8888_ws_9x75_curiosity_720x720_round/debug/_ext/86928605/le_gen_images.o
                0x24a02dc4                N64_105_227
 .data.N66_109_220
                0x24a02e00       0x3c build/dsi_xlcdc_rgba8888_ws_9x75_curiosity_720x720_round/debug/_ext/86928605/le_gen_images.o
                0x24a02e00                N66_109_220
 .data.N68_114_211
                0x24a02e3c       0x3c build/dsi_xlcdc_rgba8888_ws_9x75_curiosity_720x720_round/debug/_ext/86928605/le_gen_images.o
                0x24a02e3c                N68_114_211
 .data.N6_133_412
                0x24a02e78       0x3c build/dsi_xlcdc_rgba8888_ws_9x75_curiosity_720x720_round/debug/_ext/86928605/le_gen_images.o
                0x24a02e78                N6_133_412
 .data.N70_120_201
                0x24a02eb4       0x3c build/dsi_xlcdc_rgba8888_ws_9x75_curiosity_720x720_round/debug/_ext/86928605/le_gen_images.o
                0x24a02eb4                N70_120_201
 .data.N72_127_190
                0x24a02ef0       0x3c build/dsi_xlcdc_rgba8888_ws_9x75_curiosity_720x720_round/debug/_ext/86928605/le_gen_images.o
                0x24a02ef0                N72_127_190
 .data.N74_132_186
                0x24a02f2c       0x3c build/dsi_xlcdc_rgba8888_ws_9x75_curiosity_720x720_round/debug/_ext/86928605/le_gen_images.o
                0x24a02f2c                N74_132_186
 .data.N76_138_178
                0x24a02f68       0x3c build/dsi_xlcdc_rgba8888_ws_9x75_curiosity_720x720_round/debug/_ext/86928605/le_gen_images.o
                0x24a02f68                N76_138_178
 .data.N78_144_170
                0x24a02fa4       0x3c build/dsi_xlcdc_rgba8888_ws_9x75_curiosity_720x720_round/debug/_ext/86928605/le_gen_images.o
                0x24a02fa4                N78_144_170
 .data.N80_154_160
                0x24a02fe0       0x3c build/dsi_xlcdc_rgba8888_ws_9x75_curiosity_720x720_round/debug/_ext/86928605/le_gen_images.o
                0x24a02fe0                N80_154_160
 .data.N82_164_149
                0x24a0301c       0x3c build/dsi_xlcdc_rgba8888_ws_9x75_curiosity_720x720_round/debug/_ext/86928605/le_gen_images.o
                0x24a0301c                N82_164_149
 .data.N84_169_142
                0x24a03058       0x3c build/dsi_xlcdc_rgba8888_ws_9x75_curiosity_720x720_round/debug/_ext/86928605/le_gen_images.o
                0x24a03058                N84_169_142
 .data.N86_180_138
                0x24a03094       0x3c build/dsi_xlcdc_rgba8888_ws_9x75_curiosity_720x720_round/debug/_ext/86928605/le_gen_images.o
                0x24a03094                N86_180_138
 .data.N88_180_123
                0x24a030d0       0x3c build/dsi_xlcdc_rgba8888_ws_9x75_curiosity_720x720_round/debug/_ext/86928605/le_gen_images.o
                0x24a030d0                N88_180_123
 .data.N8_132_410
                0x24a0310c       0x3c build/dsi_xlcdc_rgba8888_ws_9x75_curiosity_720x720_round/debug/_ext/86928605/le_gen_images.o
                0x24a0310c                N8_132_410
 .data.N90_197_124
                0x24a03148       0x3c build/dsi_xlcdc_rgba8888_ws_9x75_curiosity_720x720_round/debug/_ext/86928605/le_gen_images.o
                0x24a03148                N90_197_124
 .data.N92_203_118
                0x24a03184       0x3c build/dsi_xlcdc_rgba8888_ws_9x75_curiosity_720x720_round/debug/_ext/86928605/le_gen_images.o
                0x24a03184                N92_203_118
 .data.N94_215_112
                0x24a031c0       0x3c build/dsi_xlcdc_rgba8888_ws_9x75_curiosity_720x720_round/debug/_ext/86928605/le_gen_images.o
                0x24a031c0                N94_215_112
 .data.N96_224_102
                0x24a031fc       0x3c build/dsi_xlcdc_rgba8888_ws_9x75_curiosity_720x720_round/debug/_ext/86928605/le_gen_images.o
                0x24a031fc                N96_224_102
 .data.N98_231_103
                0x24a03238       0x3c build/dsi_xlcdc_rgba8888_ws_9x75_curiosity_720x720_round/debug/_ext/86928605/le_gen_images.o
                0x24a03238                N98_231_103
 .data.RtA      0x24a03274       0x3c build/dsi_xlcdc_rgba8888_ws_9x75_curiosity_720x720_round/debug/_ext/86928605/le_gen_images.o
                0x24a03274                RtA
 .data.Speedo   0x24a032b0       0x3c build/dsi_xlcdc_rgba8888_ws_9x75_curiosity_720x720_round/debug/_ext/86928605/le_gen_images.o
                0x24a032b0                Speedo
 .data.StA      0x24a032ec       0x3c build/dsi_xlcdc_rgba8888_ws_9x75_curiosity_720x720_round/debug/_ext/86928605/le_gen_images.o
                0x24a032ec                StA
 .data.blueBlur
                0x24a03328       0x3c build/dsi_xlcdc_rgba8888_ws_9x75_curiosity_720x720_round/debug/_ext/86928605/le_gen_images.o
                0x24a03328                blueBlur
 .data.destinationIcon
                0x24a03364       0x3c build/dsi_xlcdc_rgba8888_ws_9x75_curiosity_720x720_round/debug/_ext/86928605/le_gen_images.o
                0x24a03364                destinationIcon
 .data.leGlobalPalette_data
                0x24a033a0      0x200 build/dsi_xlcdc_rgba8888_ws_9x75_curiosity_720x720_round/debug/_ext/1965903633/le_gen_globalpalette.o
                0x24a033a0                leGlobalPalette_data
 .data.fontList
                0x24a035a0        0xc build/dsi_xlcdc_rgba8888_ws_9x75_curiosity_720x720_round/debug/_ext/1965903633/le_gen_stringtable.o
                0x24a035a0                fontList
 .data.fixedPoolDefs
                0x24a035ac       0x54 build/dsi_xlcdc_rgba8888_ws_9x75_curiosity_720x720_round/debug/_ext/171820735/legato_memory.o
 .data.paintEvt
                0x24a03600        0x1 build/dsi_xlcdc_rgba8888_ws_9x75_curiosity_720x720_round/debug/_ext/2053165825/legato_renderer.o
 *fill*         0x24a03601        0x3 
 .data.decodeGlyph
                0x24a03604        0xc build/dsi_xlcdc_rgba8888_ws_9x75_curiosity_720x720_round/debug/_ext/357591503/legato_stringutils.o
                0x24a03604                decodeGlyph
 .data._moveEvent
                0x24a03610       0x14 build/dsi_xlcdc_rgba8888_ws_9x75_curiosity_720x720_round/debug/_ext/461530114/legato_widget.o
 .data._resizeEvent
                0x24a03624       0x14 build/dsi_xlcdc_rgba8888_ws_9x75_curiosity_720x720_round/debug/_ext/461530114/legato_widget.o
 .data.gSysTimeTokenCount
                0x24a03638        0x2 build/dsi_xlcdc_rgba8888_ws_9x75_curiosity_720x720_round/debug/_ext/690637493/sys_time.o
 .data.dImageOn
                0x24a0363a        0x1 build/dsi_xlcdc_rgba8888_ws_9x75_curiosity_720x720_round/debug/_ext/1360937237/app_drive.o
                0x24a0363a                dImageOn
 *fill*         0x24a0363b        0x1 
 .data.fixedAnime
                0x24a0363c       0x14 build/dsi_xlcdc_rgba8888_ws_9x75_curiosity_720x720_round/debug/_ext/1360937237/app_drive.o
                0x24a0363c                fixedAnime
 .data.maplocations
                0x24a03650       0x80 build/dsi_xlcdc_rgba8888_ws_9x75_curiosity_720x720_round/debug/_ext/1360937237/app_drive.o
                0x24a03650                maplocations
 .data.sec      0x24a036d0        0x4 build/dsi_xlcdc_rgba8888_ws_9x75_curiosity_720x720_round/debug/_ext/1360937237/app_drive.o
                0x24a036d0                sec
 .data.updateDistance
                0x24a036d4        0x1 build/dsi_xlcdc_rgba8888_ws_9x75_curiosity_720x720_round/debug/_ext/1360937237/app_drive.o
                0x24a036d4                updateDistance
 *fill*         0x24a036d5        0x3 
 .data          0x24a036d8       0x6c c:/program files/microchip/xc32/v4.35/bin/bin/../../lib/gcc/pic32c/8.3.1/../../../../pic32c/lib/arm/v5te/nofp\libg-musl.a(stdin.o)
                0x24a036d8                __stdin_used
                0x24a036dc                _stdin
 .data          0x24a03744       0x20 c:/program files/microchip/xc32/v4.35/bin/bin/../../lib/gcc/pic32c/8.3.1/../../../../pic32c/lib/arm/v5te/nofp\libg-musl.a(stdout.o)
                0x24a03760                _stdout
 .data          0x24a03764       0x60 c:/program files/microchip/xc32/v4.35/bin/bin/../../lib/gcc/pic32c/8.3.1/../../../../pic32c/lib/arm/v5te/nofp\libg-musl.a(__stdout.o)
                0x24a037c4                . = ALIGN (0x4)
                [!provide]                PROVIDE (_efixed = .)
                [!provide]                PROVIDE (__exidx_start = .)

.ARM.exidx      0x24a037c4        0x8
 *(.ARM.exidx* .gnu.linkonce.armexidx.*)
 .ARM.exidx     0x24a037c4        0x8 c:/program files/microchip/xc32/v4.35/bin/bin/../../lib/gcc/pic32c/8.3.1/arm/v5te/nofp\libgcc.a(_udivmoddi4.o)
                [!provide]                PROVIDE (__exidx_end = .)
                0x24a037cc                . = ALIGN (0x4)
                0x24a037cc                PROVIDE (_etext = .)

.relocate       0x00300000       0x3c load address 0x24a037cc
                0x00300000                . = ALIGN (0x4)
                0x00300000                PROVIDE (_srelocate = .)
 *(.vectors .vectors.*)
 .vectors       0x00300000       0x3c build/dsi_xlcdc_rgba8888_ws_9x75_curiosity_720x720_round/debug/_ext/1295507646/cstartup.o
 *(.ramfunc)
                0x0030003c                . = ALIGN (0x4)
                0x0030003c                PROVIDE (_erelocate = .)

.region_cache_aligned_const
                0x24a037cc       0x14
                0x24a037e0                . = ALIGN (0x20)
 *fill*         0x24a037cc       0x14 
 *(.region_cache_aligned_const .region_cache_aligned_const.*)
                0x24a037e0                . = ALIGN (0x20)

.region_sram    0x0030003c        0x0
                0x0030003c                . = ALIGN (0x4)
 *(.region_sram .region_sram.*)

.region_ram     0x24a037e0        0x0
                0x24a037e0                . = ALIGN (0x4)
 *(.region_ram .region_ram.*)

.region_nocache
                0x20000000   0x4f7500
                0x20000000                . = ALIGN (0x4)
 *(.region_nocache .region_nocache.*)
 .region_nocache.canvasfb0
                0x20000000   0x1fa400 build/dsi_xlcdc_rgba8888_ws_9x75_curiosity_720x720_round/debug/_ext/2010836581/gfx_canvas.o
                0x20000000                canvasfb0
 .region_nocache.canvasfb1
                0x201fa400    0x2646c build/dsi_xlcdc_rgba8888_ws_9x75_curiosity_720x720_round/debug/_ext/2010836581/gfx_canvas.o
                0x201fa400                canvasfb1
 *fill*         0x2022086c       0x14 
 .region_nocache.canvasfb2
                0x20220880    0x78870 build/dsi_xlcdc_rgba8888_ws_9x75_curiosity_720x720_round/debug/_ext/2010836581/gfx_canvas.o
                0x20220880                canvasfb2
 *fill*         0x202990f0       0x10 
 .region_nocache.canvasfb3
                0x20299100   0x1fa400 build/dsi_xlcdc_rgba8888_ws_9x75_curiosity_720x720_round/debug/_ext/2010836581/gfx_canvas.o
                0x20299100                canvasfb3
 .region_nocache._dataBuffers
                0x20493500    0x64000 build/dsi_xlcdc_rgba8888_ws_9x75_curiosity_720x720_round/debug/_ext/2053165825/legato_renderer.o

.bss            0x24a04000    0x51148
                0x24a04000                . = ALIGN (0x4)
                0x24a04000                PROVIDE (_szero = .)
 *(.bss .bss.*)
 .bss           0x24a04000       0x1c c:/program files/microchip/xc32/v4.35/bin/bin/../../lib/gcc/pic32c/8.3.1/arm/v5te/nofp/crtbegin.o
 .bss.gDrvI2CObj
                0x24a0401c       0x3c build/dsi_xlcdc_rgba8888_ws_9x75_curiosity_720x720_round/debug/_ext/1985065589/drv_i2c.o
 .bss.activeCanvasID
                0x24a04058        0x4 build/dsi_xlcdc_rgba8888_ws_9x75_curiosity_720x720_round/debug/_ext/2010836581/gfx_canvas.o
 .bss.baseCanvasID
                0x24a0405c        0x4 build/dsi_xlcdc_rgba8888_ws_9x75_curiosity_720x720_round/debug/_ext/2010836581/gfx_canvas.o
 .bss.canvas    0x24a04060      0x1a0 build/dsi_xlcdc_rgba8888_ws_9x75_curiosity_720x720_round/debug/_ext/2010836581/gfx_canvas.o
                0x24a04060                canvas
 .bss.displayHeight
                0x24a04200        0x4 build/dsi_xlcdc_rgba8888_ws_9x75_curiosity_720x720_round/debug/_ext/2010836581/gfx_canvas.o
 .bss.displayWidth
                0x24a04204        0x4 build/dsi_xlcdc_rgba8888_ws_9x75_curiosity_720x720_round/debug/_ext/2010836581/gfx_canvas.o
 .bss.effectsTick
                0x24a04208        0x4 build/dsi_xlcdc_rgba8888_ws_9x75_curiosity_720x720_round/debug/_ext/2010836581/gfx_canvas.o
 .bss.effectsTimer
                0x24a0420c        0x4 build/dsi_xlcdc_rgba8888_ws_9x75_curiosity_720x720_round/debug/_ext/2010836581/gfx_canvas.o
 .bss.gfxcState
                0x24a04210        0x1 build/dsi_xlcdc_rgba8888_ws_9x75_curiosity_720x720_round/debug/_ext/2010836581/gfx_canvas.o
 *fill*         0x24a04211        0x3 
 .bss.oldEffectsTick
                0x24a04214        0x4 build/dsi_xlcdc_rgba8888_ws_9x75_curiosity_720x720_round/debug/_ext/2010836581/gfx_canvas.o
 .bss.disp_data
                0x24a04218      0x1f0 build/dsi_xlcdc_rgba8888_ws_9x75_curiosity_720x720_round/debug/_ext/1085405985/ws_touch_display.o
                0x24a04218                disp_data
 .bss.blendState
                0x24a04408        0x1 build/dsi_xlcdc_rgba8888_ws_9x75_curiosity_720x720_round/debug/_ext/219820618/drv_gfx2d.o
 *fill*         0x24a04409        0x3 
 .bss.activeLayer
                0x24a0440c        0x4 build/dsi_xlcdc_rgba8888_ws_9x75_curiosity_720x720_round/debug/_ext/505007713/drv_gfx_xlcdc.o
 .bss.destRect  0x24a04410       0x10 build/dsi_xlcdc_rgba8888_ws_9x75_curiosity_720x720_round/debug/_ext/505007713/drv_gfx_xlcdc.o
 .bss.drvLayer  0x24a04420      0x140 build/dsi_xlcdc_rgba8888_ws_9x75_curiosity_720x720_round/debug/_ext/505007713/drv_gfx_xlcdc.o
 .bss.srcRect   0x24a04560       0x10 build/dsi_xlcdc_rgba8888_ws_9x75_curiosity_720x720_round/debug/_ext/505007713/drv_gfx_xlcdc.o
 .bss.state     0x24a04570        0x1 build/dsi_xlcdc_rgba8888_ws_9x75_curiosity_720x720_round/debug/_ext/505007713/drv_gfx_xlcdc.o
 .bss.vblankSync
                0x24a04571        0x1 build/dsi_xlcdc_rgba8888_ws_9x75_curiosity_720x720_round/debug/_ext/505007713/drv_gfx_xlcdc.o
 *fill*         0x24a04572        0x2 
 .bss.vsyncCount
                0x24a04574        0x4 build/dsi_xlcdc_rgba8888_ws_9x75_curiosity_720x720_round/debug/_ext/505007713/drv_gfx_xlcdc.o
 .bss._state    0x24a04578       0x10 build/dsi_xlcdc_rgba8888_ws_9x75_curiosity_720x720_round/debug/_ext/884805853/legato_event.o
 .bss._state    0x24a04588       0x24 build/dsi_xlcdc_rgba8888_ws_9x75_curiosity_720x720_round/debug/_ext/884805853/legato_input.o
 .bss._initialized
                0x24a045ac        0x4 build/dsi_xlcdc_rgba8888_ws_9x75_curiosity_720x720_round/debug/_ext/884805853/legato_state.o
                0x24a045ac                _initialized
 .bss._state    0x24a045b0      0x2ec build/dsi_xlcdc_rgba8888_ws_9x75_curiosity_720x720_round/debug/_ext/884805853/legato_state.o
 .bss.Screen0_BackgroundPanel
                0x24a0489c        0x4 build/dsi_xlcdc_rgba8888_ws_9x75_curiosity_720x720_round/debug/_ext/1322619606/le_gen_screen_Screen0.o
                0x24a0489c                Screen0_BackgroundPanel
 .bss.Screen0_BlueBlurImage
                0x24a048a0        0x4 build/dsi_xlcdc_rgba8888_ws_9x75_curiosity_720x720_round/debug/_ext/1322619606/le_gen_screen_Screen0.o
                0x24a048a0                Screen0_BlueBlurImage
 .bss.Screen0_DistLabel
                0x24a048a4        0x4 build/dsi_xlcdc_rgba8888_ws_9x75_curiosity_720x720_round/debug/_ext/1322619606/le_gen_screen_Screen0.o
                0x24a048a4                Screen0_DistLabel
 .bss.Screen0_InstructLabel
                0x24a048a8        0x4 build/dsi_xlcdc_rgba8888_ws_9x75_curiosity_720x720_round/debug/_ext/1322619606/le_gen_screen_Screen0.o
                0x24a048a8                Screen0_InstructLabel
 .bss.Screen0_MCHPLogoImage
                0x24a048ac        0x4 build/dsi_xlcdc_rgba8888_ws_9x75_curiosity_720x720_round/debug/_ext/1322619606/le_gen_screen_Screen0.o
                0x24a048ac                Screen0_MCHPLogoImage
 .bss.Screen0_RTLabel
                0x24a048b0        0x4 build/dsi_xlcdc_rgba8888_ws_9x75_curiosity_720x720_round/debug/_ext/1322619606/le_gen_screen_Screen0.o
                0x24a048b0                Screen0_RTLabel
 .bss.Screen0_RTimeLabel
                0x24a048b4        0x4 build/dsi_xlcdc_rgba8888_ws_9x75_curiosity_720x720_round/debug/_ext/1322619606/le_gen_screen_Screen0.o
                0x24a048b4                Screen0_RTimeLabel
 .bss.Screen0_SpeedLabel
                0x24a048b8        0x4 build/dsi_xlcdc_rgba8888_ws_9x75_curiosity_720x720_round/debug/_ext/1322619606/le_gen_screen_Screen0.o
                0x24a048b8                Screen0_SpeedLabel
 .bss.Screen0_SpeedUnitLabel
                0x24a048bc        0x4 build/dsi_xlcdc_rgba8888_ws_9x75_curiosity_720x720_round/debug/_ext/1322619606/le_gen_screen_Screen0.o
                0x24a048bc                Screen0_SpeedUnitLabel
 .bss.Screen0_indicatorImage
                0x24a048c0        0x4 build/dsi_xlcdc_rgba8888_ws_9x75_curiosity_720x720_round/debug/_ext/1322619606/le_gen_screen_Screen0.o
                0x24a048c0                Screen0_indicatorImage
 .bss.Screen0_speedoImage
                0x24a048c4        0x4 build/dsi_xlcdc_rgba8888_ws_9x75_curiosity_720x720_round/debug/_ext/1322619606/le_gen_screen_Screen0.o
                0x24a048c4                Screen0_speedoImage
 .bss.initialized
                0x24a048c8        0x1 build/dsi_xlcdc_rgba8888_ws_9x75_curiosity_720x720_round/debug/_ext/1322619606/le_gen_screen_Screen0.o
 *fill*         0x24a048c9        0x3 
 .bss.root0     0x24a048cc        0x4 build/dsi_xlcdc_rgba8888_ws_9x75_curiosity_720x720_round/debug/_ext/1322619606/le_gen_screen_Screen0.o
 .bss.root1     0x24a048d0        0x4 build/dsi_xlcdc_rgba8888_ws_9x75_curiosity_720x720_round/debug/_ext/1322619606/le_gen_screen_Screen0.o
 .bss.root2     0x24a048d4        0x4 build/dsi_xlcdc_rgba8888_ws_9x75_curiosity_720x720_round/debug/_ext/1322619606/le_gen_screen_Screen0.o
 .bss.root3     0x24a048d8        0x4 build/dsi_xlcdc_rgba8888_ws_9x75_curiosity_720x720_round/debug/_ext/1322619606/le_gen_screen_Screen0.o
 .bss.showing   0x24a048dc        0x1 build/dsi_xlcdc_rgba8888_ws_9x75_curiosity_720x720_round/debug/_ext/1322619606/le_gen_screen_Screen0.o
 *fill*         0x24a048dd        0x3 
 .bss.inputListener
                0x24a048e0       0x34 build/dsi_xlcdc_rgba8888_ws_9x75_curiosity_720x720_round/debug/_ext/1965903633/le_gen_harmony.o
                0x24a048e0                inputListener
 .bss.legatoState
                0x24a04914        0x1 build/dsi_xlcdc_rgba8888_ws_9x75_curiosity_720x720_round/debug/_ext/1965903633/le_gen_harmony.o
 *fill*         0x24a04915        0x3 
 .bss.string_Arrived
                0x24a04918       0x1c build/dsi_xlcdc_rgba8888_ws_9x75_curiosity_720x720_round/debug/_ext/1965903633/le_gen_stringtable.o
                0x24a04918                string_Arrived
 .bss.string_Instruction
                0x24a04934       0x1c build/dsi_xlcdc_rgba8888_ws_9x75_curiosity_720x720_round/debug/_ext/1965903633/le_gen_stringtable.o
                0x24a04934                string_Instruction
 .bss.string_Left
                0x24a04950       0x1c build/dsi_xlcdc_rgba8888_ws_9x75_curiosity_720x720_round/debug/_ext/1965903633/le_gen_stringtable.o
                0x24a04950                string_Left
 .bss.string_Right
                0x24a0496c       0x1c build/dsi_xlcdc_rgba8888_ws_9x75_curiosity_720x720_round/debug/_ext/1965903633/le_gen_stringtable.o
                0x24a0496c                string_Right
 .bss.string_Speed
                0x24a04988       0x1c build/dsi_xlcdc_rgba8888_ws_9x75_curiosity_720x720_round/debug/_ext/1965903633/le_gen_stringtable.o
                0x24a04988                string_Speed
 .bss.string_SpeedUnit
                0x24a049a4       0x1c build/dsi_xlcdc_rgba8888_ws_9x75_curiosity_720x720_round/debug/_ext/1965903633/le_gen_stringtable.o
                0x24a049a4                string_SpeedUnit
 .bss.string_Straight
                0x24a049c0       0x1c build/dsi_xlcdc_rgba8888_ws_9x75_curiosity_720x720_round/debug/_ext/1965903633/le_gen_stringtable.o
                0x24a049c0                string_Straight
 .bss.string_remainingTime
                0x24a049dc       0x1c build/dsi_xlcdc_rgba8888_ws_9x75_curiosity_720x720_round/debug/_ext/1965903633/le_gen_stringtable.o
                0x24a049dc                string_remainingTime
 .bss.changingToScreen
                0x24a049f8        0x4 build/dsi_xlcdc_rgba8888_ws_9x75_curiosity_720x720_round/debug/_ext/1965903633/le_gen_init.o
 .bss.currentScreen
                0x24a049fc        0x4 build/dsi_xlcdc_rgba8888_ws_9x75_curiosity_720x720_round/debug/_ext/1965903633/le_gen_init.o
 .bss.bBlock.5351
                0x24a04a00        0x1 build/dsi_xlcdc_rgba8888_ws_9x75_curiosity_720x720_round/debug/_ext/979623078/legato_imagedecoder_jpeg_common.o
 *fill*         0x24a04a01        0x3 
 .bss.psCb.5346
                0x24a04a04        0x4 build/dsi_xlcdc_rgba8888_ws_9x75_curiosity_720x720_round/debug/_ext/979623078/legato_imagedecoder_jpeg_common.o
 .bss.psCr.5347
                0x24a04a08        0x4 build/dsi_xlcdc_rgba8888_ws_9x75_curiosity_720x720_round/debug/_ext/979623078/legato_imagedecoder_jpeg_common.o
 .bss.psY.5345  0x24a04a0c        0x4 build/dsi_xlcdc_rgba8888_ws_9x75_curiosity_720x720_round/debug/_ext/979623078/legato_imagedecoder_jpeg_common.o
 .bss.s2.5349   0x24a04a10        0x4 build/dsi_xlcdc_rgba8888_ws_9x75_curiosity_720x720_round/debug/_ext/979623078/legato_imagedecoder_jpeg_common.o
 .bss.s3.5350   0x24a04a14        0x4 build/dsi_xlcdc_rgba8888_ws_9x75_curiosity_720x720_round/debug/_ext/979623078/legato_imagedecoder_jpeg_common.o
 .bss.shiftX.5358
                0x24a04a18        0x1 build/dsi_xlcdc_rgba8888_ws_9x75_curiosity_720x720_round/debug/_ext/979623078/legato_imagedecoder_jpeg_common.o
 .bss.shiftY.5359
                0x24a04a19        0x1 build/dsi_xlcdc_rgba8888_ws_9x75_curiosity_720x720_round/debug/_ext/979623078/legato_imagedecoder_jpeg_common.o
 .bss.wX.5338   0x24a04a1a        0x2 build/dsi_xlcdc_rgba8888_ws_9x75_curiosity_720x720_round/debug/_ext/979623078/legato_imagedecoder_jpeg_common.o
 .bss.wX2.5340  0x24a04a1c        0x2 build/dsi_xlcdc_rgba8888_ws_9x75_curiosity_720x720_round/debug/_ext/979623078/legato_imagedecoder_jpeg_common.o
 .bss.wXPos.5355
                0x24a04a1e        0x2 build/dsi_xlcdc_rgba8888_ws_9x75_curiosity_720x720_round/debug/_ext/979623078/legato_imagedecoder_jpeg_common.o
 .bss.wY.5339   0x24a04a20        0x2 build/dsi_xlcdc_rgba8888_ws_9x75_curiosity_720x720_round/debug/_ext/979623078/legato_imagedecoder_jpeg_common.o
 .bss.wYPos.5356
                0x24a04a22        0x2 build/dsi_xlcdc_rgba8888_ws_9x75_curiosity_720x720_round/debug/_ext/979623078/legato_imagedecoder_jpeg_common.o
 .bss.wYPos2.5357
                0x24a04a24        0x2 build/dsi_xlcdc_rgba8888_ws_9x75_curiosity_720x720_round/debug/_ext/979623078/legato_imagedecoder_jpeg_common.o
 *fill*         0x24a04a26        0x2 
 .bss.JPEG_JpegDecoder.7397
                0x24a04a28      0xa10 build/dsi_xlcdc_rgba8888_ws_9x75_curiosity_720x720_round/debug/_ext/979623078/legato_imagedecoder_jpeg.o
 .bss.JPEG_JpegDecoder.7414
                0x24a05438      0xa10 build/dsi_xlcdc_rgba8888_ws_9x75_curiosity_720x720_round/debug/_ext/979623078/legato_imagedecoder_jpeg.o
 *fill*         0x24a05e48       0x18 
 .bss.decoder   0x24a05e60       0x2c build/dsi_xlcdc_rgba8888_ws_9x75_curiosity_720x720_round/debug/_ext/979623078/legato_imagedecoder_jpeg.o
 .bss.whblocks.7393
                0x24a05e8c        0x2 build/dsi_xlcdc_rgba8888_ws_9x75_curiosity_720x720_round/debug/_ext/979623078/legato_imagedecoder_jpeg.o
 .bss.whblocks.7410
                0x24a05e8e        0x2 build/dsi_xlcdc_rgba8888_ws_9x75_curiosity_720x720_round/debug/_ext/979623078/legato_imagedecoder_jpeg.o
 .bss.wi.7395   0x24a05e90        0x2 build/dsi_xlcdc_rgba8888_ws_9x75_curiosity_720x720_round/debug/_ext/979623078/legato_imagedecoder_jpeg.o
 .bss.wi.7412   0x24a05e92        0x2 build/dsi_xlcdc_rgba8888_ws_9x75_curiosity_720x720_round/debug/_ext/979623078/legato_imagedecoder_jpeg.o
 .bss.wj.7396   0x24a05e94        0x2 build/dsi_xlcdc_rgba8888_ws_9x75_curiosity_720x720_round/debug/_ext/979623078/legato_imagedecoder_jpeg.o
 .bss.wj.7413   0x24a05e96        0x2 build/dsi_xlcdc_rgba8888_ws_9x75_curiosity_720x720_round/debug/_ext/979623078/legato_imagedecoder_jpeg.o
 .bss.wvblocks.7394
                0x24a05e98        0x2 build/dsi_xlcdc_rgba8888_ws_9x75_curiosity_720x720_round/debug/_ext/979623078/legato_imagedecoder_jpeg.o
 .bss.wvblocks.7411
                0x24a05e9a        0x2 build/dsi_xlcdc_rgba8888_ws_9x75_curiosity_720x720_round/debug/_ext/979623078/legato_imagedecoder_jpeg.o
 *fill*         0x24a05e9c        0x4 
 .bss.internalReadStage
                0x24a05ea0        0xc build/dsi_xlcdc_rgba8888_ws_9x75_curiosity_720x720_round/debug/_ext/979534379/legato_imagedecoder_mono_read_internal.o
 *fill*         0x24a05eac       0x14 
 .bss._decoder  0x24a05ec0       0x2c build/dsi_xlcdc_rgba8888_ws_9x75_curiosity_720x720_round/debug/_ext/979534379/legato_imagedecoder_mono.o
 *fill*         0x24a05eec       0x14 
 .bss._state    0x24a05f00       0xc8 build/dsi_xlcdc_rgba8888_ws_9x75_curiosity_720x720_round/debug/_ext/979534379/legato_imagedecoder_mono.o
 .bss.frameBufferWriteStage
                0x24a05fc8        0xc build/dsi_xlcdc_rgba8888_ws_9x75_curiosity_720x720_round/debug/_ext/979534379/legato_imagedecoder_mono.o
 .bss.imageWriteStage
                0x24a05fd4        0xc build/dsi_xlcdc_rgba8888_ws_9x75_curiosity_720x720_round/debug/_ext/979534379/legato_imagedecoder_mono.o
 .bss.setupStage
                0x24a05fe0        0xc build/dsi_xlcdc_rgba8888_ws_9x75_curiosity_720x720_round/debug/_ext/979534379/legato_imagedecoder_mono.o
 *fill*         0x24a05fec       0x14 
 .bss.decodedImage
                0x24a06000       0x3c build/dsi_xlcdc_rgba8888_ws_9x75_curiosity_720x720_round/debug/_ext/799688951/legato_imagedecoder_png.o
 *fill*         0x24a0603c        0x4 
 .bss.decoder   0x24a06040       0x2c build/dsi_xlcdc_rgba8888_ws_9x75_curiosity_720x720_round/debug/_ext/799688951/legato_imagedecoder_png.o
 *fill*         0x24a0606c       0x14 
 .bss.convertStage
                0x24a06080       0x10 build/dsi_xlcdc_rgba8888_ws_9x75_curiosity_720x720_round/debug/_ext/799690486/legato_imagedecoder_raw_convert.o
 .bss.frameBufferWriteStage
                0x24a06090        0xc build/dsi_xlcdc_rgba8888_ws_9x75_curiosity_720x720_round/debug/_ext/799690486/legato_imagedecoder_raw_write.o
 .bss.imageWriteStage
                0x24a0609c        0xc build/dsi_xlcdc_rgba8888_ws_9x75_curiosity_720x720_round/debug/_ext/799690486/legato_imagedecoder_raw_write.o
 *fill*         0x24a060a8       0x18 
 .bss.internalReadStage
                0x24a060c0       0x20 build/dsi_xlcdc_rgba8888_ws_9x75_curiosity_720x720_round/debug/_ext/799690486/legato_imagedecoder_raw_read_internal.o
 .bss.postReadStage
                0x24a060e0        0xc build/dsi_xlcdc_rgba8888_ws_9x75_curiosity_720x720_round/debug/_ext/799690486/legato_imagedecoder_raw_scale.o
 .bss.scaledBilinearPostReadStage
                0x24a060ec        0xc build/dsi_xlcdc_rgba8888_ws_9x75_curiosity_720x720_round/debug/_ext/799690486/legato_imagedecoder_raw_scale.o
 .bss.scaledBilinearPreReadStage
                0x24a060f8       0x1c build/dsi_xlcdc_rgba8888_ws_9x75_curiosity_720x720_round/debug/_ext/799690486/legato_imagedecoder_raw_scale.o
 .bss.scaledNearestNeighborPreReadStage
                0x24a06114       0x14 build/dsi_xlcdc_rgba8888_ws_9x75_curiosity_720x720_round/debug/_ext/799690486/legato_imagedecoder_raw_scale.o
 .bss.maskStage
                0x24a06128        0xc build/dsi_xlcdc_rgba8888_ws_9x75_curiosity_720x720_round/debug/_ext/799690486/legato_imagedecoder_raw_mask.o
                0x24a06128                maskStage
 *fill*         0x24a06134        0xc 
 .bss.blendStage
                0x24a06140        0xc build/dsi_xlcdc_rgba8888_ws_9x75_curiosity_720x720_round/debug/_ext/799690486/legato_imagedecoder_raw_blend.o
 *fill*         0x24a0614c       0x14 
 .bss._decoder  0x24a06160       0x2c build/dsi_xlcdc_rgba8888_ws_9x75_curiosity_720x720_round/debug/_ext/799690486/legato_imagedecoder_raw.o
 *fill*         0x24a0618c       0x14 
 .bss._state    0x24a061a0       0xf4 build/dsi_xlcdc_rgba8888_ws_9x75_curiosity_720x720_round/debug/_ext/799690486/legato_imagedecoder_raw.o
 .bss.setupStage
                0x24a06294        0xc build/dsi_xlcdc_rgba8888_ws_9x75_curiosity_720x720_round/debug/_ext/799690486/legato_imagedecoder_raw_setup.o
 .bss.lePoint_Zero
                0x24a062a0        0x8 build/dsi_xlcdc_rgba8888_ws_9x75_curiosity_720x720_round/debug/_ext/799690486/legato_imagedecoder_raw_rotate.o
 .bss.rotateBilinearPostReadStage
                0x24a062a8        0xc build/dsi_xlcdc_rgba8888_ws_9x75_curiosity_720x720_round/debug/_ext/799690486/legato_imagedecoder_raw_rotate.o
 .bss.rotateBilinearPreReadStage
                0x24a062b4       0x14 build/dsi_xlcdc_rgba8888_ws_9x75_curiosity_720x720_round/debug/_ext/799690486/legato_imagedecoder_raw_rotate.o
 .bss.rotateNearestNeighborPreReadStage
                0x24a062c8        0xc build/dsi_xlcdc_rgba8888_ws_9x75_curiosity_720x720_round/debug/_ext/799690486/legato_imagedecoder_raw_rotate.o
 .bss.imageRenderPostLookupStage
                0x24a062d4        0xc build/dsi_xlcdc_rgba8888_ws_9x75_curiosity_720x720_round/debug/_ext/799690486/legato_imagedecoder_raw_palette_internal.o
 .bss.paletteStage
                0x24a062e0       0x14 build/dsi_xlcdc_rgba8888_ws_9x75_curiosity_720x720_round/debug/_ext/799690486/legato_imagedecoder_raw_palette_internal.o
 .bss.decoders  0x24a062f4       0x28 build/dsi_xlcdc_rgba8888_ws_9x75_curiosity_720x720_round/debug/_ext/1664643037/legato_image.o
 *fill*         0x24a0631c        0x4 
 .bss.fixedHeap128
                0x24a06320     0x1000 build/dsi_xlcdc_rgba8888_ws_9x75_curiosity_720x720_round/debug/_ext/171820735/legato_memory.o
 .bss.fixedHeap16
                0x24a07320     0x12c0 build/dsi_xlcdc_rgba8888_ws_9x75_curiosity_720x720_round/debug/_ext/171820735/legato_memory.o
 .bss.fixedHeap196
                0x24a085e0     0x24c0 build/dsi_xlcdc_rgba8888_ws_9x75_curiosity_720x720_round/debug/_ext/171820735/legato_memory.o
 .bss.fixedHeap256
                0x24a0aaa0     0x1800 build/dsi_xlcdc_rgba8888_ws_9x75_curiosity_720x720_round/debug/_ext/171820735/legato_memory.o
 .bss.fixedHeap32
                0x24a0c2a0      0xc00 build/dsi_xlcdc_rgba8888_ws_9x75_curiosity_720x720_round/debug/_ext/171820735/legato_memory.o
 .bss.fixedHeap64
                0x24a0cea0     0x1800 build/dsi_xlcdc_rgba8888_ws_9x75_curiosity_720x720_round/debug/_ext/171820735/legato_memory.o
 .bss.fixedHeaps
                0x24a0e6a0       0xe0 build/dsi_xlcdc_rgba8888_ws_9x75_curiosity_720x720_round/debug/_ext/171820735/legato_memory.o
 .bss.variableHeap
                0x24a0e780       0x24 build/dsi_xlcdc_rgba8888_ws_9x75_curiosity_720x720_round/debug/_ext/171820735/legato_memory.o
 *fill*         0x24a0e7a4       0x1c 
 .bss.variableHeapData
                0x24a0e7c0    0x40000 build/dsi_xlcdc_rgba8888_ws_9x75_curiosity_720x720_round/debug/_ext/171820735/legato_memory.o
 .bss._alphaColorMode
                0x24a4e7c0        0x1 build/dsi_xlcdc_rgba8888_ws_9x75_curiosity_720x720_round/debug/_ext/2053165825/legato_draw.o
 .bss._currentMode
                0x24a4e7c1        0x1 build/dsi_xlcdc_rgba8888_ws_9x75_curiosity_720x720_round/debug/_ext/2053165825/legato_draw.o
 *fill*         0x24a4e7c2        0x2 
 .bss._drawFunction
                0x24a4e7c4       0x10 build/dsi_xlcdc_rgba8888_ws_9x75_curiosity_720x720_round/debug/_ext/2053165825/legato_draw.o
 .bss._rendererState
                0x24a4e7d4       0x48 build/dsi_xlcdc_rgba8888_ws_9x75_curiosity_720x720_round/debug/_ext/2053165825/legato_renderer.o
                0x24a4e7d4                _rendererState
 *fill*         0x24a4e81c        0x4 
 .bss._scratchBuffers
                0x24a4e820       0x3c build/dsi_xlcdc_rgba8888_ws_9x75_curiosity_720x720_round/debug/_ext/2053165825/legato_renderer.o
 .bss._state    0x24a4e85c        0x4 build/dsi_xlcdc_rgba8888_ws_9x75_curiosity_720x720_round/debug/_ext/2053165825/legato_renderer.o
 .bss.maxScratchPixels
                0x24a4e860        0x4 build/dsi_xlcdc_rgba8888_ws_9x75_curiosity_720x720_round/debug/_ext/2053165825/legato_renderer.o
 .bss.leRect_Zero
                0x24a4e864        0x8 build/dsi_xlcdc_rgba8888_ws_9x75_curiosity_720x720_round/debug/_ext/1591588594/legato_widget_image_skin_classic.o
 .bss.paintState
                0x24a4e86c        0x4 build/dsi_xlcdc_rgba8888_ws_9x75_curiosity_720x720_round/debug/_ext/1591588594/legato_widget_image_skin_classic.o
 .bss.leRect_Zero
                0x24a4e870        0x8 build/dsi_xlcdc_rgba8888_ws_9x75_curiosity_720x720_round/debug/_ext/1589174617/legato_widget_label_skin_classic.o
 .bss.paintState
                0x24a4e878        0x4 build/dsi_xlcdc_rgba8888_ws_9x75_curiosity_720x720_round/debug/_ext/1589174617/legato_widget_label_skin_classic.o
 .bss.paintState
                0x24a4e87c        0x4 build/dsi_xlcdc_rgba8888_ws_9x75_curiosity_720x720_round/debug/_ext/461530114/legato_widget_skin_classic.o
 .bss.flexcom6TwiObj
                0x24a4e880       0x28 build/dsi_xlcdc_rgba8888_ws_9x75_curiosity_720x720_round/debug/_ext/545877704/plib_flexcom6_twi_master.o
 *fill*         0x24a4e8a8       0x58 
 .bss.rb        0x24a4e900      0x200 build/dsi_xlcdc_rgba8888_ws_9x75_curiosity_720x720_round/debug/_ext/786409605/plib_gfx2d.o
                0x24a4e900                rb
 *fill*         0x24a4eb00     0x1500 
 .bss.trns_tbl  0x24a50000     0x4000 build/dsi_xlcdc_rgba8888_ws_9x75_curiosity_720x720_round/debug/_ext/1886855727/plib_mmu.o
 .bss.rtt       0x24a54000        0x8 build/dsi_xlcdc_rgba8888_ws_9x75_curiosity_720x720_round/debug/_ext/1886860748/plib_rtt.o
 .bss.TC1_CH0_CallbackObj
                0x24a54008        0x8 build/dsi_xlcdc_rgba8888_ws_9x75_curiosity_720x720_round/debug/_ext/60866517/plib_tc1.o
 .bss.TC1_CH1_CallbackObj
                0x24a54010        0x8 build/dsi_xlcdc_rgba8888_ws_9x75_curiosity_720x720_round/debug/_ext/60866517/plib_tc1.o
 .bss.eventCount
                0x24a54018        0x4 build/dsi_xlcdc_rgba8888_ws_9x75_curiosity_720x720_round/debug/_ext/1949213289/sys_input.o
                0x24a54018                eventCount
 .bss.generalEvents
                0x24a5401c      0x200 build/dsi_xlcdc_rgba8888_ws_9x75_curiosity_720x720_round/debug/_ext/1949213289/sys_input.o
                0x24a5401c                generalEvents
 .bss.listenerFlags
                0x24a5421c        0x2 build/dsi_xlcdc_rgba8888_ws_9x75_curiosity_720x720_round/debug/_ext/1949213289/sys_input.o
                0x24a5421c                listenerFlags
 *fill*         0x24a5421e        0x2 
 .bss.listeners
                0x24a54220       0x68 build/dsi_xlcdc_rgba8888_ws_9x75_curiosity_720x720_round/debug/_ext/1949213289/sys_input.o
                0x24a54220                listeners
 .bss.gSystemCounterObj
                0x24a54288       0x40 build/dsi_xlcdc_rgba8888_ws_9x75_curiosity_720x720_round/debug/_ext/690637493/sys_time.o
 .bss.timers    0x24a542c8       0xa0 build/dsi_xlcdc_rgba8888_ws_9x75_curiosity_720x720_round/debug/_ext/690637493/sys_time.o
 .bss.spuriousEventCount.12556
                0x24a54368        0x4 build/dsi_xlcdc_rgba8888_ws_9x75_curiosity_720x720_round/debug/_ext/1295507646/interrupts.o
 .bss.drvI2C0ClientObjPool
                0x24a5436c       0x30 build/dsi_xlcdc_rgba8888_ws_9x75_curiosity_720x720_round/debug/_ext/1295507646/initialization.o
 .bss.drvI2C0TransferObj
                0x24a5439c       0x58 build/dsi_xlcdc_rgba8888_ws_9x75_curiosity_720x720_round/debug/_ext/1295507646/initialization.o
 .bss.sysObj    0x24a543f4        0x8 build/dsi_xlcdc_rgba8888_ws_9x75_curiosity_720x720_round/debug/_ext/1295507646/initialization.o
                0x24a543f4                sysObj
 .bss.appData   0x24a543fc        0x2 build/dsi_xlcdc_rgba8888_ws_9x75_curiosity_720x720_round/debug/_ext/1360937237/app.o
                0x24a543fc                appData
 .bss.blur_alpha_high
                0x24a543fe        0x1 build/dsi_xlcdc_rgba8888_ws_9x75_curiosity_720x720_round/debug/_ext/1360937237/app.o
 *fill*         0x24a543ff        0x1 
 .bss.p_legatoSpeedBuff
                0x24a54400        0x6 build/dsi_xlcdc_rgba8888_ws_9x75_curiosity_720x720_round/debug/_ext/1360937237/app.o
 *fill*         0x24a54406        0x2 
 .bss.p_speedcharbuff
                0x24a54408        0x3 build/dsi_xlcdc_rgba8888_ws_9x75_curiosity_720x720_round/debug/_ext/1360937237/app.o
 *fill*         0x24a5440b        0x1 
 .bss.p_speedstring
                0x24a5440c       0x24 build/dsi_xlcdc_rgba8888_ws_9x75_curiosity_720x720_round/debug/_ext/1360937237/app.o
                0x24a5440c                p_speedstring
 .bss.prev_sec_tick
                0x24a54430        0x4 build/dsi_xlcdc_rgba8888_ws_9x75_curiosity_720x720_round/debug/_ext/1360937237/app.o
 .bss.prev_tick
                0x24a54434        0x4 build/dsi_xlcdc_rgba8888_ws_9x75_curiosity_720x720_round/debug/_ext/1360937237/app.o
 .bss.sec2.10998
                0x24a54438        0x1 build/dsi_xlcdc_rgba8888_ws_9x75_curiosity_720x720_round/debug/_ext/1360937237/app.o
 *fill*         0x24a54439        0x3 
 .bss.sec_tick  0x24a5443c        0x4 build/dsi_xlcdc_rgba8888_ws_9x75_curiosity_720x720_round/debug/_ext/1360937237/app.o
 .bss.speedoNeedles
                0x24a54440      0x5ac build/dsi_xlcdc_rgba8888_ws_9x75_curiosity_720x720_round/debug/_ext/1360937237/app.o
                0x24a54440                speedoNeedles
 .bss.tick      0x24a549ec        0x4 build/dsi_xlcdc_rgba8888_ws_9x75_curiosity_720x720_round/debug/_ext/1360937237/app.o
 .bss.ANIME_CNTR
                0x24a549f0        0x1 build/dsi_xlcdc_rgba8888_ws_9x75_curiosity_720x720_round/debug/_ext/1360937237/app_drive.o
                0x24a549f0                ANIME_CNTR
 .bss.MAP_CNTR  0x24a549f1        0x1 build/dsi_xlcdc_rgba8888_ws_9x75_curiosity_720x720_round/debug/_ext/1360937237/app_drive.o
                0x24a549f1                MAP_CNTR
 *fill*         0x24a549f2        0x2 
 .bss.a         0x24a549f4        0x4 build/dsi_xlcdc_rgba8888_ws_9x75_curiosity_720x720_round/debug/_ext/1360937237/app_drive.o
                0x24a549f4                a
 .bss.animeIndex
                0x24a549f8        0x1 build/dsi_xlcdc_rgba8888_ws_9x75_curiosity_720x720_round/debug/_ext/1360937237/app_drive.o
                0x24a549f8                animeIndex
 *fill*         0x24a549f9        0x3 
 .bss.app_inputListener
                0x24a549fc       0x34 build/dsi_xlcdc_rgba8888_ws_9x75_curiosity_720x720_round/debug/_ext/1360937237/app_drive.o
 .bss.b         0x24a54a30        0x4 build/dsi_xlcdc_rgba8888_ws_9x75_curiosity_720x720_round/debug/_ext/1360937237/app_drive.o
                0x24a54a30                b
 .bss.c         0x24a54a34        0x4 build/dsi_xlcdc_rgba8888_ws_9x75_curiosity_720x720_round/debug/_ext/1360937237/app_drive.o
                0x24a54a34                c
 .bss.currentLocation
                0x24a54a38       0x10 build/dsi_xlcdc_rgba8888_ws_9x75_curiosity_720x720_round/debug/_ext/1360937237/app_drive.o
                0x24a54a38                currentLocation
 .bss.directionStatus
                0x24a54a48        0x1 build/dsi_xlcdc_rgba8888_ws_9x75_curiosity_720x720_round/debug/_ext/1360937237/app_drive.o
                0x24a54a48                directionStatus
 *fill*         0x24a54a49        0x3 
 .bss.lastX     0x24a54a4c        0x4 build/dsi_xlcdc_rgba8888_ws_9x75_curiosity_720x720_round/debug/_ext/1360937237/app_drive.o
 .bss.lastY     0x24a54a50        0x4 build/dsi_xlcdc_rgba8888_ws_9x75_curiosity_720x720_round/debug/_ext/1360937237/app_drive.o
 .bss.mapIndex  0x24a54a54        0x1 build/dsi_xlcdc_rgba8888_ws_9x75_curiosity_720x720_round/debug/_ext/1360937237/app_drive.o
                0x24a54a54                mapIndex
 .bss.needleIndex
                0x24a54a55        0x1 build/dsi_xlcdc_rgba8888_ws_9x75_curiosity_720x720_round/debug/_ext/1360937237/app_drive.o
                0x24a54a55                needleIndex
 *fill*         0x24a54a56        0x2 
 .bss.p_distTravlstring
                0x24a54a58       0x24 build/dsi_xlcdc_rgba8888_ws_9x75_curiosity_720x720_round/debug/_ext/1360937237/app_drive.o
                0x24a54a58                p_distTravlstring
 .bss.p_distTrvlcharbuff
                0x24a54a7c        0x4 build/dsi_xlcdc_rgba8888_ws_9x75_curiosity_720x720_round/debug/_ext/1360937237/app_drive.o
 .bss.p_distcharbuff
                0x24a54a80        0x6 build/dsi_xlcdc_rgba8888_ws_9x75_curiosity_720x720_round/debug/_ext/1360937237/app_drive.o
 *fill*         0x24a54a86        0x2 
 .bss.p_diststring
                0x24a54a88       0x24 build/dsi_xlcdc_rgba8888_ws_9x75_curiosity_720x720_round/debug/_ext/1360937237/app_drive.o
                0x24a54a88                p_diststring
 .bss.p_legatoDistBuff
                0x24a54aac        0xc build/dsi_xlcdc_rgba8888_ws_9x75_curiosity_720x720_round/debug/_ext/1360937237/app_drive.o
 .bss.p_legatoDistTravlBuff
                0x24a54ab8        0x8 build/dsi_xlcdc_rgba8888_ws_9x75_curiosity_720x720_round/debug/_ext/1360937237/app_drive.o
 .bss.req_speed
                0x24a54ac0        0x1 build/dsi_xlcdc_rgba8888_ws_9x75_curiosity_720x720_round/debug/_ext/1360937237/app_drive.o
                0x24a54ac0                req_speed
 *fill*         0x24a54ac1        0x3 
 .bss.t         0x24a54ac4        0x4 build/dsi_xlcdc_rgba8888_ws_9x75_curiosity_720x720_round/debug/_ext/1360937237/app_drive.o
                0x24a54ac4                t
 .bss.travlDist
                0x24a54ac8        0x4 build/dsi_xlcdc_rgba8888_ws_9x75_curiosity_720x720_round/debug/_ext/1360937237/app_drive.o
                0x24a54ac8                travlDist
 .bss           0x24a54acc       0x50 c:/program files/microchip/xc32/v4.35/bin/bin/../../lib/gcc/pic32c/8.3.1/../../../../pic32c/lib/arm/v5te/nofp\libg-musl.a(libc.o)
                0x24a54acc                __progname_full
                0x24a54acc                program_invocation_name
                0x24a54ad0                program_invocation_short_name
                0x24a54ad0                __progname
                0x24a54ad4                __sysinfo
                0x24a54ad8                __hwcap
                0x24a54adc                __libc
 .bss           0x24a54b1c      0x408 c:/program files/microchip/xc32/v4.35/bin/bin/../../lib/gcc/pic32c/8.3.1/../../../../pic32c/lib/arm/v5te/nofp\libg-musl.a(stdin.o)
 .bss           0x24a54f24        0x8 c:/program files/microchip/xc32/v4.35/bin/bin/../../lib/gcc/pic32c/8.3.1/../../../../pic32c/lib/arm/v5te/nofp\libg-musl.a(stdout.o)
                0x24a54f28                __stdout_used
 .bss           0x24a54f2c        0x4 c:/program files/microchip/xc32/v4.35/bin/bin/../../lib/gcc/pic32c/8.3.1/../../../../pic32c/lib/arm/v5te/nofp\libg-musl.a(__environ.o)
                0x24a54f2c                __environ
                0x24a54f2c                environ
                0x24a54f2c                ___environ
                0x24a54f2c                _environ
 .bss           0x24a54f30        0x4 c:/program files/microchip/xc32/v4.35/bin/bin/../../lib/gcc/pic32c/8.3.1/../../../../pic32c/lib/arm/v5te/nofp\libg-musl.a(__errno_location.o)
                0x24a54f30                __errno_val
 *fill*         0x24a54f34        0x4 
 .bss           0x24a54f38      0x20c c:/program files/microchip/xc32/v4.35/bin/bin/../../lib/gcc/pic32c/8.3.1/../../../../pic32c/lib/arm/v5te/nofp\libg-musl.a(malloc.o)
 .bss           0x24a55144        0x4 c:/program files/microchip/xc32/v4.35/bin/bin/../../lib/gcc/pic32c/8.3.1/../../../../pic32c/lib/arm/v5te/nofp\libpic32c.a(sbrk.o)
 *(COMMON)
                0x24a55148                . = ALIGN (0x4)
                0x24a55148                PROVIDE (_ezero = .)

.region_cache_aligned
                0x24a55148       0x18
                0x24a55160                . = ALIGN (0x20)
 *fill*         0x24a55148       0x18 
 *(.region_cache_aligned .region_cache_aligned.*)
                0x24a55160                . = ALIGN (0x20)

.stacks         0x24a55160     0x2140
                0x24a551c0                . = (. + IRQ_STACK_SIZE)
 *fill*         0x24a55160       0x60 
                0x24a551c0                . = ALIGN (0x8)
                0x24a551c0                _irqstack = .
                0x24a55220                . = (. + FIQ_STACK_SIZE)
 *fill*         0x24a551c0       0x60 
                0x24a55220                . = ALIGN (0x8)
                0x24a55220                _fiqstack = .
                0x24a55260                . = (. + ABT_STACK_SIZE)
 *fill*         0x24a55220       0x40 
                0x24a55260                . = ALIGN (0x8)
                0x24a55260                _abtstack = .
                0x24a552a0                . = (. + UND_STACK_SIZE)
 *fill*         0x24a55260       0x40 
                0x24a552a0                . = ALIGN (0x8)
                0x24a552a0                _undstack = .
                0x24a562a0                . = (. + SVC_STACK_SIZE)
 *fill*         0x24a552a0     0x1000 
                0x24a562a0                . = ALIGN (0x8)
                0x24a562a0                _svcstack = .
                0x24a572a0                . = (. + C_STACK_SIZE)
 *fill*         0x24a562a0     0x1000 
                0x24a572a0                . = ALIGN (0x8)
                0x24a572a0                _cstack = .
                0x24a572a0                _end = .
                0x24a572a0                _ramcode_lma = _end

.ramcode        0x0030003c        0x0 load address 0x24a572a0
                0x0030003c                _sramcode = .
 *(.ramcode_section .ramcode_section.*)
                0x0030003c                _eramcode = .
                0x24a572a0                _ramdata_lma = ((_end + _eramcode) - _sramcode)

.ramdata        0x0030003c        0x0 load address 0x24a572a0
                0x0030003c                _sramdata = .
 *(.ramdata_section .ramdata_section.*)
                0x0030003c                _eramdata = .
                0x00000001                __ICD2RAM = 0x1
                0x00000001                __MPLAB_DEBUG = 0x1
                0x00000001                __DEBUG = 0x1
                0x00000200                _min_heap_size = 0x200
START GROUP
LOAD c:/program files/microchip/xc32/v4.35/bin/bin/../../lib/gcc/pic32c/8.3.1/../../../../pic32c/lib/arm/v5te/nofp\libpic32c.a
LOAD c:/program files/microchip/xc32/v4.35/bin/bin/../../lib/gcc/pic32c/8.3.1/arm/v5te/nofp\libgcc.a
LOAD c:/program files/microchip/xc32/v4.35/bin/bin/../../lib/gcc/pic32c/8.3.1/../../../../pic32c/lib/arm/v5te/nofp\libm-musl.a
LOAD c:/program files/microchip/xc32/v4.35/bin/bin/../../lib/gcc/pic32c/8.3.1/../../../../pic32c/lib/arm/v5te/nofp\libg-musl.a
LOAD c:/program files/microchip/xc32/v4.35/bin/bin/../../lib/gcc/pic32c/8.3.1/../../../../pic32c/lib/arm/v5te/nofp\libc-musl.a
LOAD c:/program files/microchip/xc32/v4.35/bin/bin/../../lib/gcc/pic32c/8.3.1/../../../../pic32c/lib/arm/v5te/nofp\libm-musl.a
END GROUP
LOAD c:/program files/microchip/xc32/v4.35/bin/bin/../../lib/gcc/pic32c/8.3.1/arm/v5te/nofp/crtend.o
LOAD c:/program files/microchip/xc32/v4.35/bin/bin/../../lib/gcc/pic32c/8.3.1/arm/v5te/nofp/crtn.o
OUTPUT(dist/dsi_xlcdc_rgba8888_ws_9x75_curiosity_720x720_round/debug/legato_db_9x75_curiosity_ws_4inch_round.X.debug.elf elf32-littlearm)
LOAD stack

.ARM.attributes
                0x00000000       0x2a
 .ARM.attributes
                0x00000000       0x1d c:/program files/microchip/xc32/v4.35/bin/bin/../../lib/gcc/pic32c/8.3.1/arm/v5te/nofp/crti.o
 .ARM.attributes
                0x0000001d       0x2b c:/program files/microchip/xc32/v4.35/bin/bin/../../lib/gcc/pic32c/8.3.1/arm/v5te/nofp/crtbegin.o
 .ARM.attributes
                0x00000048       0x2c build/dsi_xlcdc_rgba8888_ws_9x75_curiosity_720x720_round/debug/_ext/1985065589/drv_i2c.o
 .ARM.attributes
                0x00000074       0x2c build/dsi_xlcdc_rgba8888_ws_9x75_curiosity_720x720_round/debug/_ext/2010836581/gfx_canvas_api.o
 .ARM.attributes
                0x000000a0       0x2c build/dsi_xlcdc_rgba8888_ws_9x75_curiosity_720x720_round/debug/_ext/2010836581/gfx_canvas.o
 .ARM.attributes
                0x000000cc       0x2c build/dsi_xlcdc_rgba8888_ws_9x75_curiosity_720x720_round/debug/_ext/1085405985/ws_touch_display.o
 .ARM.attributes
                0x000000f8       0x2c build/dsi_xlcdc_rgba8888_ws_9x75_curiosity_720x720_round/debug/_ext/219820618/drv_gfx2d.o
 .ARM.attributes
                0x00000124       0x2c build/dsi_xlcdc_rgba8888_ws_9x75_curiosity_720x720_round/debug/_ext/1247915868/plib_dsi.o
 .ARM.attributes
                0x00000150       0x2c build/dsi_xlcdc_rgba8888_ws_9x75_curiosity_720x720_round/debug/_ext/225302149/plib_xlcdc.o
 .ARM.attributes
                0x0000017c       0x2c build/dsi_xlcdc_rgba8888_ws_9x75_curiosity_720x720_round/debug/_ext/505007713/drv_gfx_xlcdc.o
 .ARM.attributes
                0x000001a8       0x2c build/dsi_xlcdc_rgba8888_ws_9x75_curiosity_720x720_round/debug/_ext/1966656405/gfx_driver.o
 .ARM.attributes
                0x000001d4       0x2c build/dsi_xlcdc_rgba8888_ws_9x75_curiosity_720x720_round/debug/_ext/105237591/legato_math.o
 .ARM.attributes
                0x00000200       0x2c build/dsi_xlcdc_rgba8888_ws_9x75_curiosity_720x720_round/debug/_ext/105237591/legato_rect.o
 .ARM.attributes
                0x0000022c       0x2c build/dsi_xlcdc_rgba8888_ws_9x75_curiosity_720x720_round/debug/_ext/105237591/legato_utils.o
 .ARM.attributes
                0x00000258       0x2c build/dsi_xlcdc_rgba8888_ws_9x75_curiosity_720x720_round/debug/_ext/105237591/legato_color_blend.o
 .ARM.attributes
                0x00000284       0x2c build/dsi_xlcdc_rgba8888_ws_9x75_curiosity_720x720_round/debug/_ext/105237591/legato_color.o
 .ARM.attributes
                0x000002b0       0x2c build/dsi_xlcdc_rgba8888_ws_9x75_curiosity_720x720_round/debug/_ext/105237591/legato_color_lerp.o
 .ARM.attributes
                0x000002dc       0x2c build/dsi_xlcdc_rgba8888_ws_9x75_curiosity_720x720_round/debug/_ext/105237591/legato_pixelbuffer.o
 .ARM.attributes
                0x00000308       0x2c build/dsi_xlcdc_rgba8888_ws_9x75_curiosity_720x720_round/debug/_ext/105237591/legato_color_convert.o
 .ARM.attributes
                0x00000334       0x2c build/dsi_xlcdc_rgba8888_ws_9x75_curiosity_720x720_round/debug/_ext/884805853/legato_event.o
 .ARM.attributes
                0x00000360       0x2c build/dsi_xlcdc_rgba8888_ws_9x75_curiosity_720x720_round/debug/_ext/884805853/legato_scheme.o
 .ARM.attributes
                0x0000038c       0x2c build/dsi_xlcdc_rgba8888_ws_9x75_curiosity_720x720_round/debug/_ext/884805853/legato_input.o
 .ARM.attributes
                0x000003b8       0x2c build/dsi_xlcdc_rgba8888_ws_9x75_curiosity_720x720_round/debug/_ext/884805853/legato_state.o
 .ARM.attributes
                0x000003e4       0x2c build/dsi_xlcdc_rgba8888_ws_9x75_curiosity_720x720_round/debug/_ext/778592651/legato_array.o
 .ARM.attributes
                0x00000410       0x2c build/dsi_xlcdc_rgba8888_ws_9x75_curiosity_720x720_round/debug/_ext/778592651/legato_rectarray.o
 .ARM.attributes
                0x0000043c       0x2c build/dsi_xlcdc_rgba8888_ws_9x75_curiosity_720x720_round/debug/_ext/778592651/legato_list.o
 .ARM.attributes
                0x00000468       0x2c build/dsi_xlcdc_rgba8888_ws_9x75_curiosity_720x720_round/debug/_ext/884895117/legato_font.o
 .ARM.attributes
                0x00000494       0x32 build/dsi_xlcdc_rgba8888_ws_9x75_curiosity_720x720_round/debug/_ext/1382756211/le_gen_fonts.o
 .ARM.attributes
                0x000004c6       0x32 build/dsi_xlcdc_rgba8888_ws_9x75_curiosity_720x720_round/debug/_ext/86928605/le_gen_images.o
 .ARM.attributes
                0x000004f8       0x2c build/dsi_xlcdc_rgba8888_ws_9x75_curiosity_720x720_round/debug/_ext/1322619606/le_gen_screen_Screen0.o
 .ARM.attributes
                0x00000524       0x32 build/dsi_xlcdc_rgba8888_ws_9x75_curiosity_720x720_round/debug/_ext/1965903633/le_gen_globalpalette.o
 .ARM.attributes
                0x00000556       0x2c build/dsi_xlcdc_rgba8888_ws_9x75_curiosity_720x720_round/debug/_ext/1965903633/le_gen_harmony.o
 .ARM.attributes
                0x00000582       0x32 build/dsi_xlcdc_rgba8888_ws_9x75_curiosity_720x720_round/debug/_ext/1965903633/le_gen_scheme.o
 .ARM.attributes
                0x000005b4       0x2c build/dsi_xlcdc_rgba8888_ws_9x75_curiosity_720x720_round/debug/_ext/1965903633/le_gen_stringtable.o
 .ARM.attributes
                0x000005e0       0x2c build/dsi_xlcdc_rgba8888_ws_9x75_curiosity_720x720_round/debug/_ext/1965903633/le_gen_init.o
 .ARM.attributes
                0x0000060c       0x2c build/dsi_xlcdc_rgba8888_ws_9x75_curiosity_720x720_round/debug/_ext/979623078/legato_imagedecoder_jpeg_common.o
 .ARM.attributes
                0x00000638       0x2c build/dsi_xlcdc_rgba8888_ws_9x75_curiosity_720x720_round/debug/_ext/979623078/jidctint.o
 .ARM.attributes
                0x00000664       0x2c build/dsi_xlcdc_rgba8888_ws_9x75_curiosity_720x720_round/debug/_ext/979623078/legato_imagedecoder_jpeg.o
 .ARM.attributes
                0x00000690       0x2c build/dsi_xlcdc_rgba8888_ws_9x75_curiosity_720x720_round/debug/_ext/979534379/legato_imagedecoder_mono_read_internal.o
 .ARM.attributes
                0x000006bc       0x2c build/dsi_xlcdc_rgba8888_ws_9x75_curiosity_720x720_round/debug/_ext/979534379/legato_imagedecoder_mono.o
 .ARM.attributes
                0x000006e8       0x2c build/dsi_xlcdc_rgba8888_ws_9x75_curiosity_720x720_round/debug/_ext/799688951/legato_imagedecoder_png.o
 .ARM.attributes
                0x00000714       0x2c build/dsi_xlcdc_rgba8888_ws_9x75_curiosity_720x720_round/debug/_ext/799688951/lodepng.o
 .ARM.attributes
                0x00000740       0x2c build/dsi_xlcdc_rgba8888_ws_9x75_curiosity_720x720_round/debug/_ext/799690486/legato_imagedecoder_raw_convert.o
 .ARM.attributes
                0x0000076c       0x2c build/dsi_xlcdc_rgba8888_ws_9x75_curiosity_720x720_round/debug/_ext/799690486/legato_imagedecoder_raw_write.o
 .ARM.attributes
                0x00000798       0x2c build/dsi_xlcdc_rgba8888_ws_9x75_curiosity_720x720_round/debug/_ext/799690486/legato_imagedecoder_raw_read_internal.o
 .ARM.attributes
                0x000007c4       0x2c build/dsi_xlcdc_rgba8888_ws_9x75_curiosity_720x720_round/debug/_ext/799690486/legato_imagedecoder_raw_scale.o
 .ARM.attributes
                0x000007f0       0x2c build/dsi_xlcdc_rgba8888_ws_9x75_curiosity_720x720_round/debug/_ext/799690486/legato_imagedecoder_raw_mask.o
 .ARM.attributes
                0x0000081c       0x2c build/dsi_xlcdc_rgba8888_ws_9x75_curiosity_720x720_round/debug/_ext/799690486/legato_imagedecoder_raw_blend.o
 .ARM.attributes
                0x00000848       0x2c build/dsi_xlcdc_rgba8888_ws_9x75_curiosity_720x720_round/debug/_ext/799690486/legato_imagedecoder_raw.o
 .ARM.attributes
                0x00000874       0x2c build/dsi_xlcdc_rgba8888_ws_9x75_curiosity_720x720_round/debug/_ext/799690486/legato_imagedecoder_raw_setup.o
 .ARM.attributes
                0x000008a0       0x2c build/dsi_xlcdc_rgba8888_ws_9x75_curiosity_720x720_round/debug/_ext/799690486/legato_imagedecoder_raw_rotate.o
 .ARM.attributes
                0x000008cc       0x2c build/dsi_xlcdc_rgba8888_ws_9x75_curiosity_720x720_round/debug/_ext/799690486/legato_imagedecoder_raw_palette_internal.o
 .ARM.attributes
                0x000008f8       0x2c build/dsi_xlcdc_rgba8888_ws_9x75_curiosity_720x720_round/debug/_ext/1664643037/legato_image_utils.o
 .ARM.attributes
                0x00000924       0x2c build/dsi_xlcdc_rgba8888_ws_9x75_curiosity_720x720_round/debug/_ext/1664643037/legato_image.o
 .ARM.attributes
                0x00000950       0x2c build/dsi_xlcdc_rgba8888_ws_9x75_curiosity_720x720_round/debug/_ext/171820735/legato_variableheap.o
 .ARM.attributes
                0x0000097c       0x2c build/dsi_xlcdc_rgba8888_ws_9x75_curiosity_720x720_round/debug/_ext/171820735/legato_fixedheap.o
 .ARM.attributes
                0x000009a8       0x2c build/dsi_xlcdc_rgba8888_ws_9x75_curiosity_720x720_round/debug/_ext/171820735/legato_memory.o
 .ARM.attributes
                0x000009d4       0x2c build/dsi_xlcdc_rgba8888_ws_9x75_curiosity_720x720_round/debug/_ext/2053165825/legato_draw.o
 .ARM.attributes
                0x00000a00       0x2c build/dsi_xlcdc_rgba8888_ws_9x75_curiosity_720x720_round/debug/_ext/2053165825/legato_draw_line.o
 .ARM.attributes
                0x00000a2c       0x2c build/dsi_xlcdc_rgba8888_ws_9x75_curiosity_720x720_round/debug/_ext/2053165825/legato_draw_rect.o
 .ARM.attributes
                0x00000a58       0x2c build/dsi_xlcdc_rgba8888_ws_9x75_curiosity_720x720_round/debug/_ext/2053165825/legato_draw_arc.o
 .ARM.attributes
                0x00000a84       0x2c build/dsi_xlcdc_rgba8888_ws_9x75_curiosity_720x720_round/debug/_ext/2053165825/legato_gpu.o
 .ARM.attributes
                0x00000ab0       0x2c build/dsi_xlcdc_rgba8888_ws_9x75_curiosity_720x720_round/debug/_ext/2053165825/legato_renderer.o
 .ARM.attributes
                0x00000adc       0x2c build/dsi_xlcdc_rgba8888_ws_9x75_curiosity_720x720_round/debug/_ext/357591503/legato_string.o
 .ARM.attributes
                0x00000b08       0x2c build/dsi_xlcdc_rgba8888_ws_9x75_curiosity_720x720_round/debug/_ext/357591503/legato_stringutils.o
 .ARM.attributes
                0x00000b34       0x2c build/dsi_xlcdc_rgba8888_ws_9x75_curiosity_720x720_round/debug/_ext/357591503/legato_string_renderer.o
 .ARM.attributes
                0x00000b60       0x2c build/dsi_xlcdc_rgba8888_ws_9x75_curiosity_720x720_round/debug/_ext/357591503/legato_fixedstring.o
 .ARM.attributes
                0x00000b8c       0x2c build/dsi_xlcdc_rgba8888_ws_9x75_curiosity_720x720_round/debug/_ext/357591503/legato_stringtable.o
 .ARM.attributes
                0x00000bb8       0x2c build/dsi_xlcdc_rgba8888_ws_9x75_curiosity_720x720_round/debug/_ext/357591503/legato_tablestring.o
 .ARM.attributes
                0x00000be4       0x2c build/dsi_xlcdc_rgba8888_ws_9x75_curiosity_720x720_round/debug/_ext/1591588594/legato_widget_image_skin_classic.o
 .ARM.attributes
                0x00000c10       0x2c build/dsi_xlcdc_rgba8888_ws_9x75_curiosity_720x720_round/debug/_ext/1591588594/legato_widget_image.o
 .ARM.attributes
                0x00000c3c       0x2c build/dsi_xlcdc_rgba8888_ws_9x75_curiosity_720x720_round/debug/_ext/1589174617/legato_widget_label_skin_classic.o
 .ARM.attributes
                0x00000c68       0x2c build/dsi_xlcdc_rgba8888_ws_9x75_curiosity_720x720_round/debug/_ext/1589174617/legato_widget_label.o
 .ARM.attributes
                0x00000c94       0x2c build/dsi_xlcdc_rgba8888_ws_9x75_curiosity_720x720_round/debug/_ext/461530114/legato_widget_skin_classic_common.o
 .ARM.attributes
                0x00000cc0       0x2c build/dsi_xlcdc_rgba8888_ws_9x75_curiosity_720x720_round/debug/_ext/461530114/legato_widget_skin_classic.o
 .ARM.attributes
                0x00000cec       0x2c build/dsi_xlcdc_rgba8888_ws_9x75_curiosity_720x720_round/debug/_ext/461530114/legato_widget.o
 .ARM.attributes
                0x00000d18       0x2c build/dsi_xlcdc_rgba8888_ws_9x75_curiosity_720x720_round/debug/_ext/1886844053/plib_aic.o
 .ARM.attributes
                0x00000d44       0x2c build/dsi_xlcdc_rgba8888_ws_9x75_curiosity_720x720_round/debug/_ext/1886846076/plib_clk.o
 .ARM.attributes
                0x00000d70       0x2c build/dsi_xlcdc_rgba8888_ws_9x75_curiosity_720x720_round/debug/_ext/1637293614/plib_dbgu.o
 .ARM.attributes
                0x00000d9c       0x2c build/dsi_xlcdc_rgba8888_ws_9x75_curiosity_720x720_round/debug/_ext/545877704/plib_flexcom6_twi_master.o
 .ARM.attributes
                0x00000dc8       0x2c build/dsi_xlcdc_rgba8888_ws_9x75_curiosity_720x720_round/debug/_ext/786409605/plib_gfx2d.o
 .ARM.attributes
                0x00000df4       0x2c build/dsi_xlcdc_rgba8888_ws_9x75_curiosity_720x720_round/debug/_ext/1886855727/plib_mmu.o
 .ARM.attributes
                0x00000e20       0x2c build/dsi_xlcdc_rgba8888_ws_9x75_curiosity_720x720_round/debug/_ext/1886858480/plib_pio.o
 .ARM.attributes
                0x00000e4c       0x2c build/dsi_xlcdc_rgba8888_ws_9x75_curiosity_720x720_round/debug/_ext/1886860748/plib_rtt.o
 .ARM.attributes
                0x00000e78       0x2c build/dsi_xlcdc_rgba8888_ws_9x75_curiosity_720x720_round/debug/_ext/60866517/plib_tc1.o
 .ARM.attributes
                0x00000ea4       0x2c build/dsi_xlcdc_rgba8888_ws_9x75_curiosity_720x720_round/debug/_ext/1477359996/xc32_monitor.o
 .ARM.attributes
                0x00000ed0       0x2c build/dsi_xlcdc_rgba8888_ws_9x75_curiosity_720x720_round/debug/_ext/1949213289/sys_input.o
 .ARM.attributes
                0x00000efc       0x2c build/dsi_xlcdc_rgba8888_ws_9x75_curiosity_720x720_round/debug/_ext/586618287/sys_int.o
 .ARM.attributes
                0x00000f28       0x2c build/dsi_xlcdc_rgba8888_ws_9x75_curiosity_720x720_round/debug/_ext/690637493/sys_time.o
 .ARM.attributes
                0x00000f54       0x1c build/dsi_xlcdc_rgba8888_ws_9x75_curiosity_720x720_round/debug/_ext/1295507646/cstartup.o
 .ARM.attributes
                0x00000f70       0x2c build/dsi_xlcdc_rgba8888_ws_9x75_curiosity_720x720_round/debug/_ext/1295507646/interrupts.o
 .ARM.attributes
                0x00000f9c       0x2c build/dsi_xlcdc_rgba8888_ws_9x75_curiosity_720x720_round/debug/_ext/1295507646/initialization.o
 .ARM.attributes
                0x00000fc8       0x2c build/dsi_xlcdc_rgba8888_ws_9x75_curiosity_720x720_round/debug/_ext/1295507646/fault_handlers.o
 .ARM.attributes
                0x00000ff4       0x2c build/dsi_xlcdc_rgba8888_ws_9x75_curiosity_720x720_round/debug/_ext/1295507646/tasks.o
 .ARM.attributes
                0x00001020       0x2c build/dsi_xlcdc_rgba8888_ws_9x75_curiosity_720x720_round/debug/_ext/1360937237/main.o
 .ARM.attributes
                0x0000104c       0x2c build/dsi_xlcdc_rgba8888_ws_9x75_curiosity_720x720_round/debug/_ext/1360937237/app.o
 .ARM.attributes
                0x00001078       0x2c build/dsi_xlcdc_rgba8888_ws_9x75_curiosity_720x720_round/debug/_ext/1360937237/app_drive.o
 .ARM.attributes
                0x000010a4       0x1d c:/program files/microchip/xc32/v4.35/bin/bin/../../lib/gcc/pic32c/8.3.1/arm/v5te/nofp\libgcc.a(_udivsi3.o)
 .ARM.attributes
                0x000010c1       0x1d c:/program files/microchip/xc32/v4.35/bin/bin/../../lib/gcc/pic32c/8.3.1/arm/v5te/nofp\libgcc.a(_divsi3.o)
 .ARM.attributes
                0x000010de       0x1d c:/program files/microchip/xc32/v4.35/bin/bin/../../lib/gcc/pic32c/8.3.1/arm/v5te/nofp\libgcc.a(_dvmd_tls.o)
 .ARM.attributes
                0x000010fb       0x1d c:/program files/microchip/xc32/v4.35/bin/bin/../../lib/gcc/pic32c/8.3.1/arm/v5te/nofp\libgcc.a(_arm_addsubsf3.o)
 .ARM.attributes
                0x00001118       0x1d c:/program files/microchip/xc32/v4.35/bin/bin/../../lib/gcc/pic32c/8.3.1/arm/v5te/nofp\libgcc.a(_arm_muldivsf3.o)
 .ARM.attributes
                0x00001135       0x1d c:/program files/microchip/xc32/v4.35/bin/bin/../../lib/gcc/pic32c/8.3.1/arm/v5te/nofp\libgcc.a(_arm_cmpsf2.o)
 .ARM.attributes
                0x00001152       0x1d c:/program files/microchip/xc32/v4.35/bin/bin/../../lib/gcc/pic32c/8.3.1/arm/v5te/nofp\libgcc.a(_arm_fixsfsi.o)
 .ARM.attributes
                0x0000116f       0x1d c:/program files/microchip/xc32/v4.35/bin/bin/../../lib/gcc/pic32c/8.3.1/arm/v5te/nofp\libgcc.a(_arm_fixunssfsi.o)
 .ARM.attributes
                0x0000118c       0x1d c:/program files/microchip/xc32/v4.35/bin/bin/../../lib/gcc/pic32c/8.3.1/arm/v5te/nofp\libgcc.a(_aeabi_uldivmod.o)
 .ARM.attributes
                0x000011a9       0x2b c:/program files/microchip/xc32/v4.35/bin/bin/../../lib/gcc/pic32c/8.3.1/arm/v5te/nofp\libgcc.a(_udivmoddi4.o)
 .ARM.attributes
                0x000011d4       0x2d c:/program files/microchip/xc32/v4.35/bin/bin/../../lib/gcc/pic32c/8.3.1/../../../../pic32c/lib/arm/v5te/nofp\libg-musl.a(__libc_start_main.o)
 .ARM.attributes
                0x00001201       0x2d c:/program files/microchip/xc32/v4.35/bin/bin/../../lib/gcc/pic32c/8.3.1/../../../../pic32c/lib/arm/v5te/nofp\libg-musl.a(libc.o)
 .ARM.attributes
                0x0000122e       0x2d c:/program files/microchip/xc32/v4.35/bin/bin/../../lib/gcc/pic32c/8.3.1/../../../../pic32c/lib/arm/v5te/nofp\libg-musl.a(__sio_sprintf_dnpuxX.o)
 .ARM.attributes
                0x0000125b       0x2d c:/program files/microchip/xc32/v4.35/bin/bin/../../lib/gcc/pic32c/8.3.1/../../../../pic32c/lib/arm/v5te/nofp\libg-musl.a(__fmt_d.o)
 .ARM.attributes
                0x00001288       0x2d c:/program files/microchip/xc32/v4.35/bin/bin/../../lib/gcc/pic32c/8.3.1/../../../../pic32c/lib/arm/v5te/nofp\libg-musl.a(__fmt_u.o)
 .ARM.attributes
                0x000012b5       0x2d c:/program files/microchip/xc32/v4.35/bin/bin/../../lib/gcc/pic32c/8.3.1/../../../../pic32c/lib/arm/v5te/nofp\libg-musl.a(__fmt_x.o)
 .ARM.attributes
                0x000012e2       0x2d c:/program files/microchip/xc32/v4.35/bin/bin/../../lib/gcc/pic32c/8.3.1/../../../../pic32c/lib/arm/v5te/nofp\libg-musl.a(__pop_int.o)
 .ARM.attributes
                0x0000130f       0x2d c:/program files/microchip/xc32/v4.35/bin/bin/../../lib/gcc/pic32c/8.3.1/../../../../pic32c/lib/arm/v5te/nofp\libg-musl.a(__pop_ptr.o)
 .ARM.attributes
                0x0000133c       0x2d c:/program files/microchip/xc32/v4.35/bin/bin/../../lib/gcc/pic32c/8.3.1/../../../../pic32c/lib/arm/v5te/nofp\libg-musl.a(__printf_core.o)
 .ARM.attributes
                0x00001369       0x2d c:/program files/microchip/xc32/v4.35/bin/bin/../../lib/gcc/pic32c/8.3.1/../../../../pic32c/lib/arm/v5te/nofp\libg-musl.a(stdin.o)
 .ARM.attributes
                0x00001396       0x2d c:/program files/microchip/xc32/v4.35/bin/bin/../../lib/gcc/pic32c/8.3.1/../../../../pic32c/lib/arm/v5te/nofp\libg-musl.a(stdout.o)
 .ARM.attributes
                0x000013c3       0x2d c:/program files/microchip/xc32/v4.35/bin/bin/../../lib/gcc/pic32c/8.3.1/../../../../pic32c/lib/arm/v5te/nofp\libg-musl.a(puts.o)
 .ARM.attributes
                0x000013f0       0x2d c:/program files/microchip/xc32/v4.35/bin/bin/../../lib/gcc/pic32c/8.3.1/../../../../pic32c/lib/arm/v5te/nofp\libg-musl.a(setbuf.o)
 .ARM.attributes
                0x0000141d       0x2d c:/program files/microchip/xc32/v4.35/bin/bin/../../lib/gcc/pic32c/8.3.1/../../../../pic32c/lib/arm/v5te/nofp\libg-musl.a(atoi.o)
 .ARM.attributes
                0x0000144a       0x2d c:/program files/microchip/xc32/v4.35/bin/bin/../../lib/gcc/pic32c/8.3.1/../../../../pic32c/lib/arm/v5te/nofp\libg-musl.a(memcpy.o)
 .ARM.attributes
                0x00001477       0x2d c:/program files/microchip/xc32/v4.35/bin/bin/../../lib/gcc/pic32c/8.3.1/../../../../pic32c/lib/arm/v5te/nofp\libg-musl.a(memmove.o)
 .ARM.attributes
                0x000014a4       0x2d c:/program files/microchip/xc32/v4.35/bin/bin/../../lib/gcc/pic32c/8.3.1/../../../../pic32c/lib/arm/v5te/nofp\libg-musl.a(memset.o)
 .ARM.attributes
                0x000014d1       0x2d c:/program files/microchip/xc32/v4.35/bin/bin/../../lib/gcc/pic32c/8.3.1/../../../../pic32c/lib/arm/v5te/nofp\libg-musl.a(strlen.o)
 .ARM.attributes
                0x000014fe       0x2d c:/program files/microchip/xc32/v4.35/bin/bin/../../lib/gcc/pic32c/8.3.1/../../../../pic32c/lib/arm/v5te/nofp\libg-musl.a(tolower.o)
 .ARM.attributes
                0x0000152b       0x2d c:/program files/microchip/xc32/v4.35/bin/bin/../../lib/gcc/pic32c/8.3.1/../../../../pic32c/lib/arm/v5te/nofp\libg-musl.a(toupper.o)
 .ARM.attributes
                0x00001558       0x2d c:/program files/microchip/xc32/v4.35/bin/bin/../../lib/gcc/pic32c/8.3.1/../../../../pic32c/lib/arm/v5te/nofp\libg-musl.a(__environ.o)
 .ARM.attributes
                0x00001585       0x2d c:/program files/microchip/xc32/v4.35/bin/bin/../../lib/gcc/pic32c/8.3.1/../../../../pic32c/lib/arm/v5te/nofp\libg-musl.a(__errno_location.o)
 .ARM.attributes
                0x000015b2       0x2d c:/program files/microchip/xc32/v4.35/bin/bin/../../lib/gcc/pic32c/8.3.1/../../../../pic32c/lib/arm/v5te/nofp\libg-musl.a(__int_vfprintf.o)
 .ARM.attributes
                0x000015df       0x2d c:/program files/microchip/xc32/v4.35/bin/bin/../../lib/gcc/pic32c/8.3.1/../../../../pic32c/lib/arm/v5te/nofp\libg-musl.a(__int_vsprintf.o)
 .ARM.attributes
                0x0000160c       0x2d c:/program files/microchip/xc32/v4.35/bin/bin/../../lib/gcc/pic32c/8.3.1/../../../../pic32c/lib/arm/v5te/nofp\libg-musl.a(fputs.o)
 .ARM.attributes
                0x00001639       0x2d c:/program files/microchip/xc32/v4.35/bin/bin/../../lib/gcc/pic32c/8.3.1/../../../../pic32c/lib/arm/v5te/nofp\libg-musl.a(__cvt_u.o)
 .ARM.attributes
                0x00001666       0x2d c:/program files/microchip/xc32/v4.35/bin/bin/../../lib/gcc/pic32c/8.3.1/../../../../pic32c/lib/arm/v5te/nofp\libg-musl.a(__pop_float.o)
 .ARM.attributes
                0x00001693       0x2d c:/program files/microchip/xc32/v4.35/bin/bin/../../lib/gcc/pic32c/8.3.1/../../../../pic32c/lib/arm/v5te/nofp\libg-musl.a(__stdio_read.o)
 .ARM.attributes
                0x000016c0       0x2d c:/program files/microchip/xc32/v4.35/bin/bin/../../lib/gcc/pic32c/8.3.1/../../../../pic32c/lib/arm/v5te/nofp\libg-musl.a(__towrite_rw.o)
 .ARM.attributes
                0x000016ed       0x2d c:/program files/microchip/xc32/v4.35/bin/bin/../../lib/gcc/pic32c/8.3.1/../../../../pic32c/lib/arm/v5te/nofp\libg-musl.a(fwrite.o)
 .ARM.attributes
                0x0000171a       0x2d c:/program files/microchip/xc32/v4.35/bin/bin/../../lib/gcc/pic32c/8.3.1/../../../../pic32c/lib/arm/v5te/nofp\libg-musl.a(putc.o)
 .ARM.attributes
                0x00001747       0x2d c:/program files/microchip/xc32/v4.35/bin/bin/../../lib/gcc/pic32c/8.3.1/../../../../pic32c/lib/arm/v5te/nofp\libg-musl.a(setvbuf.o)
 .ARM.attributes
                0x00001774       0x2d c:/program files/microchip/xc32/v4.35/bin/bin/../../lib/gcc/pic32c/8.3.1/../../../../pic32c/lib/arm/v5te/nofp\libg-musl.a(readv.o)
 .ARM.attributes
                0x000017a1       0x2d c:/program files/microchip/xc32/v4.35/bin/bin/../../lib/gcc/pic32c/8.3.1/../../../../pic32c/lib/arm/v5te/nofp\libg-musl.a(malloc.o)
 .ARM.attributes
                0x000017ce       0x2d c:/program files/microchip/xc32/v4.35/bin/bin/../../lib/gcc/pic32c/8.3.1/../../../../pic32c/lib/arm/v5te/nofp\libg-musl.a(expand_heap.o)
 .ARM.attributes
                0x000017fb       0x2d c:/program files/microchip/xc32/v4.35/bin/bin/../../lib/gcc/pic32c/8.3.1/../../../../pic32c/lib/arm/v5te/nofp\libg-musl.a(__int_vsnprintf.o)
 .ARM.attributes
                0x00001828       0x2d c:/program files/microchip/xc32/v4.35/bin/bin/../../lib/gcc/pic32c/8.3.1/../../../../pic32c/lib/arm/v5te/nofp\libg-musl.a(__init_stdio.o)
 .ARM.attributes
                0x00001855       0x2d c:/program files/microchip/xc32/v4.35/bin/bin/../../lib/gcc/pic32c/8.3.1/../../../../pic32c/lib/arm/v5te/nofp\libg-musl.a(__out.o)
 .ARM.attributes
                0x00001882       0x2d c:/program files/microchip/xc32/v4.35/bin/bin/../../lib/gcc/pic32c/8.3.1/../../../../pic32c/lib/arm/v5te/nofp\libg-musl.a(__putc.o)
 .ARM.attributes
                0x000018af       0x2d c:/program files/microchip/xc32/v4.35/bin/bin/../../lib/gcc/pic32c/8.3.1/../../../../pic32c/lib/arm/v5te/nofp\libg-musl.a(__stderr.o)
 .ARM.attributes
                0x000018dc       0x2d c:/program files/microchip/xc32/v4.35/bin/bin/../../lib/gcc/pic32c/8.3.1/../../../../pic32c/lib/arm/v5te/nofp\libg-musl.a(__stdio_close.o)
 .ARM.attributes
                0x00001909       0x2d c:/program files/microchip/xc32/v4.35/bin/bin/../../lib/gcc/pic32c/8.3.1/../../../../pic32c/lib/arm/v5te/nofp\libg-musl.a(__stdio_write.o)
 .ARM.attributes
                0x00001936       0x2d c:/program files/microchip/xc32/v4.35/bin/bin/../../lib/gcc/pic32c/8.3.1/../../../../pic32c/lib/arm/v5te/nofp\libg-musl.a(__stdout.o)
 .ARM.attributes
                0x00001963       0x2d c:/program files/microchip/xc32/v4.35/bin/bin/../../lib/gcc/pic32c/8.3.1/../../../../pic32c/lib/arm/v5te/nofp\libg-musl.a(__towrite.o)
 .ARM.attributes
                0x00001990       0x2d c:/program files/microchip/xc32/v4.35/bin/bin/../../lib/gcc/pic32c/8.3.1/../../../../pic32c/lib/arm/v5te/nofp\libg-musl.a(writev.o)
 .ARM.attributes
                0x000019bd       0x2d c:/program files/microchip/xc32/v4.35/bin/bin/../../lib/gcc/pic32c/8.3.1/../../../../pic32c/lib/arm/v5te/nofp\libg-musl.a(__overflow.o)
 .ARM.attributes
                0x000019ea       0x2d c:/program files/microchip/xc32/v4.35/bin/bin/../../lib/gcc/pic32c/8.3.1/../../../../pic32c/lib/arm/v5te/nofp\libg-musl.a(__fwrite.o)
 .ARM.attributes
                0x00001a17       0x2b c:/program files/microchip/xc32/v4.35/bin/bin/../../lib/gcc/pic32c/8.3.1/../../../../pic32c/lib/arm/v5te/nofp\libpic32c.a(close.o)
 .ARM.attributes
                0x00001a42       0x2b c:/program files/microchip/xc32/v4.35/bin/bin/../../lib/gcc/pic32c/8.3.1/../../../../pic32c/lib/arm/v5te/nofp\libpic32c.a(lseek.o)
 .ARM.attributes
                0x00001a6d       0x2b c:/program files/microchip/xc32/v4.35/bin/bin/../../lib/gcc/pic32c/8.3.1/../../../../pic32c/lib/arm/v5te/nofp\libpic32c.a(sbrk.o)
 .ARM.attributes
                0x00001a98       0x1d c:/program files/microchip/xc32/v4.35/bin/bin/../../lib/gcc/pic32c/8.3.1/arm/v5te/nofp/crtn.o

.comment        0x00000000       0x2b
 .comment       0x00000000       0x2b c:/program files/microchip/xc32/v4.35/bin/bin/../../lib/gcc/pic32c/8.3.1/arm/v5te/nofp/crtbegin.o
                                 0x2c (size before relaxing)
 .comment       0x0000002b       0x2c build/dsi_xlcdc_rgba8888_ws_9x75_curiosity_720x720_round/debug/_ext/1985065589/drv_i2c.o
 .comment       0x0000002b       0x2c build/dsi_xlcdc_rgba8888_ws_9x75_curiosity_720x720_round/debug/_ext/2010836581/gfx_canvas_api.o
 .comment       0x0000002b       0x2c build/dsi_xlcdc_rgba8888_ws_9x75_curiosity_720x720_round/debug/_ext/2010836581/gfx_canvas.o
 .comment       0x0000002b       0x2c build/dsi_xlcdc_rgba8888_ws_9x75_curiosity_720x720_round/debug/_ext/1085405985/ws_touch_display.o
 .comment       0x0000002b       0x2c build/dsi_xlcdc_rgba8888_ws_9x75_curiosity_720x720_round/debug/_ext/219820618/drv_gfx2d.o
 .comment       0x0000002b       0x2c build/dsi_xlcdc_rgba8888_ws_9x75_curiosity_720x720_round/debug/_ext/1247915868/plib_dsi.o
 .comment       0x0000002b       0x2c build/dsi_xlcdc_rgba8888_ws_9x75_curiosity_720x720_round/debug/_ext/225302149/plib_xlcdc.o
 .comment       0x0000002b       0x2c build/dsi_xlcdc_rgba8888_ws_9x75_curiosity_720x720_round/debug/_ext/505007713/drv_gfx_xlcdc.o
 .comment       0x0000002b       0x2c build/dsi_xlcdc_rgba8888_ws_9x75_curiosity_720x720_round/debug/_ext/1966656405/gfx_driver.o
 .comment       0x0000002b       0x2c build/dsi_xlcdc_rgba8888_ws_9x75_curiosity_720x720_round/debug/_ext/105237591/legato_math.o
 .comment       0x0000002b       0x2c build/dsi_xlcdc_rgba8888_ws_9x75_curiosity_720x720_round/debug/_ext/105237591/legato_rect.o
 .comment       0x0000002b       0x2c build/dsi_xlcdc_rgba8888_ws_9x75_curiosity_720x720_round/debug/_ext/105237591/legato_utils.o
 .comment       0x0000002b       0x2c build/dsi_xlcdc_rgba8888_ws_9x75_curiosity_720x720_round/debug/_ext/105237591/legato_color_blend.o
 .comment       0x0000002b       0x2c build/dsi_xlcdc_rgba8888_ws_9x75_curiosity_720x720_round/debug/_ext/105237591/legato_color.o
 .comment       0x0000002b       0x2c build/dsi_xlcdc_rgba8888_ws_9x75_curiosity_720x720_round/debug/_ext/105237591/legato_color_lerp.o
 .comment       0x0000002b       0x2c build/dsi_xlcdc_rgba8888_ws_9x75_curiosity_720x720_round/debug/_ext/105237591/legato_pixelbuffer.o
 .comment       0x0000002b       0x2c build/dsi_xlcdc_rgba8888_ws_9x75_curiosity_720x720_round/debug/_ext/105237591/legato_color_convert.o
 .comment       0x0000002b       0x2c build/dsi_xlcdc_rgba8888_ws_9x75_curiosity_720x720_round/debug/_ext/884805853/legato_event.o
 .comment       0x0000002b       0x2c build/dsi_xlcdc_rgba8888_ws_9x75_curiosity_720x720_round/debug/_ext/884805853/legato_scheme.o
 .comment       0x0000002b       0x2c build/dsi_xlcdc_rgba8888_ws_9x75_curiosity_720x720_round/debug/_ext/884805853/legato_input.o
 .comment       0x0000002b       0x2c build/dsi_xlcdc_rgba8888_ws_9x75_curiosity_720x720_round/debug/_ext/884805853/legato_state.o
 .comment       0x0000002b       0x2c build/dsi_xlcdc_rgba8888_ws_9x75_curiosity_720x720_round/debug/_ext/778592651/legato_array.o
 .comment       0x0000002b       0x2c build/dsi_xlcdc_rgba8888_ws_9x75_curiosity_720x720_round/debug/_ext/778592651/legato_rectarray.o
 .comment       0x0000002b       0x2c build/dsi_xlcdc_rgba8888_ws_9x75_curiosity_720x720_round/debug/_ext/778592651/legato_list.o
 .comment       0x0000002b       0x2c build/dsi_xlcdc_rgba8888_ws_9x75_curiosity_720x720_round/debug/_ext/884895117/legato_font.o
 .comment       0x0000002b       0x2c build/dsi_xlcdc_rgba8888_ws_9x75_curiosity_720x720_round/debug/_ext/1382756211/le_gen_fonts.o
 .comment       0x0000002b       0x2c build/dsi_xlcdc_rgba8888_ws_9x75_curiosity_720x720_round/debug/_ext/86928605/le_gen_images.o
 .comment       0x0000002b       0x2c build/dsi_xlcdc_rgba8888_ws_9x75_curiosity_720x720_round/debug/_ext/1322619606/le_gen_screen_Screen0.o
 .comment       0x0000002b       0x2c build/dsi_xlcdc_rgba8888_ws_9x75_curiosity_720x720_round/debug/_ext/1965903633/le_gen_globalpalette.o
 .comment       0x0000002b       0x2c build/dsi_xlcdc_rgba8888_ws_9x75_curiosity_720x720_round/debug/_ext/1965903633/le_gen_harmony.o
 .comment       0x0000002b       0x2c build/dsi_xlcdc_rgba8888_ws_9x75_curiosity_720x720_round/debug/_ext/1965903633/le_gen_scheme.o
 .comment       0x0000002b       0x2c build/dsi_xlcdc_rgba8888_ws_9x75_curiosity_720x720_round/debug/_ext/1965903633/le_gen_stringtable.o
 .comment       0x0000002b       0x2c build/dsi_xlcdc_rgba8888_ws_9x75_curiosity_720x720_round/debug/_ext/1965903633/le_gen_init.o
 .comment       0x0000002b       0x2c build/dsi_xlcdc_rgba8888_ws_9x75_curiosity_720x720_round/debug/_ext/979623078/legato_imagedecoder_jpeg_common.o
 .comment       0x0000002b       0x2c build/dsi_xlcdc_rgba8888_ws_9x75_curiosity_720x720_round/debug/_ext/979623078/jidctint.o
 .comment       0x0000002b       0x2c build/dsi_xlcdc_rgba8888_ws_9x75_curiosity_720x720_round/debug/_ext/979623078/legato_imagedecoder_jpeg.o
 .comment       0x0000002b       0x2c build/dsi_xlcdc_rgba8888_ws_9x75_curiosity_720x720_round/debug/_ext/979534379/legato_imagedecoder_mono_read_internal.o
 .comment       0x0000002b       0x2c build/dsi_xlcdc_rgba8888_ws_9x75_curiosity_720x720_round/debug/_ext/979534379/legato_imagedecoder_mono.o
 .comment       0x0000002b       0x2c build/dsi_xlcdc_rgba8888_ws_9x75_curiosity_720x720_round/debug/_ext/799688951/legato_imagedecoder_png.o
 .comment       0x0000002b       0x2c build/dsi_xlcdc_rgba8888_ws_9x75_curiosity_720x720_round/debug/_ext/799688951/lodepng.o
 .comment       0x0000002b       0x2c build/dsi_xlcdc_rgba8888_ws_9x75_curiosity_720x720_round/debug/_ext/799690486/legato_imagedecoder_raw_convert.o
 .comment       0x0000002b       0x2c build/dsi_xlcdc_rgba8888_ws_9x75_curiosity_720x720_round/debug/_ext/799690486/legato_imagedecoder_raw_write.o
 .comment       0x0000002b       0x2c build/dsi_xlcdc_rgba8888_ws_9x75_curiosity_720x720_round/debug/_ext/799690486/legato_imagedecoder_raw_read_internal.o
 .comment       0x0000002b       0x2c build/dsi_xlcdc_rgba8888_ws_9x75_curiosity_720x720_round/debug/_ext/799690486/legato_imagedecoder_raw_scale.o
 .comment       0x0000002b       0x2c build/dsi_xlcdc_rgba8888_ws_9x75_curiosity_720x720_round/debug/_ext/799690486/legato_imagedecoder_raw_mask.o
 .comment       0x0000002b       0x2c build/dsi_xlcdc_rgba8888_ws_9x75_curiosity_720x720_round/debug/_ext/799690486/legato_imagedecoder_raw_blend.o
 .comment       0x0000002b       0x2c build/dsi_xlcdc_rgba8888_ws_9x75_curiosity_720x720_round/debug/_ext/799690486/legato_imagedecoder_raw.o
 .comment       0x0000002b       0x2c build/dsi_xlcdc_rgba8888_ws_9x75_curiosity_720x720_round/debug/_ext/799690486/legato_imagedecoder_raw_setup.o
 .comment       0x0000002b       0x2c build/dsi_xlcdc_rgba8888_ws_9x75_curiosity_720x720_round/debug/_ext/799690486/legato_imagedecoder_raw_rotate.o
 .comment       0x0000002b       0x2c build/dsi_xlcdc_rgba8888_ws_9x75_curiosity_720x720_round/debug/_ext/799690486/legato_imagedecoder_raw_palette_internal.o
 .comment       0x0000002b       0x2c build/dsi_xlcdc_rgba8888_ws_9x75_curiosity_720x720_round/debug/_ext/1664643037/legato_image_utils.o
 .comment       0x0000002b       0x2c build/dsi_xlcdc_rgba8888_ws_9x75_curiosity_720x720_round/debug/_ext/1664643037/legato_image.o
 .comment       0x0000002b       0x2c build/dsi_xlcdc_rgba8888_ws_9x75_curiosity_720x720_round/debug/_ext/171820735/legato_variableheap.o
 .comment       0x0000002b       0x2c build/dsi_xlcdc_rgba8888_ws_9x75_curiosity_720x720_round/debug/_ext/171820735/legato_fixedheap.o
 .comment       0x0000002b       0x2c build/dsi_xlcdc_rgba8888_ws_9x75_curiosity_720x720_round/debug/_ext/171820735/legato_memory.o
 .comment       0x0000002b       0x2c build/dsi_xlcdc_rgba8888_ws_9x75_curiosity_720x720_round/debug/_ext/2053165825/legato_draw.o
 .comment       0x0000002b       0x2c build/dsi_xlcdc_rgba8888_ws_9x75_curiosity_720x720_round/debug/_ext/2053165825/legato_draw_line.o
 .comment       0x0000002b       0x2c build/dsi_xlcdc_rgba8888_ws_9x75_curiosity_720x720_round/debug/_ext/2053165825/legato_draw_rect.o
 .comment       0x0000002b       0x2c build/dsi_xlcdc_rgba8888_ws_9x75_curiosity_720x720_round/debug/_ext/2053165825/legato_draw_arc.o
 .comment       0x0000002b       0x2c build/dsi_xlcdc_rgba8888_ws_9x75_curiosity_720x720_round/debug/_ext/2053165825/legato_gpu.o
 .comment       0x0000002b       0x2c build/dsi_xlcdc_rgba8888_ws_9x75_curiosity_720x720_round/debug/_ext/2053165825/legato_renderer.o
 .comment       0x0000002b       0x2c build/dsi_xlcdc_rgba8888_ws_9x75_curiosity_720x720_round/debug/_ext/357591503/legato_string.o
 .comment       0x0000002b       0x2c build/dsi_xlcdc_rgba8888_ws_9x75_curiosity_720x720_round/debug/_ext/357591503/legato_stringutils.o
 .comment       0x0000002b       0x2c build/dsi_xlcdc_rgba8888_ws_9x75_curiosity_720x720_round/debug/_ext/357591503/legato_string_renderer.o
 .comment       0x0000002b       0x2c build/dsi_xlcdc_rgba8888_ws_9x75_curiosity_720x720_round/debug/_ext/357591503/legato_fixedstring.o
 .comment       0x0000002b       0x2c build/dsi_xlcdc_rgba8888_ws_9x75_curiosity_720x720_round/debug/_ext/357591503/legato_stringtable.o
 .comment       0x0000002b       0x2c build/dsi_xlcdc_rgba8888_ws_9x75_curiosity_720x720_round/debug/_ext/357591503/legato_tablestring.o
 .comment       0x0000002b       0x2c build/dsi_xlcdc_rgba8888_ws_9x75_curiosity_720x720_round/debug/_ext/1591588594/legato_widget_image_skin_classic.o
 .comment       0x0000002b       0x2c build/dsi_xlcdc_rgba8888_ws_9x75_curiosity_720x720_round/debug/_ext/1591588594/legato_widget_image.o
 .comment       0x0000002b       0x2c build/dsi_xlcdc_rgba8888_ws_9x75_curiosity_720x720_round/debug/_ext/1589174617/legato_widget_label_skin_classic.o
 .comment       0x0000002b       0x2c build/dsi_xlcdc_rgba8888_ws_9x75_curiosity_720x720_round/debug/_ext/1589174617/legato_widget_label.o
 .comment       0x0000002b       0x2c build/dsi_xlcdc_rgba8888_ws_9x75_curiosity_720x720_round/debug/_ext/461530114/legato_widget_skin_classic_common.o
 .comment       0x0000002b       0x2c build/dsi_xlcdc_rgba8888_ws_9x75_curiosity_720x720_round/debug/_ext/461530114/legato_widget_skin_classic.o
 .comment       0x0000002b       0x2c build/dsi_xlcdc_rgba8888_ws_9x75_curiosity_720x720_round/debug/_ext/461530114/legato_widget.o
 .comment       0x0000002b       0x2c build/dsi_xlcdc_rgba8888_ws_9x75_curiosity_720x720_round/debug/_ext/1886844053/plib_aic.o
 .comment       0x0000002b       0x2c build/dsi_xlcdc_rgba8888_ws_9x75_curiosity_720x720_round/debug/_ext/1886846076/plib_clk.o
 .comment       0x0000002b       0x2c build/dsi_xlcdc_rgba8888_ws_9x75_curiosity_720x720_round/debug/_ext/1637293614/plib_dbgu.o
 .comment       0x0000002b       0x2c build/dsi_xlcdc_rgba8888_ws_9x75_curiosity_720x720_round/debug/_ext/545877704/plib_flexcom6_twi_master.o
 .comment       0x0000002b       0x2c build/dsi_xlcdc_rgba8888_ws_9x75_curiosity_720x720_round/debug/_ext/786409605/plib_gfx2d.o
 .comment       0x0000002b       0x2c build/dsi_xlcdc_rgba8888_ws_9x75_curiosity_720x720_round/debug/_ext/1886855727/plib_mmu.o
 .comment       0x0000002b       0x2c build/dsi_xlcdc_rgba8888_ws_9x75_curiosity_720x720_round/debug/_ext/1886858480/plib_pio.o
 .comment       0x0000002b       0x2c build/dsi_xlcdc_rgba8888_ws_9x75_curiosity_720x720_round/debug/_ext/1886860748/plib_rtt.o
 .comment       0x0000002b       0x2c build/dsi_xlcdc_rgba8888_ws_9x75_curiosity_720x720_round/debug/_ext/60866517/plib_tc1.o
 .comment       0x0000002b       0x2c build/dsi_xlcdc_rgba8888_ws_9x75_curiosity_720x720_round/debug/_ext/1477359996/xc32_monitor.o
 .comment       0x0000002b       0x2c build/dsi_xlcdc_rgba8888_ws_9x75_curiosity_720x720_round/debug/_ext/1949213289/sys_input.o
 .comment       0x0000002b       0x2c build/dsi_xlcdc_rgba8888_ws_9x75_curiosity_720x720_round/debug/_ext/586618287/sys_int.o
 .comment       0x0000002b       0x2c build/dsi_xlcdc_rgba8888_ws_9x75_curiosity_720x720_round/debug/_ext/690637493/sys_time.o
 .comment       0x0000002b       0x2c build/dsi_xlcdc_rgba8888_ws_9x75_curiosity_720x720_round/debug/_ext/1295507646/interrupts.o
 .comment       0x0000002b       0x2c build/dsi_xlcdc_rgba8888_ws_9x75_curiosity_720x720_round/debug/_ext/1295507646/initialization.o
 .comment       0x0000002b       0x2c build/dsi_xlcdc_rgba8888_ws_9x75_curiosity_720x720_round/debug/_ext/1295507646/fault_handlers.o
 .comment       0x0000002b       0x2c build/dsi_xlcdc_rgba8888_ws_9x75_curiosity_720x720_round/debug/_ext/1295507646/tasks.o
 .comment       0x0000002b       0x2c build/dsi_xlcdc_rgba8888_ws_9x75_curiosity_720x720_round/debug/_ext/1360937237/main.o
 .comment       0x0000002b       0x2c build/dsi_xlcdc_rgba8888_ws_9x75_curiosity_720x720_round/debug/_ext/1360937237/app.o
 .comment       0x0000002b       0x2c build/dsi_xlcdc_rgba8888_ws_9x75_curiosity_720x720_round/debug/_ext/1360937237/app_drive.o
 .comment       0x0000002b       0x2c c:/program files/microchip/xc32/v4.35/bin/bin/../../lib/gcc/pic32c/8.3.1/arm/v5te/nofp\libgcc.a(_udivmoddi4.o)
 .comment       0x0000002b       0x2c c:/program files/microchip/xc32/v4.35/bin/bin/../../lib/gcc/pic32c/8.3.1/../../../../pic32c/lib/arm/v5te/nofp\libg-musl.a(__libc_start_main.o)
 .comment       0x0000002b       0x2c c:/program files/microchip/xc32/v4.35/bin/bin/../../lib/gcc/pic32c/8.3.1/../../../../pic32c/lib/arm/v5te/nofp\libg-musl.a(libc.o)
 .comment       0x0000002b       0x2c c:/program files/microchip/xc32/v4.35/bin/bin/../../lib/gcc/pic32c/8.3.1/../../../../pic32c/lib/arm/v5te/nofp\libg-musl.a(__sio_sprintf_dnpuxX.o)
 .comment       0x0000002b       0x2c c:/program files/microchip/xc32/v4.35/bin/bin/../../lib/gcc/pic32c/8.3.1/../../../../pic32c/lib/arm/v5te/nofp\libg-musl.a(__fmt_d.o)
 .comment       0x0000002b       0x2c c:/program files/microchip/xc32/v4.35/bin/bin/../../lib/gcc/pic32c/8.3.1/../../../../pic32c/lib/arm/v5te/nofp\libg-musl.a(__fmt_u.o)
 .comment       0x0000002b       0x2c c:/program files/microchip/xc32/v4.35/bin/bin/../../lib/gcc/pic32c/8.3.1/../../../../pic32c/lib/arm/v5te/nofp\libg-musl.a(__fmt_x.o)
 .comment       0x0000002b       0x2c c:/program files/microchip/xc32/v4.35/bin/bin/../../lib/gcc/pic32c/8.3.1/../../../../pic32c/lib/arm/v5te/nofp\libg-musl.a(__pop_int.o)
 .comment       0x0000002b       0x2c c:/program files/microchip/xc32/v4.35/bin/bin/../../lib/gcc/pic32c/8.3.1/../../../../pic32c/lib/arm/v5te/nofp\libg-musl.a(__pop_ptr.o)
 .comment       0x0000002b       0x2c c:/program files/microchip/xc32/v4.35/bin/bin/../../lib/gcc/pic32c/8.3.1/../../../../pic32c/lib/arm/v5te/nofp\libg-musl.a(__printf_core.o)
 .comment       0x0000002b       0x2c c:/program files/microchip/xc32/v4.35/bin/bin/../../lib/gcc/pic32c/8.3.1/../../../../pic32c/lib/arm/v5te/nofp\libg-musl.a(stdin.o)
 .comment       0x0000002b       0x2c c:/program files/microchip/xc32/v4.35/bin/bin/../../lib/gcc/pic32c/8.3.1/../../../../pic32c/lib/arm/v5te/nofp\libg-musl.a(stdout.o)
 .comment       0x0000002b       0x2c c:/program files/microchip/xc32/v4.35/bin/bin/../../lib/gcc/pic32c/8.3.1/../../../../pic32c/lib/arm/v5te/nofp\libg-musl.a(puts.o)
 .comment       0x0000002b       0x2c c:/program files/microchip/xc32/v4.35/bin/bin/../../lib/gcc/pic32c/8.3.1/../../../../pic32c/lib/arm/v5te/nofp\libg-musl.a(setbuf.o)
 .comment       0x0000002b       0x2c c:/program files/microchip/xc32/v4.35/bin/bin/../../lib/gcc/pic32c/8.3.1/../../../../pic32c/lib/arm/v5te/nofp\libg-musl.a(atoi.o)
 .comment       0x0000002b       0x2c c:/program files/microchip/xc32/v4.35/bin/bin/../../lib/gcc/pic32c/8.3.1/../../../../pic32c/lib/arm/v5te/nofp\libg-musl.a(memcpy.o)
 .comment       0x0000002b       0x2c c:/program files/microchip/xc32/v4.35/bin/bin/../../lib/gcc/pic32c/8.3.1/../../../../pic32c/lib/arm/v5te/nofp\libg-musl.a(memmove.o)
 .comment       0x0000002b       0x2c c:/program files/microchip/xc32/v4.35/bin/bin/../../lib/gcc/pic32c/8.3.1/../../../../pic32c/lib/arm/v5te/nofp\libg-musl.a(memset.o)
 .comment       0x0000002b       0x2c c:/program files/microchip/xc32/v4.35/bin/bin/../../lib/gcc/pic32c/8.3.1/../../../../pic32c/lib/arm/v5te/nofp\libg-musl.a(strlen.o)
 .comment       0x0000002b       0x2c c:/program files/microchip/xc32/v4.35/bin/bin/../../lib/gcc/pic32c/8.3.1/../../../../pic32c/lib/arm/v5te/nofp\libg-musl.a(tolower.o)
 .comment       0x0000002b       0x2c c:/program files/microchip/xc32/v4.35/bin/bin/../../lib/gcc/pic32c/8.3.1/../../../../pic32c/lib/arm/v5te/nofp\libg-musl.a(toupper.o)
 .comment       0x0000002b       0x2c c:/program files/microchip/xc32/v4.35/bin/bin/../../lib/gcc/pic32c/8.3.1/../../../../pic32c/lib/arm/v5te/nofp\libg-musl.a(__environ.o)
 .comment       0x0000002b       0x2c c:/program files/microchip/xc32/v4.35/bin/bin/../../lib/gcc/pic32c/8.3.1/../../../../pic32c/lib/arm/v5te/nofp\libg-musl.a(__errno_location.o)
 .comment       0x0000002b       0x2c c:/program files/microchip/xc32/v4.35/bin/bin/../../lib/gcc/pic32c/8.3.1/../../../../pic32c/lib/arm/v5te/nofp\libg-musl.a(__int_vfprintf.o)
 .comment       0x0000002b       0x2c c:/program files/microchip/xc32/v4.35/bin/bin/../../lib/gcc/pic32c/8.3.1/../../../../pic32c/lib/arm/v5te/nofp\libg-musl.a(__int_vsprintf.o)
 .comment       0x0000002b       0x2c c:/program files/microchip/xc32/v4.35/bin/bin/../../lib/gcc/pic32c/8.3.1/../../../../pic32c/lib/arm/v5te/nofp\libg-musl.a(fputs.o)
 .comment       0x0000002b       0x2c c:/program files/microchip/xc32/v4.35/bin/bin/../../lib/gcc/pic32c/8.3.1/../../../../pic32c/lib/arm/v5te/nofp\libg-musl.a(__cvt_u.o)
 .comment       0x0000002b       0x2c c:/program files/microchip/xc32/v4.35/bin/bin/../../lib/gcc/pic32c/8.3.1/../../../../pic32c/lib/arm/v5te/nofp\libg-musl.a(__pop_float.o)
 .comment       0x0000002b       0x2c c:/program files/microchip/xc32/v4.35/bin/bin/../../lib/gcc/pic32c/8.3.1/../../../../pic32c/lib/arm/v5te/nofp\libg-musl.a(__stdio_read.o)
 .comment       0x0000002b       0x2c c:/program files/microchip/xc32/v4.35/bin/bin/../../lib/gcc/pic32c/8.3.1/../../../../pic32c/lib/arm/v5te/nofp\libg-musl.a(__towrite_rw.o)
 .comment       0x0000002b       0x2c c:/program files/microchip/xc32/v4.35/bin/bin/../../lib/gcc/pic32c/8.3.1/../../../../pic32c/lib/arm/v5te/nofp\libg-musl.a(fwrite.o)
 .comment       0x0000002b       0x2c c:/program files/microchip/xc32/v4.35/bin/bin/../../lib/gcc/pic32c/8.3.1/../../../../pic32c/lib/arm/v5te/nofp\libg-musl.a(putc.o)
 .comment       0x0000002b       0x2c c:/program files/microchip/xc32/v4.35/bin/bin/../../lib/gcc/pic32c/8.3.1/../../../../pic32c/lib/arm/v5te/nofp\libg-musl.a(setvbuf.o)
 .comment       0x0000002b       0x2c c:/program files/microchip/xc32/v4.35/bin/bin/../../lib/gcc/pic32c/8.3.1/../../../../pic32c/lib/arm/v5te/nofp\libg-musl.a(readv.o)
 .comment       0x0000002b       0x2c c:/program files/microchip/xc32/v4.35/bin/bin/../../lib/gcc/pic32c/8.3.1/../../../../pic32c/lib/arm/v5te/nofp\libg-musl.a(malloc.o)
 .comment       0x0000002b       0x2c c:/program files/microchip/xc32/v4.35/bin/bin/../../lib/gcc/pic32c/8.3.1/../../../../pic32c/lib/arm/v5te/nofp\libg-musl.a(expand_heap.o)
 .comment       0x0000002b       0x2c c:/program files/microchip/xc32/v4.35/bin/bin/../../lib/gcc/pic32c/8.3.1/../../../../pic32c/lib/arm/v5te/nofp\libg-musl.a(__int_vsnprintf.o)
 .comment       0x0000002b       0x2c c:/program files/microchip/xc32/v4.35/bin/bin/../../lib/gcc/pic32c/8.3.1/../../../../pic32c/lib/arm/v5te/nofp\libg-musl.a(__init_stdio.o)
 .comment       0x0000002b       0x2c c:/program files/microchip/xc32/v4.35/bin/bin/../../lib/gcc/pic32c/8.3.1/../../../../pic32c/lib/arm/v5te/nofp\libg-musl.a(__out.o)
 .comment       0x0000002b       0x2c c:/program files/microchip/xc32/v4.35/bin/bin/../../lib/gcc/pic32c/8.3.1/../../../../pic32c/lib/arm/v5te/nofp\libg-musl.a(__putc.o)
 .comment       0x0000002b       0x2c c:/program files/microchip/xc32/v4.35/bin/bin/../../lib/gcc/pic32c/8.3.1/../../../../pic32c/lib/arm/v5te/nofp\libg-musl.a(__stderr.o)
 .comment       0x0000002b       0x2c c:/program files/microchip/xc32/v4.35/bin/bin/../../lib/gcc/pic32c/8.3.1/../../../../pic32c/lib/arm/v5te/nofp\libg-musl.a(__stdio_close.o)
 .comment       0x0000002b       0x2c c:/program files/microchip/xc32/v4.35/bin/bin/../../lib/gcc/pic32c/8.3.1/../../../../pic32c/lib/arm/v5te/nofp\libg-musl.a(__stdio_write.o)
 .comment       0x0000002b       0x2c c:/program files/microchip/xc32/v4.35/bin/bin/../../lib/gcc/pic32c/8.3.1/../../../../pic32c/lib/arm/v5te/nofp\libg-musl.a(__stdout.o)
 .comment       0x0000002b       0x2c c:/program files/microchip/xc32/v4.35/bin/bin/../../lib/gcc/pic32c/8.3.1/../../../../pic32c/lib/arm/v5te/nofp\libg-musl.a(__towrite.o)
 .comment       0x0000002b       0x2c c:/program files/microchip/xc32/v4.35/bin/bin/../../lib/gcc/pic32c/8.3.1/../../../../pic32c/lib/arm/v5te/nofp\libg-musl.a(writev.o)
 .comment       0x0000002b       0x2c c:/program files/microchip/xc32/v4.35/bin/bin/../../lib/gcc/pic32c/8.3.1/../../../../pic32c/lib/arm/v5te/nofp\libg-musl.a(__overflow.o)
 .comment       0x0000002b       0x2c c:/program files/microchip/xc32/v4.35/bin/bin/../../lib/gcc/pic32c/8.3.1/../../../../pic32c/lib/arm/v5te/nofp\libg-musl.a(__fwrite.o)
 .comment       0x0000002b       0x2c c:/program files/microchip/xc32/v4.35/bin/bin/../../lib/gcc/pic32c/8.3.1/../../../../pic32c/lib/arm/v5te/nofp\libpic32c.a(close.o)
 .comment       0x0000002b       0x2c c:/program files/microchip/xc32/v4.35/bin/bin/../../lib/gcc/pic32c/8.3.1/../../../../pic32c/lib/arm/v5te/nofp\libpic32c.a(lseek.o)
 .comment       0x0000002b       0x2c c:/program files/microchip/xc32/v4.35/bin/bin/../../lib/gcc/pic32c/8.3.1/../../../../pic32c/lib/arm/v5te/nofp\libpic32c.a(sbrk.o)

.debug_info     0x00000000    0xcbc16
 .debug_info    0x00000000     0x35fd build/dsi_xlcdc_rgba8888_ws_9x75_curiosity_720x720_round/debug/_ext/1985065589/drv_i2c.o
 .debug_info    0x000035fd     0x14ff build/dsi_xlcdc_rgba8888_ws_9x75_curiosity_720x720_round/debug/_ext/2010836581/gfx_canvas_api.o
 .debug_info    0x00004afc     0x2cdc build/dsi_xlcdc_rgba8888_ws_9x75_curiosity_720x720_round/debug/_ext/2010836581/gfx_canvas.o
 .debug_info    0x000077d8     0x17e9 build/dsi_xlcdc_rgba8888_ws_9x75_curiosity_720x720_round/debug/_ext/1085405985/ws_touch_display.o
 .debug_info    0x00008fc1     0x20cc build/dsi_xlcdc_rgba8888_ws_9x75_curiosity_720x720_round/debug/_ext/219820618/drv_gfx2d.o
 .debug_info    0x0000b08d     0x1883 build/dsi_xlcdc_rgba8888_ws_9x75_curiosity_720x720_round/debug/_ext/1247915868/plib_dsi.o
 .debug_info    0x0000c910     0x21d3 build/dsi_xlcdc_rgba8888_ws_9x75_curiosity_720x720_round/debug/_ext/225302149/plib_xlcdc.o
 .debug_info    0x0000eae3     0x1f38 build/dsi_xlcdc_rgba8888_ws_9x75_curiosity_720x720_round/debug/_ext/505007713/drv_gfx_xlcdc.o
 .debug_info    0x00010a1b     0x2b92 build/dsi_xlcdc_rgba8888_ws_9x75_curiosity_720x720_round/debug/_ext/1966656405/gfx_driver.o
 .debug_info    0x000135ad     0x21be build/dsi_xlcdc_rgba8888_ws_9x75_curiosity_720x720_round/debug/_ext/105237591/legato_math.o
 .debug_info    0x0001576b      0xb2d build/dsi_xlcdc_rgba8888_ws_9x75_curiosity_720x720_round/debug/_ext/105237591/legato_rect.o
 .debug_info    0x00016298     0x2ab7 build/dsi_xlcdc_rgba8888_ws_9x75_curiosity_720x720_round/debug/_ext/105237591/legato_utils.o
 .debug_info    0x00018d4f      0x8e5 build/dsi_xlcdc_rgba8888_ws_9x75_curiosity_720x720_round/debug/_ext/105237591/legato_color_blend.o
 .debug_info    0x00019634      0xaa0 build/dsi_xlcdc_rgba8888_ws_9x75_curiosity_720x720_round/debug/_ext/105237591/legato_color.o
 .debug_info    0x0001a0d4     0x1122 build/dsi_xlcdc_rgba8888_ws_9x75_curiosity_720x720_round/debug/_ext/105237591/legato_color_lerp.o
 .debug_info    0x0001b1f6     0x2326 build/dsi_xlcdc_rgba8888_ws_9x75_curiosity_720x720_round/debug/_ext/105237591/legato_pixelbuffer.o
 .debug_info    0x0001d51c     0x19cb build/dsi_xlcdc_rgba8888_ws_9x75_curiosity_720x720_round/debug/_ext/105237591/legato_color_convert.o
 .debug_info    0x0001eee7     0x2389 build/dsi_xlcdc_rgba8888_ws_9x75_curiosity_720x720_round/debug/_ext/884805853/legato_event.o
 .debug_info    0x00021270      0xdab build/dsi_xlcdc_rgba8888_ws_9x75_curiosity_720x720_round/debug/_ext/884805853/legato_scheme.o
 .debug_info    0x0002201b     0x3ebf build/dsi_xlcdc_rgba8888_ws_9x75_curiosity_720x720_round/debug/_ext/884805853/legato_input.o
 .debug_info    0x00025eda     0x5402 build/dsi_xlcdc_rgba8888_ws_9x75_curiosity_720x720_round/debug/_ext/884805853/legato_state.o
 .debug_info    0x0002b2dc      0xebd build/dsi_xlcdc_rgba8888_ws_9x75_curiosity_720x720_round/debug/_ext/778592651/legato_array.o
 .debug_info    0x0002c199     0x184b build/dsi_xlcdc_rgba8888_ws_9x75_curiosity_720x720_round/debug/_ext/778592651/legato_rectarray.o
 .debug_info    0x0002d9e4      0xe1e build/dsi_xlcdc_rgba8888_ws_9x75_curiosity_720x720_round/debug/_ext/778592651/legato_list.o
 .debug_info    0x0002e802     0x1c54 build/dsi_xlcdc_rgba8888_ws_9x75_curiosity_720x720_round/debug/_ext/884895117/legato_font.o
 .debug_info    0x00030456      0x9cd build/dsi_xlcdc_rgba8888_ws_9x75_curiosity_720x720_round/debug/_ext/1382756211/le_gen_fonts.o
 .debug_info    0x00030e23     0x3a66 build/dsi_xlcdc_rgba8888_ws_9x75_curiosity_720x720_round/debug/_ext/86928605/le_gen_images.o
 .debug_info    0x00034889     0x490a build/dsi_xlcdc_rgba8888_ws_9x75_curiosity_720x720_round/debug/_ext/1322619606/le_gen_screen_Screen0.o
 .debug_info    0x00039193      0x8d5 build/dsi_xlcdc_rgba8888_ws_9x75_curiosity_720x720_round/debug/_ext/1965903633/le_gen_globalpalette.o
 .debug_info    0x00039a68     0x28f8 build/dsi_xlcdc_rgba8888_ws_9x75_curiosity_720x720_round/debug/_ext/1965903633/le_gen_harmony.o
 .debug_info    0x0003c360      0xa97 build/dsi_xlcdc_rgba8888_ws_9x75_curiosity_720x720_round/debug/_ext/1965903633/le_gen_scheme.o
 .debug_info    0x0003cdf7     0x1702 build/dsi_xlcdc_rgba8888_ws_9x75_curiosity_720x720_round/debug/_ext/1965903633/le_gen_stringtable.o
 .debug_info    0x0003e4f9      0xad1 build/dsi_xlcdc_rgba8888_ws_9x75_curiosity_720x720_round/debug/_ext/1965903633/le_gen_init.o
 .debug_info    0x0003efca     0x2c09 build/dsi_xlcdc_rgba8888_ws_9x75_curiosity_720x720_round/debug/_ext/979623078/legato_imagedecoder_jpeg_common.o
 .debug_info    0x00041bd3      0x68f build/dsi_xlcdc_rgba8888_ws_9x75_curiosity_720x720_round/debug/_ext/979623078/jidctint.o
 .debug_info    0x00042262     0x1da5 build/dsi_xlcdc_rgba8888_ws_9x75_curiosity_720x720_round/debug/_ext/979623078/legato_imagedecoder_jpeg.o
 .debug_info    0x00044007      0xdb0 build/dsi_xlcdc_rgba8888_ws_9x75_curiosity_720x720_round/debug/_ext/979534379/legato_imagedecoder_mono_read_internal.o
 .debug_info    0x00044db7     0x1d11 build/dsi_xlcdc_rgba8888_ws_9x75_curiosity_720x720_round/debug/_ext/979534379/legato_imagedecoder_mono.o
 .debug_info    0x00046ac8     0x13f9 build/dsi_xlcdc_rgba8888_ws_9x75_curiosity_720x720_round/debug/_ext/799688951/legato_imagedecoder_png.o
 .debug_info    0x00047ec1     0xc794 build/dsi_xlcdc_rgba8888_ws_9x75_curiosity_720x720_round/debug/_ext/799688951/lodepng.o
 .debug_info    0x00054655     0x111d build/dsi_xlcdc_rgba8888_ws_9x75_curiosity_720x720_round/debug/_ext/799690486/legato_imagedecoder_raw_convert.o
 .debug_info    0x00055772     0x1234 build/dsi_xlcdc_rgba8888_ws_9x75_curiosity_720x720_round/debug/_ext/799690486/legato_imagedecoder_raw_write.o
 .debug_info    0x000569a6     0x157b build/dsi_xlcdc_rgba8888_ws_9x75_curiosity_720x720_round/debug/_ext/799690486/legato_imagedecoder_raw_read_internal.o
 .debug_info    0x00057f21     0x14ce build/dsi_xlcdc_rgba8888_ws_9x75_curiosity_720x720_round/debug/_ext/799690486/legato_imagedecoder_raw_scale.o
 .debug_info    0x000593ef      0xf9f build/dsi_xlcdc_rgba8888_ws_9x75_curiosity_720x720_round/debug/_ext/799690486/legato_imagedecoder_raw_mask.o
 .debug_info    0x0005a38e     0x1346 build/dsi_xlcdc_rgba8888_ws_9x75_curiosity_720x720_round/debug/_ext/799690486/legato_imagedecoder_raw_blend.o
 .debug_info    0x0005b6d4     0x2e2a build/dsi_xlcdc_rgba8888_ws_9x75_curiosity_720x720_round/debug/_ext/799690486/legato_imagedecoder_raw.o
 .debug_info    0x0005e4fe     0x1083 build/dsi_xlcdc_rgba8888_ws_9x75_curiosity_720x720_round/debug/_ext/799690486/legato_imagedecoder_raw_setup.o
 .debug_info    0x0005f581     0x1302 build/dsi_xlcdc_rgba8888_ws_9x75_curiosity_720x720_round/debug/_ext/799690486/legato_imagedecoder_raw_rotate.o
 .debug_info    0x00060883     0x1414 build/dsi_xlcdc_rgba8888_ws_9x75_curiosity_720x720_round/debug/_ext/799690486/legato_imagedecoder_raw_palette_internal.o
 .debug_info    0x00061c97      0xc0d build/dsi_xlcdc_rgba8888_ws_9x75_curiosity_720x720_round/debug/_ext/1664643037/legato_image_utils.o
 .debug_info    0x000628a4     0x1b77 build/dsi_xlcdc_rgba8888_ws_9x75_curiosity_720x720_round/debug/_ext/1664643037/legato_image.o
 .debug_info    0x0006441b     0x253a build/dsi_xlcdc_rgba8888_ws_9x75_curiosity_720x720_round/debug/_ext/171820735/legato_variableheap.o
 .debug_info    0x00066955      0x92f build/dsi_xlcdc_rgba8888_ws_9x75_curiosity_720x720_round/debug/_ext/171820735/legato_fixedheap.o
 .debug_info    0x00067284     0x1deb build/dsi_xlcdc_rgba8888_ws_9x75_curiosity_720x720_round/debug/_ext/171820735/legato_memory.o
 .debug_info    0x0006906f     0x1a4d build/dsi_xlcdc_rgba8888_ws_9x75_curiosity_720x720_round/debug/_ext/2053165825/legato_draw.o
 .debug_info    0x0006aabc      0xe27 build/dsi_xlcdc_rgba8888_ws_9x75_curiosity_720x720_round/debug/_ext/2053165825/legato_draw_line.o
 .debug_info    0x0006b8e3      0xb81 build/dsi_xlcdc_rgba8888_ws_9x75_curiosity_720x720_round/debug/_ext/2053165825/legato_draw_rect.o
 .debug_info    0x0006c464     0x1cc1 build/dsi_xlcdc_rgba8888_ws_9x75_curiosity_720x720_round/debug/_ext/2053165825/legato_draw_arc.o
 .debug_info    0x0006e125     0x18fb build/dsi_xlcdc_rgba8888_ws_9x75_curiosity_720x720_round/debug/_ext/2053165825/legato_gpu.o
 .debug_info    0x0006fa20     0x5c35 build/dsi_xlcdc_rgba8888_ws_9x75_curiosity_720x720_round/debug/_ext/2053165825/legato_renderer.o
 .debug_info    0x00075655     0x1c2f build/dsi_xlcdc_rgba8888_ws_9x75_curiosity_720x720_round/debug/_ext/357591503/legato_string.o
 .debug_info    0x00077284     0x1fa9 build/dsi_xlcdc_rgba8888_ws_9x75_curiosity_720x720_round/debug/_ext/357591503/legato_stringutils.o
 .debug_info    0x0007922d     0x1a4e build/dsi_xlcdc_rgba8888_ws_9x75_curiosity_720x720_round/debug/_ext/357591503/legato_string_renderer.o
 .debug_info    0x0007ac7b     0x1dbe build/dsi_xlcdc_rgba8888_ws_9x75_curiosity_720x720_round/debug/_ext/357591503/legato_fixedstring.o
 .debug_info    0x0007ca39      0xf1d build/dsi_xlcdc_rgba8888_ws_9x75_curiosity_720x720_round/debug/_ext/357591503/legato_stringtable.o
 .debug_info    0x0007d956     0x200f build/dsi_xlcdc_rgba8888_ws_9x75_curiosity_720x720_round/debug/_ext/357591503/legato_tablestring.o
 .debug_info    0x0007f965     0x2e3f build/dsi_xlcdc_rgba8888_ws_9x75_curiosity_720x720_round/debug/_ext/1591588594/legato_widget_image_skin_classic.o
 .debug_info    0x000827a4     0x2e8d build/dsi_xlcdc_rgba8888_ws_9x75_curiosity_720x720_round/debug/_ext/1591588594/legato_widget_image.o
 .debug_info    0x00085631     0x35cc build/dsi_xlcdc_rgba8888_ws_9x75_curiosity_720x720_round/debug/_ext/1589174617/legato_widget_label_skin_classic.o
 .debug_info    0x00088bfd     0x331d build/dsi_xlcdc_rgba8888_ws_9x75_curiosity_720x720_round/debug/_ext/1589174617/legato_widget_label.o
 .debug_info    0x0008bf1a     0x3663 build/dsi_xlcdc_rgba8888_ws_9x75_curiosity_720x720_round/debug/_ext/461530114/legato_widget_skin_classic_common.o
 .debug_info    0x0008f57d     0x2442 build/dsi_xlcdc_rgba8888_ws_9x75_curiosity_720x720_round/debug/_ext/461530114/legato_widget_skin_classic.o
 .debug_info    0x000919bf     0x4bba build/dsi_xlcdc_rgba8888_ws_9x75_curiosity_720x720_round/debug/_ext/461530114/legato_widget.o
 .debug_info    0x00096579     0x1855 build/dsi_xlcdc_rgba8888_ws_9x75_curiosity_720x720_round/debug/_ext/1886844053/plib_aic.o
 .debug_info    0x00097dce      0x8c1 build/dsi_xlcdc_rgba8888_ws_9x75_curiosity_720x720_round/debug/_ext/1886846076/plib_clk.o
 .debug_info    0x0009868f      0xa41 build/dsi_xlcdc_rgba8888_ws_9x75_curiosity_720x720_round/debug/_ext/1637293614/plib_dbgu.o
 .debug_info    0x000990d0     0x18ae build/dsi_xlcdc_rgba8888_ws_9x75_curiosity_720x720_round/debug/_ext/545877704/plib_flexcom6_twi_master.o
 .debug_info    0x0009a97e     0x2a38 build/dsi_xlcdc_rgba8888_ws_9x75_curiosity_720x720_round/debug/_ext/786409605/plib_gfx2d.o
 .debug_info    0x0009d3b6     0x1278 build/dsi_xlcdc_rgba8888_ws_9x75_curiosity_720x720_round/debug/_ext/1886855727/plib_mmu.o
 .debug_info    0x0009e62e      0xbea build/dsi_xlcdc_rgba8888_ws_9x75_curiosity_720x720_round/debug/_ext/1886858480/plib_pio.o
 .debug_info    0x0009f218      0x7e0 build/dsi_xlcdc_rgba8888_ws_9x75_curiosity_720x720_round/debug/_ext/1886860748/plib_rtt.o
 .debug_info    0x0009f9f8      0xb5c build/dsi_xlcdc_rgba8888_ws_9x75_curiosity_720x720_round/debug/_ext/60866517/plib_tc1.o
 .debug_info    0x000a0554     0x12db build/dsi_xlcdc_rgba8888_ws_9x75_curiosity_720x720_round/debug/_ext/1477359996/xc32_monitor.o
 .debug_info    0x000a182f     0x1ef5 build/dsi_xlcdc_rgba8888_ws_9x75_curiosity_720x720_round/debug/_ext/1949213289/sys_input.o
 .debug_info    0x000a3724     0x12dd build/dsi_xlcdc_rgba8888_ws_9x75_curiosity_720x720_round/debug/_ext/586618287/sys_int.o
 .debug_info    0x000a4a01     0x3f80 build/dsi_xlcdc_rgba8888_ws_9x75_curiosity_720x720_round/debug/_ext/690637493/sys_time.o
 .debug_info    0x000a8981       0x22 build/dsi_xlcdc_rgba8888_ws_9x75_curiosity_720x720_round/debug/_ext/1295507646/cstartup.o
 .debug_info    0x000a89a3     0x1209 build/dsi_xlcdc_rgba8888_ws_9x75_curiosity_720x720_round/debug/_ext/1295507646/interrupts.o
 .debug_info    0x000a9bac     0x2c6e build/dsi_xlcdc_rgba8888_ws_9x75_curiosity_720x720_round/debug/_ext/1295507646/initialization.o
 .debug_info    0x000ac81a      0x3c4 build/dsi_xlcdc_rgba8888_ws_9x75_curiosity_720x720_round/debug/_ext/1295507646/fault_handlers.o
 .debug_info    0x000acbde     0x121d build/dsi_xlcdc_rgba8888_ws_9x75_curiosity_720x720_round/debug/_ext/1295507646/tasks.o
 .debug_info    0x000addfb     0x11bd build/dsi_xlcdc_rgba8888_ws_9x75_curiosity_720x720_round/debug/_ext/1360937237/main.o
 .debug_info    0x000aefb8     0x51b2 build/dsi_xlcdc_rgba8888_ws_9x75_curiosity_720x720_round/debug/_ext/1360937237/app.o
 .debug_info    0x000b416a     0x801d build/dsi_xlcdc_rgba8888_ws_9x75_curiosity_720x720_round/debug/_ext/1360937237/app_drive.o
 .debug_info    0x000bc187       0x26 c:/program files/microchip/xc32/v4.35/bin/bin/../../lib/gcc/pic32c/8.3.1/arm/v5te/nofp\libgcc.a(_udivsi3.o)
 .debug_info    0x000bc1ad       0x26 c:/program files/microchip/xc32/v4.35/bin/bin/../../lib/gcc/pic32c/8.3.1/arm/v5te/nofp\libgcc.a(_divsi3.o)
 .debug_info    0x000bc1d3       0x26 c:/program files/microchip/xc32/v4.35/bin/bin/../../lib/gcc/pic32c/8.3.1/arm/v5te/nofp\libgcc.a(_dvmd_tls.o)
 .debug_info    0x000bc1f9       0x26 c:/program files/microchip/xc32/v4.35/bin/bin/../../lib/gcc/pic32c/8.3.1/arm/v5te/nofp\libgcc.a(_arm_addsubsf3.o)
 .debug_info    0x000bc21f       0x26 c:/program files/microchip/xc32/v4.35/bin/bin/../../lib/gcc/pic32c/8.3.1/arm/v5te/nofp\libgcc.a(_arm_muldivsf3.o)
 .debug_info    0x000bc245       0x26 c:/program files/microchip/xc32/v4.35/bin/bin/../../lib/gcc/pic32c/8.3.1/arm/v5te/nofp\libgcc.a(_arm_cmpsf2.o)
 .debug_info    0x000bc26b       0x26 c:/program files/microchip/xc32/v4.35/bin/bin/../../lib/gcc/pic32c/8.3.1/arm/v5te/nofp\libgcc.a(_arm_fixsfsi.o)
 .debug_info    0x000bc291       0x26 c:/program files/microchip/xc32/v4.35/bin/bin/../../lib/gcc/pic32c/8.3.1/arm/v5te/nofp\libgcc.a(_arm_fixunssfsi.o)
 .debug_info    0x000bc2b7       0x26 c:/program files/microchip/xc32/v4.35/bin/bin/../../lib/gcc/pic32c/8.3.1/arm/v5te/nofp\libgcc.a(_aeabi_uldivmod.o)
 .debug_info    0x000bc2dd      0x3d9 c:/program files/microchip/xc32/v4.35/bin/bin/../../lib/gcc/pic32c/8.3.1/arm/v5te/nofp\libgcc.a(_udivmoddi4.o)
 .debug_info    0x000bc6b6      0x610 c:/program files/microchip/xc32/v4.35/bin/bin/../../lib/gcc/pic32c/8.3.1/../../../../pic32c/lib/arm/v5te/nofp\libg-musl.a(__libc_start_main.o)
 .debug_info    0x000bccc6      0x522 c:/program files/microchip/xc32/v4.35/bin/bin/../../lib/gcc/pic32c/8.3.1/../../../../pic32c/lib/arm/v5te/nofp\libg-musl.a(libc.o)
 .debug_info    0x000bd1e8      0x443 c:/program files/microchip/xc32/v4.35/bin/bin/../../lib/gcc/pic32c/8.3.1/../../../../pic32c/lib/arm/v5te/nofp\libg-musl.a(__sio_sprintf_dnpuxX.o)
 .debug_info    0x000bd62b      0x5af c:/program files/microchip/xc32/v4.35/bin/bin/../../lib/gcc/pic32c/8.3.1/../../../../pic32c/lib/arm/v5te/nofp\libg-musl.a(__fmt_d.o)
 .debug_info    0x000bdbda      0x580 c:/program files/microchip/xc32/v4.35/bin/bin/../../lib/gcc/pic32c/8.3.1/../../../../pic32c/lib/arm/v5te/nofp\libg-musl.a(__fmt_u.o)
 .debug_info    0x000be15a      0x5ee c:/program files/microchip/xc32/v4.35/bin/bin/../../lib/gcc/pic32c/8.3.1/../../../../pic32c/lib/arm/v5te/nofp\libg-musl.a(__fmt_x.o)
 .debug_info    0x000be748      0x3ed c:/program files/microchip/xc32/v4.35/bin/bin/../../lib/gcc/pic32c/8.3.1/../../../../pic32c/lib/arm/v5te/nofp\libg-musl.a(__pop_int.o)
 .debug_info    0x000beb35      0x3f3 c:/program files/microchip/xc32/v4.35/bin/bin/../../lib/gcc/pic32c/8.3.1/../../../../pic32c/lib/arm/v5te/nofp\libg-musl.a(__pop_ptr.o)
 .debug_info    0x000bef28      0xd36 c:/program files/microchip/xc32/v4.35/bin/bin/../../lib/gcc/pic32c/8.3.1/../../../../pic32c/lib/arm/v5te/nofp\libg-musl.a(__printf_core.o)
 .debug_info    0x000bfc5e      0x6ad c:/program files/microchip/xc32/v4.35/bin/bin/../../lib/gcc/pic32c/8.3.1/../../../../pic32c/lib/arm/v5te/nofp\libg-musl.a(stdin.o)
 .debug_info    0x000c030b      0x470 c:/program files/microchip/xc32/v4.35/bin/bin/../../lib/gcc/pic32c/8.3.1/../../../../pic32c/lib/arm/v5te/nofp\libg-musl.a(stdout.o)
 .debug_info    0x000c077b      0x634 c:/program files/microchip/xc32/v4.35/bin/bin/../../lib/gcc/pic32c/8.3.1/../../../../pic32c/lib/arm/v5te/nofp\libg-musl.a(puts.o)
 .debug_info    0x000c0daf      0x2d0 c:/program files/microchip/xc32/v4.35/bin/bin/../../lib/gcc/pic32c/8.3.1/../../../../pic32c/lib/arm/v5te/nofp\libg-musl.a(setbuf.o)
 .debug_info    0x000c107f      0x2e8 c:/program files/microchip/xc32/v4.35/bin/bin/../../lib/gcc/pic32c/8.3.1/../../../../pic32c/lib/arm/v5te/nofp\libg-musl.a(atoi.o)
 .debug_info    0x000c1367      0x2e7 c:/program files/microchip/xc32/v4.35/bin/bin/../../lib/gcc/pic32c/8.3.1/../../../../pic32c/lib/arm/v5te/nofp\libg-musl.a(memcpy.o)
 .debug_info    0x000c164e      0x2e9 c:/program files/microchip/xc32/v4.35/bin/bin/../../lib/gcc/pic32c/8.3.1/../../../../pic32c/lib/arm/v5te/nofp\libg-musl.a(memmove.o)
 .debug_info    0x000c1937      0x2ac c:/program files/microchip/xc32/v4.35/bin/bin/../../lib/gcc/pic32c/8.3.1/../../../../pic32c/lib/arm/v5te/nofp\libg-musl.a(memset.o)
 .debug_info    0x000c1be3      0x297 c:/program files/microchip/xc32/v4.35/bin/bin/../../lib/gcc/pic32c/8.3.1/../../../../pic32c/lib/arm/v5te/nofp\libg-musl.a(strlen.o)
 .debug_info    0x000c1e7a      0x340 c:/program files/microchip/xc32/v4.35/bin/bin/../../lib/gcc/pic32c/8.3.1/../../../../pic32c/lib/arm/v5te/nofp\libg-musl.a(tolower.o)
 .debug_info    0x000c21ba      0x340 c:/program files/microchip/xc32/v4.35/bin/bin/../../lib/gcc/pic32c/8.3.1/../../../../pic32c/lib/arm/v5te/nofp\libg-musl.a(toupper.o)
 .debug_info    0x000c24fa      0x29c c:/program files/microchip/xc32/v4.35/bin/bin/../../lib/gcc/pic32c/8.3.1/../../../../pic32c/lib/arm/v5te/nofp\libg-musl.a(__environ.o)
 .debug_info    0x000c2796      0x260 c:/program files/microchip/xc32/v4.35/bin/bin/../../lib/gcc/pic32c/8.3.1/../../../../pic32c/lib/arm/v5te/nofp\libg-musl.a(__errno_location.o)
 .debug_info    0x000c29f6      0x466 c:/program files/microchip/xc32/v4.35/bin/bin/../../lib/gcc/pic32c/8.3.1/../../../../pic32c/lib/arm/v5te/nofp\libg-musl.a(__int_vfprintf.o)
 .debug_info    0x000c2e5c      0x391 c:/program files/microchip/xc32/v4.35/bin/bin/../../lib/gcc/pic32c/8.3.1/../../../../pic32c/lib/arm/v5te/nofp\libg-musl.a(__int_vsprintf.o)
 .debug_info    0x000c31ed      0x644 c:/program files/microchip/xc32/v4.35/bin/bin/../../lib/gcc/pic32c/8.3.1/../../../../pic32c/lib/arm/v5te/nofp\libg-musl.a(fputs.o)
 .debug_info    0x000c3831      0x426 c:/program files/microchip/xc32/v4.35/bin/bin/../../lib/gcc/pic32c/8.3.1/../../../../pic32c/lib/arm/v5te/nofp\libg-musl.a(__cvt_u.o)
 .debug_info    0x000c3c57      0x3ca c:/program files/microchip/xc32/v4.35/bin/bin/../../lib/gcc/pic32c/8.3.1/../../../../pic32c/lib/arm/v5te/nofp\libg-musl.a(__pop_float.o)
 .debug_info    0x000c4021      0x697 c:/program files/microchip/xc32/v4.35/bin/bin/../../lib/gcc/pic32c/8.3.1/../../../../pic32c/lib/arm/v5te/nofp\libg-musl.a(__stdio_read.o)
 .debug_info    0x000c46b8      0x5c6 c:/program files/microchip/xc32/v4.35/bin/bin/../../lib/gcc/pic32c/8.3.1/../../../../pic32c/lib/arm/v5te/nofp\libg-musl.a(__towrite_rw.o)
 .debug_info    0x000c4c7e      0x4c0 c:/program files/microchip/xc32/v4.35/bin/bin/../../lib/gcc/pic32c/8.3.1/../../../../pic32c/lib/arm/v5te/nofp\libg-musl.a(fwrite.o)
 .debug_info    0x000c513e      0x494 c:/program files/microchip/xc32/v4.35/bin/bin/../../lib/gcc/pic32c/8.3.1/../../../../pic32c/lib/arm/v5te/nofp\libg-musl.a(putc.o)
 .debug_info    0x000c55d2      0x53a c:/program files/microchip/xc32/v4.35/bin/bin/../../lib/gcc/pic32c/8.3.1/../../../../pic32c/lib/arm/v5te/nofp\libg-musl.a(setvbuf.o)
 .debug_info    0x000c5b0c      0x353 c:/program files/microchip/xc32/v4.35/bin/bin/../../lib/gcc/pic32c/8.3.1/../../../../pic32c/lib/arm/v5te/nofp\libg-musl.a(readv.o)
 .debug_info    0x000c5e5f     0x138d c:/program files/microchip/xc32/v4.35/bin/bin/../../lib/gcc/pic32c/8.3.1/../../../../pic32c/lib/arm/v5te/nofp\libg-musl.a(malloc.o)
 .debug_info    0x000c71ec      0x369 c:/program files/microchip/xc32/v4.35/bin/bin/../../lib/gcc/pic32c/8.3.1/../../../../pic32c/lib/arm/v5te/nofp\libg-musl.a(expand_heap.o)
 .debug_info    0x000c7555      0x494 c:/program files/microchip/xc32/v4.35/bin/bin/../../lib/gcc/pic32c/8.3.1/../../../../pic32c/lib/arm/v5te/nofp\libg-musl.a(__int_vsnprintf.o)
 .debug_info    0x000c79e9      0x319 c:/program files/microchip/xc32/v4.35/bin/bin/../../lib/gcc/pic32c/8.3.1/../../../../pic32c/lib/arm/v5te/nofp\libg-musl.a(__init_stdio.o)
 .debug_info    0x000c7d02      0x51d c:/program files/microchip/xc32/v4.35/bin/bin/../../lib/gcc/pic32c/8.3.1/../../../../pic32c/lib/arm/v5te/nofp\libg-musl.a(__out.o)
 .debug_info    0x000c821f      0x4f1 c:/program files/microchip/xc32/v4.35/bin/bin/../../lib/gcc/pic32c/8.3.1/../../../../pic32c/lib/arm/v5te/nofp\libg-musl.a(__putc.o)
 .debug_info    0x000c8710      0x651 c:/program files/microchip/xc32/v4.35/bin/bin/../../lib/gcc/pic32c/8.3.1/../../../../pic32c/lib/arm/v5te/nofp\libg-musl.a(__stderr.o)
 .debug_info    0x000c8d61      0x6a5 c:/program files/microchip/xc32/v4.35/bin/bin/../../lib/gcc/pic32c/8.3.1/../../../../pic32c/lib/arm/v5te/nofp\libg-musl.a(__stdio_close.o)
 .debug_info    0x000c9406      0x6e4 c:/program files/microchip/xc32/v4.35/bin/bin/../../lib/gcc/pic32c/8.3.1/../../../../pic32c/lib/arm/v5te/nofp\libg-musl.a(__stdio_write.o)
 .debug_info    0x000c9aea      0x651 c:/program files/microchip/xc32/v4.35/bin/bin/../../lib/gcc/pic32c/8.3.1/../../../../pic32c/lib/arm/v5te/nofp\libg-musl.a(__stdout.o)
 .debug_info    0x000ca13b      0x4e2 c:/program files/microchip/xc32/v4.35/bin/bin/../../lib/gcc/pic32c/8.3.1/../../../../pic32c/lib/arm/v5te/nofp\libg-musl.a(__towrite.o)
 .debug_info    0x000ca61d      0x357 c:/program files/microchip/xc32/v4.35/bin/bin/../../lib/gcc/pic32c/8.3.1/../../../../pic32c/lib/arm/v5te/nofp\libg-musl.a(writev.o)
 .debug_info    0x000ca974      0x614 c:/program files/microchip/xc32/v4.35/bin/bin/../../lib/gcc/pic32c/8.3.1/../../../../pic32c/lib/arm/v5te/nofp\libg-musl.a(__overflow.o)
 .debug_info    0x000caf88      0x533 c:/program files/microchip/xc32/v4.35/bin/bin/../../lib/gcc/pic32c/8.3.1/../../../../pic32c/lib/arm/v5te/nofp\libg-musl.a(__fwrite.o)
 .debug_info    0x000cb4bb      0x274 c:/program files/microchip/xc32/v4.35/bin/bin/../../lib/gcc/pic32c/8.3.1/../../../../pic32c/lib/arm/v5te/nofp\libpic32c.a(close.o)
 .debug_info    0x000cb72f      0x274 c:/program files/microchip/xc32/v4.35/bin/bin/../../lib/gcc/pic32c/8.3.1/../../../../pic32c/lib/arm/v5te/nofp\libpic32c.a(lseek.o)
 .debug_info    0x000cb9a3      0x273 c:/program files/microchip/xc32/v4.35/bin/bin/../../lib/gcc/pic32c/8.3.1/../../../../pic32c/lib/arm/v5te/nofp\libpic32c.a(sbrk.o)

.debug_abbrev   0x00000000    0x1693f
 .debug_abbrev  0x00000000      0x596 build/dsi_xlcdc_rgba8888_ws_9x75_curiosity_720x720_round/debug/_ext/1985065589/drv_i2c.o
 .debug_abbrev  0x00000596      0x3ab build/dsi_xlcdc_rgba8888_ws_9x75_curiosity_720x720_round/debug/_ext/2010836581/gfx_canvas_api.o
 .debug_abbrev  0x00000941      0x61c build/dsi_xlcdc_rgba8888_ws_9x75_curiosity_720x720_round/debug/_ext/2010836581/gfx_canvas.o
 .debug_abbrev  0x00000f5d      0x339 build/dsi_xlcdc_rgba8888_ws_9x75_curiosity_720x720_round/debug/_ext/1085405985/ws_touch_display.o
 .debug_abbrev  0x00001296      0x329 build/dsi_xlcdc_rgba8888_ws_9x75_curiosity_720x720_round/debug/_ext/219820618/drv_gfx2d.o
 .debug_abbrev  0x000015bf      0x219 build/dsi_xlcdc_rgba8888_ws_9x75_curiosity_720x720_round/debug/_ext/1247915868/plib_dsi.o
 .debug_abbrev  0x000017d8      0x33f build/dsi_xlcdc_rgba8888_ws_9x75_curiosity_720x720_round/debug/_ext/225302149/plib_xlcdc.o
 .debug_abbrev  0x00001b17      0x379 build/dsi_xlcdc_rgba8888_ws_9x75_curiosity_720x720_round/debug/_ext/505007713/drv_gfx_xlcdc.o
 .debug_abbrev  0x00001e90      0x57f build/dsi_xlcdc_rgba8888_ws_9x75_curiosity_720x720_round/debug/_ext/1966656405/gfx_driver.o
 .debug_abbrev  0x0000240f      0x521 build/dsi_xlcdc_rgba8888_ws_9x75_curiosity_720x720_round/debug/_ext/105237591/legato_math.o
 .debug_abbrev  0x00002930      0x299 build/dsi_xlcdc_rgba8888_ws_9x75_curiosity_720x720_round/debug/_ext/105237591/legato_rect.o
 .debug_abbrev  0x00002bc9      0x400 build/dsi_xlcdc_rgba8888_ws_9x75_curiosity_720x720_round/debug/_ext/105237591/legato_utils.o
 .debug_abbrev  0x00002fc9      0x18b build/dsi_xlcdc_rgba8888_ws_9x75_curiosity_720x720_round/debug/_ext/105237591/legato_color_blend.o
 .debug_abbrev  0x00003154      0x1dc build/dsi_xlcdc_rgba8888_ws_9x75_curiosity_720x720_round/debug/_ext/105237591/legato_color.o
 .debug_abbrev  0x00003330      0x384 build/dsi_xlcdc_rgba8888_ws_9x75_curiosity_720x720_round/debug/_ext/105237591/legato_color_lerp.o
 .debug_abbrev  0x000036b4      0x521 build/dsi_xlcdc_rgba8888_ws_9x75_curiosity_720x720_round/debug/_ext/105237591/legato_pixelbuffer.o
 .debug_abbrev  0x00003bd5      0x2db build/dsi_xlcdc_rgba8888_ws_9x75_curiosity_720x720_round/debug/_ext/105237591/legato_color_convert.o
 .debug_abbrev  0x00003eb0      0x37c build/dsi_xlcdc_rgba8888_ws_9x75_curiosity_720x720_round/debug/_ext/884805853/legato_event.o
 .debug_abbrev  0x0000422c      0x288 build/dsi_xlcdc_rgba8888_ws_9x75_curiosity_720x720_round/debug/_ext/884805853/legato_scheme.o
 .debug_abbrev  0x000044b4      0x442 build/dsi_xlcdc_rgba8888_ws_9x75_curiosity_720x720_round/debug/_ext/884805853/legato_input.o
 .debug_abbrev  0x000048f6      0x5ff build/dsi_xlcdc_rgba8888_ws_9x75_curiosity_720x720_round/debug/_ext/884805853/legato_state.o
 .debug_abbrev  0x00004ef5      0x319 build/dsi_xlcdc_rgba8888_ws_9x75_curiosity_720x720_round/debug/_ext/778592651/legato_array.o
 .debug_abbrev  0x0000520e      0x3df build/dsi_xlcdc_rgba8888_ws_9x75_curiosity_720x720_round/debug/_ext/778592651/legato_rectarray.o
 .debug_abbrev  0x000055ed      0x375 build/dsi_xlcdc_rgba8888_ws_9x75_curiosity_720x720_round/debug/_ext/778592651/legato_list.o
 .debug_abbrev  0x00005962      0x447 build/dsi_xlcdc_rgba8888_ws_9x75_curiosity_720x720_round/debug/_ext/884895117/legato_font.o
 .debug_abbrev  0x00005da9      0x179 build/dsi_xlcdc_rgba8888_ws_9x75_curiosity_720x720_round/debug/_ext/1382756211/le_gen_fonts.o
 .debug_abbrev  0x00005f22      0x1aa build/dsi_xlcdc_rgba8888_ws_9x75_curiosity_720x720_round/debug/_ext/86928605/le_gen_images.o
 .debug_abbrev  0x000060cc      0x39a build/dsi_xlcdc_rgba8888_ws_9x75_curiosity_720x720_round/debug/_ext/1322619606/le_gen_screen_Screen0.o
 .debug_abbrev  0x00006466      0x154 build/dsi_xlcdc_rgba8888_ws_9x75_curiosity_720x720_round/debug/_ext/1965903633/le_gen_globalpalette.o
 .debug_abbrev  0x000065ba      0x2c8 build/dsi_xlcdc_rgba8888_ws_9x75_curiosity_720x720_round/debug/_ext/1965903633/le_gen_harmony.o
 .debug_abbrev  0x00006882      0x1a8 build/dsi_xlcdc_rgba8888_ws_9x75_curiosity_720x720_round/debug/_ext/1965903633/le_gen_scheme.o
 .debug_abbrev  0x00006a2a      0x206 build/dsi_xlcdc_rgba8888_ws_9x75_curiosity_720x720_round/debug/_ext/1965903633/le_gen_stringtable.o
 .debug_abbrev  0x00006c30      0x240 build/dsi_xlcdc_rgba8888_ws_9x75_curiosity_720x720_round/debug/_ext/1965903633/le_gen_init.o
 .debug_abbrev  0x00006e70      0x51b build/dsi_xlcdc_rgba8888_ws_9x75_curiosity_720x720_round/debug/_ext/979623078/legato_imagedecoder_jpeg_common.o
 .debug_abbrev  0x0000738b      0x130 build/dsi_xlcdc_rgba8888_ws_9x75_curiosity_720x720_round/debug/_ext/979623078/jidctint.o
 .debug_abbrev  0x000074bb      0x3b7 build/dsi_xlcdc_rgba8888_ws_9x75_curiosity_720x720_round/debug/_ext/979623078/legato_imagedecoder_jpeg.o
 .debug_abbrev  0x00007872      0x223 build/dsi_xlcdc_rgba8888_ws_9x75_curiosity_720x720_round/debug/_ext/979534379/legato_imagedecoder_mono_read_internal.o
 .debug_abbrev  0x00007a95      0x4a7 build/dsi_xlcdc_rgba8888_ws_9x75_curiosity_720x720_round/debug/_ext/979534379/legato_imagedecoder_mono.o
 .debug_abbrev  0x00007f3c      0x320 build/dsi_xlcdc_rgba8888_ws_9x75_curiosity_720x720_round/debug/_ext/799688951/legato_imagedecoder_png.o
 .debug_abbrev  0x0000825c      0x633 build/dsi_xlcdc_rgba8888_ws_9x75_curiosity_720x720_round/debug/_ext/799688951/lodepng.o
 .debug_abbrev  0x0000888f      0x231 build/dsi_xlcdc_rgba8888_ws_9x75_curiosity_720x720_round/debug/_ext/799690486/legato_imagedecoder_raw_convert.o
 .debug_abbrev  0x00008ac0      0x22e build/dsi_xlcdc_rgba8888_ws_9x75_curiosity_720x720_round/debug/_ext/799690486/legato_imagedecoder_raw_write.o
 .debug_abbrev  0x00008cee      0x29a build/dsi_xlcdc_rgba8888_ws_9x75_curiosity_720x720_round/debug/_ext/799690486/legato_imagedecoder_raw_read_internal.o
 .debug_abbrev  0x00008f88      0x261 build/dsi_xlcdc_rgba8888_ws_9x75_curiosity_720x720_round/debug/_ext/799690486/legato_imagedecoder_raw_scale.o
 .debug_abbrev  0x000091e9      0x1ef build/dsi_xlcdc_rgba8888_ws_9x75_curiosity_720x720_round/debug/_ext/799690486/legato_imagedecoder_raw_mask.o
 .debug_abbrev  0x000093d8      0x2bd build/dsi_xlcdc_rgba8888_ws_9x75_curiosity_720x720_round/debug/_ext/799690486/legato_imagedecoder_raw_blend.o
 .debug_abbrev  0x00009695      0x53f build/dsi_xlcdc_rgba8888_ws_9x75_curiosity_720x720_round/debug/_ext/799690486/legato_imagedecoder_raw.o
 .debug_abbrev  0x00009bd4      0x226 build/dsi_xlcdc_rgba8888_ws_9x75_curiosity_720x720_round/debug/_ext/799690486/legato_imagedecoder_raw_setup.o
 .debug_abbrev  0x00009dfa      0x25f build/dsi_xlcdc_rgba8888_ws_9x75_curiosity_720x720_round/debug/_ext/799690486/legato_imagedecoder_raw_rotate.o
 .debug_abbrev  0x0000a059      0x283 build/dsi_xlcdc_rgba8888_ws_9x75_curiosity_720x720_round/debug/_ext/799690486/legato_imagedecoder_raw_palette_internal.o
 .debug_abbrev  0x0000a2dc      0x220 build/dsi_xlcdc_rgba8888_ws_9x75_curiosity_720x720_round/debug/_ext/1664643037/legato_image_utils.o
 .debug_abbrev  0x0000a4fc      0x4a2 build/dsi_xlcdc_rgba8888_ws_9x75_curiosity_720x720_round/debug/_ext/1664643037/legato_image.o
 .debug_abbrev  0x0000a99e      0x415 build/dsi_xlcdc_rgba8888_ws_9x75_curiosity_720x720_round/debug/_ext/171820735/legato_variableheap.o
 .debug_abbrev  0x0000adb3      0x220 build/dsi_xlcdc_rgba8888_ws_9x75_curiosity_720x720_round/debug/_ext/171820735/legato_fixedheap.o
 .debug_abbrev  0x0000afd3      0x458 build/dsi_xlcdc_rgba8888_ws_9x75_curiosity_720x720_round/debug/_ext/171820735/legato_memory.o
 .debug_abbrev  0x0000b42b      0x3cf build/dsi_xlcdc_rgba8888_ws_9x75_curiosity_720x720_round/debug/_ext/2053165825/legato_draw.o
 .debug_abbrev  0x0000b7fa      0x1ef build/dsi_xlcdc_rgba8888_ws_9x75_curiosity_720x720_round/debug/_ext/2053165825/legato_draw_line.o
 .debug_abbrev  0x0000b9e9      0x1f5 build/dsi_xlcdc_rgba8888_ws_9x75_curiosity_720x720_round/debug/_ext/2053165825/legato_draw_rect.o
 .debug_abbrev  0x0000bbde      0x451 build/dsi_xlcdc_rgba8888_ws_9x75_curiosity_720x720_round/debug/_ext/2053165825/legato_draw_arc.o
 .debug_abbrev  0x0000c02f      0x37f build/dsi_xlcdc_rgba8888_ws_9x75_curiosity_720x720_round/debug/_ext/2053165825/legato_gpu.o
 .debug_abbrev  0x0000c3ae      0x6f7 build/dsi_xlcdc_rgba8888_ws_9x75_curiosity_720x720_round/debug/_ext/2053165825/legato_renderer.o
 .debug_abbrev  0x0000caa5      0x39e build/dsi_xlcdc_rgba8888_ws_9x75_curiosity_720x720_round/debug/_ext/357591503/legato_string.o
 .debug_abbrev  0x0000ce43      0x53c build/dsi_xlcdc_rgba8888_ws_9x75_curiosity_720x720_round/debug/_ext/357591503/legato_stringutils.o
 .debug_abbrev  0x0000d37f      0x367 build/dsi_xlcdc_rgba8888_ws_9x75_curiosity_720x720_round/debug/_ext/357591503/legato_string_renderer.o
 .debug_abbrev  0x0000d6e6      0x43f build/dsi_xlcdc_rgba8888_ws_9x75_curiosity_720x720_round/debug/_ext/357591503/legato_fixedstring.o
 .debug_abbrev  0x0000db25      0x2f0 build/dsi_xlcdc_rgba8888_ws_9x75_curiosity_720x720_round/debug/_ext/357591503/legato_stringtable.o
 .debug_abbrev  0x0000de15      0x42e build/dsi_xlcdc_rgba8888_ws_9x75_curiosity_720x720_round/debug/_ext/357591503/legato_tablestring.o
 .debug_abbrev  0x0000e243      0x384 build/dsi_xlcdc_rgba8888_ws_9x75_curiosity_720x720_round/debug/_ext/1591588594/legato_widget_image_skin_classic.o
 .debug_abbrev  0x0000e5c7      0x3df build/dsi_xlcdc_rgba8888_ws_9x75_curiosity_720x720_round/debug/_ext/1591588594/legato_widget_image.o
 .debug_abbrev  0x0000e9a6      0x3ae build/dsi_xlcdc_rgba8888_ws_9x75_curiosity_720x720_round/debug/_ext/1589174617/legato_widget_label_skin_classic.o
 .debug_abbrev  0x0000ed54      0x42a build/dsi_xlcdc_rgba8888_ws_9x75_curiosity_720x720_round/debug/_ext/1589174617/legato_widget_label.o
 .debug_abbrev  0x0000f17e      0x43e build/dsi_xlcdc_rgba8888_ws_9x75_curiosity_720x720_round/debug/_ext/461530114/legato_widget_skin_classic_common.o
 .debug_abbrev  0x0000f5bc      0x32a build/dsi_xlcdc_rgba8888_ws_9x75_curiosity_720x720_round/debug/_ext/461530114/legato_widget_skin_classic.o
 .debug_abbrev  0x0000f8e6      0x640 build/dsi_xlcdc_rgba8888_ws_9x75_curiosity_720x720_round/debug/_ext/461530114/legato_widget.o
 .debug_abbrev  0x0000ff26      0x2f3 build/dsi_xlcdc_rgba8888_ws_9x75_curiosity_720x720_round/debug/_ext/1886844053/plib_aic.o
 .debug_abbrev  0x00010219      0x149 build/dsi_xlcdc_rgba8888_ws_9x75_curiosity_720x720_round/debug/_ext/1886846076/plib_clk.o
 .debug_abbrev  0x00010362      0x221 build/dsi_xlcdc_rgba8888_ws_9x75_curiosity_720x720_round/debug/_ext/1637293614/plib_dbgu.o
 .debug_abbrev  0x00010583      0x3ae build/dsi_xlcdc_rgba8888_ws_9x75_curiosity_720x720_round/debug/_ext/545877704/plib_flexcom6_twi_master.o
 .debug_abbrev  0x00010931      0x4ba build/dsi_xlcdc_rgba8888_ws_9x75_curiosity_720x720_round/debug/_ext/786409605/plib_gfx2d.o
 .debug_abbrev  0x00010deb      0x2ee build/dsi_xlcdc_rgba8888_ws_9x75_curiosity_720x720_round/debug/_ext/1886855727/plib_mmu.o
 .debug_abbrev  0x000110d9      0x139 build/dsi_xlcdc_rgba8888_ws_9x75_curiosity_720x720_round/debug/_ext/1886858480/plib_pio.o
 .debug_abbrev  0x00011212      0x1d0 build/dsi_xlcdc_rgba8888_ws_9x75_curiosity_720x720_round/debug/_ext/1886860748/plib_rtt.o
 .debug_abbrev  0x000113e2      0x245 build/dsi_xlcdc_rgba8888_ws_9x75_curiosity_720x720_round/debug/_ext/60866517/plib_tc1.o
 .debug_abbrev  0x00011627      0x228 build/dsi_xlcdc_rgba8888_ws_9x75_curiosity_720x720_round/debug/_ext/1477359996/xc32_monitor.o
 .debug_abbrev  0x0001184f      0x220 build/dsi_xlcdc_rgba8888_ws_9x75_curiosity_720x720_round/debug/_ext/1949213289/sys_input.o
 .debug_abbrev  0x00011a6f      0x322 build/dsi_xlcdc_rgba8888_ws_9x75_curiosity_720x720_round/debug/_ext/586618287/sys_int.o
 .debug_abbrev  0x00011d91      0x5d6 build/dsi_xlcdc_rgba8888_ws_9x75_curiosity_720x720_round/debug/_ext/690637493/sys_time.o
 .debug_abbrev  0x00012367       0x12 build/dsi_xlcdc_rgba8888_ws_9x75_curiosity_720x720_round/debug/_ext/1295507646/cstartup.o
 .debug_abbrev  0x00012379      0x1f5 build/dsi_xlcdc_rgba8888_ws_9x75_curiosity_720x720_round/debug/_ext/1295507646/interrupts.o
 .debug_abbrev  0x0001256e      0x369 build/dsi_xlcdc_rgba8888_ws_9x75_curiosity_720x720_round/debug/_ext/1295507646/initialization.o
 .debug_abbrev  0x000128d7       0x3e build/dsi_xlcdc_rgba8888_ws_9x75_curiosity_720x720_round/debug/_ext/1295507646/fault_handlers.o
 .debug_abbrev  0x00012915      0x203 build/dsi_xlcdc_rgba8888_ws_9x75_curiosity_720x720_round/debug/_ext/1295507646/tasks.o
 .debug_abbrev  0x00012b18      0x20e build/dsi_xlcdc_rgba8888_ws_9x75_curiosity_720x720_round/debug/_ext/1360937237/main.o
 .debug_abbrev  0x00012d26      0x435 build/dsi_xlcdc_rgba8888_ws_9x75_curiosity_720x720_round/debug/_ext/1360937237/app.o
 .debug_abbrev  0x0001315b      0x48c build/dsi_xlcdc_rgba8888_ws_9x75_curiosity_720x720_round/debug/_ext/1360937237/app_drive.o
 .debug_abbrev  0x000135e7       0x14 c:/program files/microchip/xc32/v4.35/bin/bin/../../lib/gcc/pic32c/8.3.1/arm/v5te/nofp\libgcc.a(_udivsi3.o)
 .debug_abbrev  0x000135fb       0x14 c:/program files/microchip/xc32/v4.35/bin/bin/../../lib/gcc/pic32c/8.3.1/arm/v5te/nofp\libgcc.a(_divsi3.o)
 .debug_abbrev  0x0001360f       0x14 c:/program files/microchip/xc32/v4.35/bin/bin/../../lib/gcc/pic32c/8.3.1/arm/v5te/nofp\libgcc.a(_dvmd_tls.o)
 .debug_abbrev  0x00013623       0x14 c:/program files/microchip/xc32/v4.35/bin/bin/../../lib/gcc/pic32c/8.3.1/arm/v5te/nofp\libgcc.a(_arm_addsubsf3.o)
 .debug_abbrev  0x00013637       0x14 c:/program files/microchip/xc32/v4.35/bin/bin/../../lib/gcc/pic32c/8.3.1/arm/v5te/nofp\libgcc.a(_arm_muldivsf3.o)
 .debug_abbrev  0x0001364b       0x14 c:/program files/microchip/xc32/v4.35/bin/bin/../../lib/gcc/pic32c/8.3.1/arm/v5te/nofp\libgcc.a(_arm_cmpsf2.o)
 .debug_abbrev  0x0001365f       0x14 c:/program files/microchip/xc32/v4.35/bin/bin/../../lib/gcc/pic32c/8.3.1/arm/v5te/nofp\libgcc.a(_arm_fixsfsi.o)
 .debug_abbrev  0x00013673       0x14 c:/program files/microchip/xc32/v4.35/bin/bin/../../lib/gcc/pic32c/8.3.1/arm/v5te/nofp\libgcc.a(_arm_fixunssfsi.o)
 .debug_abbrev  0x00013687       0x14 c:/program files/microchip/xc32/v4.35/bin/bin/../../lib/gcc/pic32c/8.3.1/arm/v5te/nofp\libgcc.a(_aeabi_uldivmod.o)
 .debug_abbrev  0x0001369b       0x8e c:/program files/microchip/xc32/v4.35/bin/bin/../../lib/gcc/pic32c/8.3.1/arm/v5te/nofp\libgcc.a(_udivmoddi4.o)
 .debug_abbrev  0x00013729      0x117 c:/program files/microchip/xc32/v4.35/bin/bin/../../lib/gcc/pic32c/8.3.1/../../../../pic32c/lib/arm/v5te/nofp\libg-musl.a(__libc_start_main.o)
 .debug_abbrev  0x00013840       0xb8 c:/program files/microchip/xc32/v4.35/bin/bin/../../lib/gcc/pic32c/8.3.1/../../../../pic32c/lib/arm/v5te/nofp\libg-musl.a(libc.o)
 .debug_abbrev  0x000138f8      0x12e c:/program files/microchip/xc32/v4.35/bin/bin/../../lib/gcc/pic32c/8.3.1/../../../../pic32c/lib/arm/v5te/nofp\libg-musl.a(__sio_sprintf_dnpuxX.o)
 .debug_abbrev  0x00013a26      0x120 c:/program files/microchip/xc32/v4.35/bin/bin/../../lib/gcc/pic32c/8.3.1/../../../../pic32c/lib/arm/v5te/nofp\libg-musl.a(__fmt_d.o)
 .debug_abbrev  0x00013b46      0x120 c:/program files/microchip/xc32/v4.35/bin/bin/../../lib/gcc/pic32c/8.3.1/../../../../pic32c/lib/arm/v5te/nofp\libg-musl.a(__fmt_u.o)
 .debug_abbrev  0x00013c66      0x10f c:/program files/microchip/xc32/v4.35/bin/bin/../../lib/gcc/pic32c/8.3.1/../../../../pic32c/lib/arm/v5te/nofp\libg-musl.a(__fmt_x.o)
 .debug_abbrev  0x00013d75       0xbd c:/program files/microchip/xc32/v4.35/bin/bin/../../lib/gcc/pic32c/8.3.1/../../../../pic32c/lib/arm/v5te/nofp\libg-musl.a(__pop_int.o)
 .debug_abbrev  0x00013e32       0xce c:/program files/microchip/xc32/v4.35/bin/bin/../../lib/gcc/pic32c/8.3.1/../../../../pic32c/lib/arm/v5te/nofp\libg-musl.a(__pop_ptr.o)
 .debug_abbrev  0x00013f00      0x2c5 c:/program files/microchip/xc32/v4.35/bin/bin/../../lib/gcc/pic32c/8.3.1/../../../../pic32c/lib/arm/v5te/nofp\libg-musl.a(__printf_core.o)
 .debug_abbrev  0x000141c5      0x178 c:/program files/microchip/xc32/v4.35/bin/bin/../../lib/gcc/pic32c/8.3.1/../../../../pic32c/lib/arm/v5te/nofp\libg-musl.a(stdin.o)
 .debug_abbrev  0x0001433d      0x135 c:/program files/microchip/xc32/v4.35/bin/bin/../../lib/gcc/pic32c/8.3.1/../../../../pic32c/lib/arm/v5te/nofp\libg-musl.a(stdout.o)
 .debug_abbrev  0x00014472      0x151 c:/program files/microchip/xc32/v4.35/bin/bin/../../lib/gcc/pic32c/8.3.1/../../../../pic32c/lib/arm/v5te/nofp\libg-musl.a(puts.o)
 .debug_abbrev  0x000145c3       0xa0 c:/program files/microchip/xc32/v4.35/bin/bin/../../lib/gcc/pic32c/8.3.1/../../../../pic32c/lib/arm/v5te/nofp\libg-musl.a(setbuf.o)
 .debug_abbrev  0x00014663       0xbb c:/program files/microchip/xc32/v4.35/bin/bin/../../lib/gcc/pic32c/8.3.1/../../../../pic32c/lib/arm/v5te/nofp\libg-musl.a(atoi.o)
 .debug_abbrev  0x0001471e       0x9c c:/program files/microchip/xc32/v4.35/bin/bin/../../lib/gcc/pic32c/8.3.1/../../../../pic32c/lib/arm/v5te/nofp\libg-musl.a(memcpy.o)
 .debug_abbrev  0x000147ba       0xa3 c:/program files/microchip/xc32/v4.35/bin/bin/../../lib/gcc/pic32c/8.3.1/../../../../pic32c/lib/arm/v5te/nofp\libg-musl.a(memmove.o)
 .debug_abbrev  0x0001485d       0x97 c:/program files/microchip/xc32/v4.35/bin/bin/../../lib/gcc/pic32c/8.3.1/../../../../pic32c/lib/arm/v5te/nofp\libg-musl.a(memset.o)
 .debug_abbrev  0x000148f4       0x86 c:/program files/microchip/xc32/v4.35/bin/bin/../../lib/gcc/pic32c/8.3.1/../../../../pic32c/lib/arm/v5te/nofp\libg-musl.a(strlen.o)
 .debug_abbrev  0x0001497a       0xfd c:/program files/microchip/xc32/v4.35/bin/bin/../../lib/gcc/pic32c/8.3.1/../../../../pic32c/lib/arm/v5te/nofp\libg-musl.a(tolower.o)
 .debug_abbrev  0x00014a77       0xfd c:/program files/microchip/xc32/v4.35/bin/bin/../../lib/gcc/pic32c/8.3.1/../../../../pic32c/lib/arm/v5te/nofp\libg-musl.a(toupper.o)
 .debug_abbrev  0x00014b74       0x57 c:/program files/microchip/xc32/v4.35/bin/bin/../../lib/gcc/pic32c/8.3.1/../../../../pic32c/lib/arm/v5te/nofp\libg-musl.a(__environ.o)
 .debug_abbrev  0x00014bcb       0x2e c:/program files/microchip/xc32/v4.35/bin/bin/../../lib/gcc/pic32c/8.3.1/../../../../pic32c/lib/arm/v5te/nofp\libg-musl.a(__errno_location.o)
 .debug_abbrev  0x00014bf9      0x111 c:/program files/microchip/xc32/v4.35/bin/bin/../../lib/gcc/pic32c/8.3.1/../../../../pic32c/lib/arm/v5te/nofp\libg-musl.a(__int_vfprintf.o)
 .debug_abbrev  0x00014d0a       0xc3 c:/program files/microchip/xc32/v4.35/bin/bin/../../lib/gcc/pic32c/8.3.1/../../../../pic32c/lib/arm/v5te/nofp\libg-musl.a(__int_vsprintf.o)
 .debug_abbrev  0x00014dcd      0x12a c:/program files/microchip/xc32/v4.35/bin/bin/../../lib/gcc/pic32c/8.3.1/../../../../pic32c/lib/arm/v5te/nofp\libg-musl.a(fputs.o)
 .debug_abbrev  0x00014ef7       0xb2 c:/program files/microchip/xc32/v4.35/bin/bin/../../lib/gcc/pic32c/8.3.1/../../../../pic32c/lib/arm/v5te/nofp\libg-musl.a(__cvt_u.o)
 .debug_abbrev  0x00014fa9       0xbd c:/program files/microchip/xc32/v4.35/bin/bin/../../lib/gcc/pic32c/8.3.1/../../../../pic32c/lib/arm/v5te/nofp\libg-musl.a(__pop_float.o)
 .debug_abbrev  0x00015066      0x150 c:/program files/microchip/xc32/v4.35/bin/bin/../../lib/gcc/pic32c/8.3.1/../../../../pic32c/lib/arm/v5te/nofp\libg-musl.a(__stdio_read.o)
 .debug_abbrev  0x000151b6       0xdc c:/program files/microchip/xc32/v4.35/bin/bin/../../lib/gcc/pic32c/8.3.1/../../../../pic32c/lib/arm/v5te/nofp\libg-musl.a(__towrite_rw.o)
 .debug_abbrev  0x00015292      0x10f c:/program files/microchip/xc32/v4.35/bin/bin/../../lib/gcc/pic32c/8.3.1/../../../../pic32c/lib/arm/v5te/nofp\libg-musl.a(fwrite.o)
 .debug_abbrev  0x000153a1      0x109 c:/program files/microchip/xc32/v4.35/bin/bin/../../lib/gcc/pic32c/8.3.1/../../../../pic32c/lib/arm/v5te/nofp\libg-musl.a(putc.o)
 .debug_abbrev  0x000154aa      0x11c c:/program files/microchip/xc32/v4.35/bin/bin/../../lib/gcc/pic32c/8.3.1/../../../../pic32c/lib/arm/v5te/nofp\libg-musl.a(setvbuf.o)
 .debug_abbrev  0x000155c6       0xd8 c:/program files/microchip/xc32/v4.35/bin/bin/../../lib/gcc/pic32c/8.3.1/../../../../pic32c/lib/arm/v5te/nofp\libg-musl.a(readv.o)
 .debug_abbrev  0x0001569e      0x413 c:/program files/microchip/xc32/v4.35/bin/bin/../../lib/gcc/pic32c/8.3.1/../../../../pic32c/lib/arm/v5te/nofp\libg-musl.a(malloc.o)
 .debug_abbrev  0x00015ab1       0xa5 c:/program files/microchip/xc32/v4.35/bin/bin/../../lib/gcc/pic32c/8.3.1/../../../../pic32c/lib/arm/v5te/nofp\libg-musl.a(expand_heap.o)
 .debug_abbrev  0x00015b56      0x127 c:/program files/microchip/xc32/v4.35/bin/bin/../../lib/gcc/pic32c/8.3.1/../../../../pic32c/lib/arm/v5te/nofp\libg-musl.a(__int_vsnprintf.o)
 .debug_abbrev  0x00015c7d       0x5a c:/program files/microchip/xc32/v4.35/bin/bin/../../lib/gcc/pic32c/8.3.1/../../../../pic32c/lib/arm/v5te/nofp\libg-musl.a(__init_stdio.o)
 .debug_abbrev  0x00015cd7      0x16c c:/program files/microchip/xc32/v4.35/bin/bin/../../lib/gcc/pic32c/8.3.1/../../../../pic32c/lib/arm/v5te/nofp\libg-musl.a(__out.o)
 .debug_abbrev  0x00015e43       0xf3 c:/program files/microchip/xc32/v4.35/bin/bin/../../lib/gcc/pic32c/8.3.1/../../../../pic32c/lib/arm/v5te/nofp\libg-musl.a(__putc.o)
 .debug_abbrev  0x00015f36      0x154 c:/program files/microchip/xc32/v4.35/bin/bin/../../lib/gcc/pic32c/8.3.1/../../../../pic32c/lib/arm/v5te/nofp\libg-musl.a(__stderr.o)
 .debug_abbrev  0x0001608a      0x122 c:/program files/microchip/xc32/v4.35/bin/bin/../../lib/gcc/pic32c/8.3.1/../../../../pic32c/lib/arm/v5te/nofp\libg-musl.a(__stdio_close.o)
 .debug_abbrev  0x000161ac      0x1a1 c:/program files/microchip/xc32/v4.35/bin/bin/../../lib/gcc/pic32c/8.3.1/../../../../pic32c/lib/arm/v5te/nofp\libg-musl.a(__stdio_write.o)
 .debug_abbrev  0x0001634d      0x154 c:/program files/microchip/xc32/v4.35/bin/bin/../../lib/gcc/pic32c/8.3.1/../../../../pic32c/lib/arm/v5te/nofp\libg-musl.a(__stdout.o)
 .debug_abbrev  0x000164a1       0xf8 c:/program files/microchip/xc32/v4.35/bin/bin/../../lib/gcc/pic32c/8.3.1/../../../../pic32c/lib/arm/v5te/nofp\libg-musl.a(__towrite.o)
 .debug_abbrev  0x00016599       0xd8 c:/program files/microchip/xc32/v4.35/bin/bin/../../lib/gcc/pic32c/8.3.1/../../../../pic32c/lib/arm/v5te/nofp\libg-musl.a(writev.o)
 .debug_abbrev  0x00016671      0x125 c:/program files/microchip/xc32/v4.35/bin/bin/../../lib/gcc/pic32c/8.3.1/../../../../pic32c/lib/arm/v5te/nofp\libg-musl.a(__overflow.o)
 .debug_abbrev  0x00016796      0x11f c:/program files/microchip/xc32/v4.35/bin/bin/../../lib/gcc/pic32c/8.3.1/../../../../pic32c/lib/arm/v5te/nofp\libg-musl.a(__fwrite.o)
 .debug_abbrev  0x000168b5       0x2e c:/program files/microchip/xc32/v4.35/bin/bin/../../lib/gcc/pic32c/8.3.1/../../../../pic32c/lib/arm/v5te/nofp\libpic32c.a(close.o)
 .debug_abbrev  0x000168e3       0x2e c:/program files/microchip/xc32/v4.35/bin/bin/../../lib/gcc/pic32c/8.3.1/../../../../pic32c/lib/arm/v5te/nofp\libpic32c.a(lseek.o)
 .debug_abbrev  0x00016911       0x2e c:/program files/microchip/xc32/v4.35/bin/bin/../../lib/gcc/pic32c/8.3.1/../../../../pic32c/lib/arm/v5te/nofp\libpic32c.a(sbrk.o)

.debug_loc      0x00000000    0x56f0f
 .debug_loc     0x00000000     0x2d7e build/dsi_xlcdc_rgba8888_ws_9x75_curiosity_720x720_round/debug/_ext/1985065589/drv_i2c.o
 .debug_loc     0x00002d7e      0x865 build/dsi_xlcdc_rgba8888_ws_9x75_curiosity_720x720_round/debug/_ext/2010836581/gfx_canvas_api.o
 .debug_loc     0x000035e3      0xdc2 build/dsi_xlcdc_rgba8888_ws_9x75_curiosity_720x720_round/debug/_ext/2010836581/gfx_canvas.o
 .debug_loc     0x000043a5     0x10f4 build/dsi_xlcdc_rgba8888_ws_9x75_curiosity_720x720_round/debug/_ext/1085405985/ws_touch_display.o
 .debug_loc     0x00005499      0x477 build/dsi_xlcdc_rgba8888_ws_9x75_curiosity_720x720_round/debug/_ext/219820618/drv_gfx2d.o
 .debug_loc     0x00005910      0x28c build/dsi_xlcdc_rgba8888_ws_9x75_curiosity_720x720_round/debug/_ext/1247915868/plib_dsi.o
 .debug_loc     0x00005b9c      0xfb6 build/dsi_xlcdc_rgba8888_ws_9x75_curiosity_720x720_round/debug/_ext/225302149/plib_xlcdc.o
 .debug_loc     0x00006b52      0x6ab build/dsi_xlcdc_rgba8888_ws_9x75_curiosity_720x720_round/debug/_ext/505007713/drv_gfx_xlcdc.o
 .debug_loc     0x000071fd     0x2d99 build/dsi_xlcdc_rgba8888_ws_9x75_curiosity_720x720_round/debug/_ext/1966656405/gfx_driver.o
 .debug_loc     0x00009f96     0x3d67 build/dsi_xlcdc_rgba8888_ws_9x75_curiosity_720x720_round/debug/_ext/105237591/legato_math.o
 .debug_loc     0x0000dcfd      0xff4 build/dsi_xlcdc_rgba8888_ws_9x75_curiosity_720x720_round/debug/_ext/105237591/legato_rect.o
 .debug_loc     0x0000ecf1      0xf25 build/dsi_xlcdc_rgba8888_ws_9x75_curiosity_720x720_round/debug/_ext/105237591/legato_utils.o
 .debug_loc     0x0000fc16      0x874 build/dsi_xlcdc_rgba8888_ws_9x75_curiosity_720x720_round/debug/_ext/105237591/legato_color_blend.o
 .debug_loc     0x0001048a      0x462 build/dsi_xlcdc_rgba8888_ws_9x75_curiosity_720x720_round/debug/_ext/105237591/legato_color.o
 .debug_loc     0x000108ec     0x118b build/dsi_xlcdc_rgba8888_ws_9x75_curiosity_720x720_round/debug/_ext/105237591/legato_color_lerp.o
 .debug_loc     0x00011a77     0x23b1 build/dsi_xlcdc_rgba8888_ws_9x75_curiosity_720x720_round/debug/_ext/105237591/legato_pixelbuffer.o
 .debug_loc     0x00013e28     0x1915 build/dsi_xlcdc_rgba8888_ws_9x75_curiosity_720x720_round/debug/_ext/105237591/legato_color_convert.o
 .debug_loc     0x0001573d      0x187 build/dsi_xlcdc_rgba8888_ws_9x75_curiosity_720x720_round/debug/_ext/884805853/legato_event.o
 .debug_loc     0x000158c4      0x12d build/dsi_xlcdc_rgba8888_ws_9x75_curiosity_720x720_round/debug/_ext/884805853/legato_scheme.o
 .debug_loc     0x000159f1      0x8ac build/dsi_xlcdc_rgba8888_ws_9x75_curiosity_720x720_round/debug/_ext/884805853/legato_input.o
 .debug_loc     0x0001629d     0x11e9 build/dsi_xlcdc_rgba8888_ws_9x75_curiosity_720x720_round/debug/_ext/884805853/legato_state.o
 .debug_loc     0x00017486      0xbde build/dsi_xlcdc_rgba8888_ws_9x75_curiosity_720x720_round/debug/_ext/778592651/legato_array.o
 .debug_loc     0x00018064     0x1c7c build/dsi_xlcdc_rgba8888_ws_9x75_curiosity_720x720_round/debug/_ext/778592651/legato_rectarray.o
 .debug_loc     0x00019ce0      0xe1a build/dsi_xlcdc_rgba8888_ws_9x75_curiosity_720x720_round/debug/_ext/778592651/legato_list.o
 .debug_loc     0x0001aafa     0x1383 build/dsi_xlcdc_rgba8888_ws_9x75_curiosity_720x720_round/debug/_ext/884895117/legato_font.o
 .debug_loc     0x0001be7d      0x10c build/dsi_xlcdc_rgba8888_ws_9x75_curiosity_720x720_round/debug/_ext/1322619606/le_gen_screen_Screen0.o
 .debug_loc     0x0001bf89       0xdf build/dsi_xlcdc_rgba8888_ws_9x75_curiosity_720x720_round/debug/_ext/1965903633/le_gen_harmony.o
 .debug_loc     0x0001c068       0x2c build/dsi_xlcdc_rgba8888_ws_9x75_curiosity_720x720_round/debug/_ext/1965903633/le_gen_stringtable.o
 .debug_loc     0x0001c094       0x6e build/dsi_xlcdc_rgba8888_ws_9x75_curiosity_720x720_round/debug/_ext/1965903633/le_gen_init.o
 .debug_loc     0x0001c102     0x1661 build/dsi_xlcdc_rgba8888_ws_9x75_curiosity_720x720_round/debug/_ext/979623078/legato_imagedecoder_jpeg_common.o
 .debug_loc     0x0001d763      0xe95 build/dsi_xlcdc_rgba8888_ws_9x75_curiosity_720x720_round/debug/_ext/979623078/jidctint.o
 .debug_loc     0x0001e5f8      0x63b build/dsi_xlcdc_rgba8888_ws_9x75_curiosity_720x720_round/debug/_ext/979623078/legato_imagedecoder_jpeg.o
 .debug_loc     0x0001ec33       0xe9 build/dsi_xlcdc_rgba8888_ws_9x75_curiosity_720x720_round/debug/_ext/979534379/legato_imagedecoder_mono_read_internal.o
 .debug_loc     0x0001ed1c     0x1c6d build/dsi_xlcdc_rgba8888_ws_9x75_curiosity_720x720_round/debug/_ext/979534379/legato_imagedecoder_mono.o
 .debug_loc     0x00020989      0x35f build/dsi_xlcdc_rgba8888_ws_9x75_curiosity_720x720_round/debug/_ext/799688951/legato_imagedecoder_png.o
 .debug_loc     0x00020ce8    0x14376 build/dsi_xlcdc_rgba8888_ws_9x75_curiosity_720x720_round/debug/_ext/799688951/lodepng.o
 .debug_loc     0x0003505e       0xb3 build/dsi_xlcdc_rgba8888_ws_9x75_curiosity_720x720_round/debug/_ext/799690486/legato_imagedecoder_raw_convert.o
 .debug_loc     0x00035111      0x114 build/dsi_xlcdc_rgba8888_ws_9x75_curiosity_720x720_round/debug/_ext/799690486/legato_imagedecoder_raw_write.o
 .debug_loc     0x00035225      0x3eb build/dsi_xlcdc_rgba8888_ws_9x75_curiosity_720x720_round/debug/_ext/799690486/legato_imagedecoder_raw_read_internal.o
 .debug_loc     0x00035610      0x2ef build/dsi_xlcdc_rgba8888_ws_9x75_curiosity_720x720_round/debug/_ext/799690486/legato_imagedecoder_raw_scale.o
 .debug_loc     0x000358ff       0x6a build/dsi_xlcdc_rgba8888_ws_9x75_curiosity_720x720_round/debug/_ext/799690486/legato_imagedecoder_raw_mask.o
 .debug_loc     0x00035969      0x233 build/dsi_xlcdc_rgba8888_ws_9x75_curiosity_720x720_round/debug/_ext/799690486/legato_imagedecoder_raw_blend.o
 .debug_loc     0x00035b9c      0xeb2 build/dsi_xlcdc_rgba8888_ws_9x75_curiosity_720x720_round/debug/_ext/799690486/legato_imagedecoder_raw.o
 .debug_loc     0x00036a4e      0x167 build/dsi_xlcdc_rgba8888_ws_9x75_curiosity_720x720_round/debug/_ext/799690486/legato_imagedecoder_raw_setup.o
 .debug_loc     0x00036bb5      0x295 build/dsi_xlcdc_rgba8888_ws_9x75_curiosity_720x720_round/debug/_ext/799690486/legato_imagedecoder_raw_rotate.o
 .debug_loc     0x00036e4a       0xf4 build/dsi_xlcdc_rgba8888_ws_9x75_curiosity_720x720_round/debug/_ext/799690486/legato_imagedecoder_raw_palette_internal.o
 .debug_loc     0x00036f3e      0x41d build/dsi_xlcdc_rgba8888_ws_9x75_curiosity_720x720_round/debug/_ext/1664643037/legato_image_utils.o
 .debug_loc     0x0003735b      0xf64 build/dsi_xlcdc_rgba8888_ws_9x75_curiosity_720x720_round/debug/_ext/1664643037/legato_image.o
 .debug_loc     0x000382bf     0x289d build/dsi_xlcdc_rgba8888_ws_9x75_curiosity_720x720_round/debug/_ext/171820735/legato_variableheap.o
 .debug_loc     0x0003ab5c      0x358 build/dsi_xlcdc_rgba8888_ws_9x75_curiosity_720x720_round/debug/_ext/171820735/legato_fixedheap.o
 .debug_loc     0x0003aeb4      0xffe build/dsi_xlcdc_rgba8888_ws_9x75_curiosity_720x720_round/debug/_ext/171820735/legato_memory.o
 .debug_loc     0x0003beb2     0x1371 build/dsi_xlcdc_rgba8888_ws_9x75_curiosity_720x720_round/debug/_ext/2053165825/legato_draw.o
 .debug_loc     0x0003d223      0x9dc build/dsi_xlcdc_rgba8888_ws_9x75_curiosity_720x720_round/debug/_ext/2053165825/legato_draw_line.o
 .debug_loc     0x0003dbff      0x53b build/dsi_xlcdc_rgba8888_ws_9x75_curiosity_720x720_round/debug/_ext/2053165825/legato_draw_rect.o
 .debug_loc     0x0003e13a     0x15b0 build/dsi_xlcdc_rgba8888_ws_9x75_curiosity_720x720_round/debug/_ext/2053165825/legato_draw_arc.o
 .debug_loc     0x0003f6ea      0x79d build/dsi_xlcdc_rgba8888_ws_9x75_curiosity_720x720_round/debug/_ext/2053165825/legato_gpu.o
 .debug_loc     0x0003fe87      0xe2f build/dsi_xlcdc_rgba8888_ws_9x75_curiosity_720x720_round/debug/_ext/2053165825/legato_renderer.o
 .debug_loc     0x00040cb6      0xa57 build/dsi_xlcdc_rgba8888_ws_9x75_curiosity_720x720_round/debug/_ext/357591503/legato_string.o
 .debug_loc     0x0004170d     0x27e4 build/dsi_xlcdc_rgba8888_ws_9x75_curiosity_720x720_round/debug/_ext/357591503/legato_stringutils.o
 .debug_loc     0x00043ef1      0x631 build/dsi_xlcdc_rgba8888_ws_9x75_curiosity_720x720_round/debug/_ext/357591503/legato_string_renderer.o
 .debug_loc     0x00044522      0xfb9 build/dsi_xlcdc_rgba8888_ws_9x75_curiosity_720x720_round/debug/_ext/357591503/legato_fixedstring.o
 .debug_loc     0x000454db      0x809 build/dsi_xlcdc_rgba8888_ws_9x75_curiosity_720x720_round/debug/_ext/357591503/legato_stringtable.o
 .debug_loc     0x00045ce4      0x7f4 build/dsi_xlcdc_rgba8888_ws_9x75_curiosity_720x720_round/debug/_ext/357591503/legato_tablestring.o
 .debug_loc     0x000464d8      0x2f7 build/dsi_xlcdc_rgba8888_ws_9x75_curiosity_720x720_round/debug/_ext/1591588594/legato_widget_image_skin_classic.o
 .debug_loc     0x000467cf      0x263 build/dsi_xlcdc_rgba8888_ws_9x75_curiosity_720x720_round/debug/_ext/1591588594/legato_widget_image.o
 .debug_loc     0x00046a32      0x2d4 build/dsi_xlcdc_rgba8888_ws_9x75_curiosity_720x720_round/debug/_ext/1589174617/legato_widget_label_skin_classic.o
 .debug_loc     0x00046d06      0x321 build/dsi_xlcdc_rgba8888_ws_9x75_curiosity_720x720_round/debug/_ext/1589174617/legato_widget_label.o
 .debug_loc     0x00047027      0xece build/dsi_xlcdc_rgba8888_ws_9x75_curiosity_720x720_round/debug/_ext/461530114/legato_widget_skin_classic_common.o
 .debug_loc     0x00047ef5      0x1b6 build/dsi_xlcdc_rgba8888_ws_9x75_curiosity_720x720_round/debug/_ext/461530114/legato_widget_skin_classic.o
 .debug_loc     0x000480ab     0x26f3 build/dsi_xlcdc_rgba8888_ws_9x75_curiosity_720x720_round/debug/_ext/461530114/legato_widget.o
 .debug_loc     0x0004a79e       0xca build/dsi_xlcdc_rgba8888_ws_9x75_curiosity_720x720_round/debug/_ext/1886844053/plib_aic.o
 .debug_loc     0x0004a868       0xbf build/dsi_xlcdc_rgba8888_ws_9x75_curiosity_720x720_round/debug/_ext/1886846076/plib_clk.o
 .debug_loc     0x0004a927      0x4bf build/dsi_xlcdc_rgba8888_ws_9x75_curiosity_720x720_round/debug/_ext/1637293614/plib_dbgu.o
 .debug_loc     0x0004ade6      0x7c1 build/dsi_xlcdc_rgba8888_ws_9x75_curiosity_720x720_round/debug/_ext/545877704/plib_flexcom6_twi_master.o
 .debug_loc     0x0004b5a7     0x142f build/dsi_xlcdc_rgba8888_ws_9x75_curiosity_720x720_round/debug/_ext/786409605/plib_gfx2d.o
 .debug_loc     0x0004c9d6      0x850 build/dsi_xlcdc_rgba8888_ws_9x75_curiosity_720x720_round/debug/_ext/1886855727/plib_mmu.o
 .debug_loc     0x0004d226       0xb4 build/dsi_xlcdc_rgba8888_ws_9x75_curiosity_720x720_round/debug/_ext/1886858480/plib_pio.o
 .debug_loc     0x0004d2da      0x1f3 build/dsi_xlcdc_rgba8888_ws_9x75_curiosity_720x720_round/debug/_ext/1886860748/plib_rtt.o
 .debug_loc     0x0004d4cd      0x158 build/dsi_xlcdc_rgba8888_ws_9x75_curiosity_720x720_round/debug/_ext/60866517/plib_tc1.o
 .debug_loc     0x0004d625      0x178 build/dsi_xlcdc_rgba8888_ws_9x75_curiosity_720x720_round/debug/_ext/1477359996/xc32_monitor.o
 .debug_loc     0x0004d79d      0x6d9 build/dsi_xlcdc_rgba8888_ws_9x75_curiosity_720x720_round/debug/_ext/1949213289/sys_input.o
 .debug_loc     0x0004de76      0x585 build/dsi_xlcdc_rgba8888_ws_9x75_curiosity_720x720_round/debug/_ext/586618287/sys_int.o
 .debug_loc     0x0004e3fb     0x46bb build/dsi_xlcdc_rgba8888_ws_9x75_curiosity_720x720_round/debug/_ext/690637493/sys_time.o
 .debug_loc     0x00052ab6       0xef build/dsi_xlcdc_rgba8888_ws_9x75_curiosity_720x720_round/debug/_ext/1295507646/initialization.o
 .debug_loc     0x00052ba5       0x2c build/dsi_xlcdc_rgba8888_ws_9x75_curiosity_720x720_round/debug/_ext/1295507646/tasks.o
 .debug_loc     0x00052bd1       0x20 build/dsi_xlcdc_rgba8888_ws_9x75_curiosity_720x720_round/debug/_ext/1360937237/main.o
 .debug_loc     0x00052bf1      0x2a9 build/dsi_xlcdc_rgba8888_ws_9x75_curiosity_720x720_round/debug/_ext/1360937237/app.o
 .debug_loc     0x00052e9a      0x5bf build/dsi_xlcdc_rgba8888_ws_9x75_curiosity_720x720_round/debug/_ext/1360937237/app_drive.o
 .debug_loc     0x00053459      0x318 c:/program files/microchip/xc32/v4.35/bin/bin/../../lib/gcc/pic32c/8.3.1/arm/v5te/nofp\libgcc.a(_udivmoddi4.o)
 .debug_loc     0x00053771       0x51 c:/program files/microchip/xc32/v4.35/bin/bin/../../lib/gcc/pic32c/8.3.1/../../../../pic32c/lib/arm/v5te/nofp\libg-musl.a(__libc_start_main.o)
 .debug_loc     0x000537c2       0xb6 c:/program files/microchip/xc32/v4.35/bin/bin/../../lib/gcc/pic32c/8.3.1/../../../../pic32c/lib/arm/v5te/nofp\libg-musl.a(__sio_sprintf_dnpuxX.o)
 .debug_loc     0x00053878      0x1cf c:/program files/microchip/xc32/v4.35/bin/bin/../../lib/gcc/pic32c/8.3.1/../../../../pic32c/lib/arm/v5te/nofp\libg-musl.a(__fmt_d.o)
 .debug_loc     0x00053a47      0x10a c:/program files/microchip/xc32/v4.35/bin/bin/../../lib/gcc/pic32c/8.3.1/../../../../pic32c/lib/arm/v5te/nofp\libg-musl.a(__fmt_u.o)
 .debug_loc     0x00053b51      0x29c c:/program files/microchip/xc32/v4.35/bin/bin/../../lib/gcc/pic32c/8.3.1/../../../../pic32c/lib/arm/v5te/nofp\libg-musl.a(__fmt_x.o)
 .debug_loc     0x00053ded      0x2c8 c:/program files/microchip/xc32/v4.35/bin/bin/../../lib/gcc/pic32c/8.3.1/../../../../pic32c/lib/arm/v5te/nofp\libg-musl.a(__pop_int.o)
 .debug_loc     0x000540b5      0x181 c:/program files/microchip/xc32/v4.35/bin/bin/../../lib/gcc/pic32c/8.3.1/../../../../pic32c/lib/arm/v5te/nofp\libg-musl.a(__pop_ptr.o)
 .debug_loc     0x00054236      0x594 c:/program files/microchip/xc32/v4.35/bin/bin/../../lib/gcc/pic32c/8.3.1/../../../../pic32c/lib/arm/v5te/nofp\libg-musl.a(__printf_core.o)
 .debug_loc     0x000547ca       0x25 c:/program files/microchip/xc32/v4.35/bin/bin/../../lib/gcc/pic32c/8.3.1/../../../../pic32c/lib/arm/v5te/nofp\libg-musl.a(stdin.o)
 .debug_loc     0x000547ef       0x20 c:/program files/microchip/xc32/v4.35/bin/bin/../../lib/gcc/pic32c/8.3.1/../../../../pic32c/lib/arm/v5te/nofp\libg-musl.a(stdout.o)
 .debug_loc     0x0005480f       0x6a c:/program files/microchip/xc32/v4.35/bin/bin/../../lib/gcc/pic32c/8.3.1/../../../../pic32c/lib/arm/v5te/nofp\libg-musl.a(puts.o)
 .debug_loc     0x00054879       0x4a c:/program files/microchip/xc32/v4.35/bin/bin/../../lib/gcc/pic32c/8.3.1/../../../../pic32c/lib/arm/v5te/nofp\libg-musl.a(setbuf.o)
 .debug_loc     0x000548c3       0xe7 c:/program files/microchip/xc32/v4.35/bin/bin/../../lib/gcc/pic32c/8.3.1/../../../../pic32c/lib/arm/v5te/nofp\libg-musl.a(atoi.o)
 .debug_loc     0x000549aa       0xb6 c:/program files/microchip/xc32/v4.35/bin/bin/../../lib/gcc/pic32c/8.3.1/../../../../pic32c/lib/arm/v5te/nofp\libg-musl.a(memcpy.o)
 .debug_loc     0x00054a60      0x133 c:/program files/microchip/xc32/v4.35/bin/bin/../../lib/gcc/pic32c/8.3.1/../../../../pic32c/lib/arm/v5te/nofp\libg-musl.a(memmove.o)
 .debug_loc     0x00054b93       0x7d c:/program files/microchip/xc32/v4.35/bin/bin/../../lib/gcc/pic32c/8.3.1/../../../../pic32c/lib/arm/v5te/nofp\libg-musl.a(memset.o)
 .debug_loc     0x00054c10       0x90 c:/program files/microchip/xc32/v4.35/bin/bin/../../lib/gcc/pic32c/8.3.1/../../../../pic32c/lib/arm/v5te/nofp\libg-musl.a(strlen.o)
 .debug_loc     0x00054ca0       0x4a c:/program files/microchip/xc32/v4.35/bin/bin/../../lib/gcc/pic32c/8.3.1/../../../../pic32c/lib/arm/v5te/nofp\libg-musl.a(tolower.o)
 .debug_loc     0x00054cea       0x4a c:/program files/microchip/xc32/v4.35/bin/bin/../../lib/gcc/pic32c/8.3.1/../../../../pic32c/lib/arm/v5te/nofp\libg-musl.a(toupper.o)
 .debug_loc     0x00054d34       0x88 c:/program files/microchip/xc32/v4.35/bin/bin/../../lib/gcc/pic32c/8.3.1/../../../../pic32c/lib/arm/v5te/nofp\libg-musl.a(__int_vfprintf.o)
 .debug_loc     0x00054dbc       0x6c c:/program files/microchip/xc32/v4.35/bin/bin/../../lib/gcc/pic32c/8.3.1/../../../../pic32c/lib/arm/v5te/nofp\libg-musl.a(__int_vsprintf.o)
 .debug_loc     0x00054e28       0x93 c:/program files/microchip/xc32/v4.35/bin/bin/../../lib/gcc/pic32c/8.3.1/../../../../pic32c/lib/arm/v5te/nofp\libg-musl.a(fputs.o)
 .debug_loc     0x00054ebb      0x165 c:/program files/microchip/xc32/v4.35/bin/bin/../../lib/gcc/pic32c/8.3.1/../../../../pic32c/lib/arm/v5te/nofp\libg-musl.a(__cvt_u.o)
 .debug_loc     0x00055020       0xa6 c:/program files/microchip/xc32/v4.35/bin/bin/../../lib/gcc/pic32c/8.3.1/../../../../pic32c/lib/arm/v5te/nofp\libg-musl.a(__pop_float.o)
 .debug_loc     0x000550c6      0x103 c:/program files/microchip/xc32/v4.35/bin/bin/../../lib/gcc/pic32c/8.3.1/../../../../pic32c/lib/arm/v5te/nofp\libg-musl.a(__stdio_read.o)
 .debug_loc     0x000551c9       0x25 c:/program files/microchip/xc32/v4.35/bin/bin/../../lib/gcc/pic32c/8.3.1/../../../../pic32c/lib/arm/v5te/nofp\libg-musl.a(__towrite_rw.o)
 .debug_loc     0x000551ee      0x17e c:/program files/microchip/xc32/v4.35/bin/bin/../../lib/gcc/pic32c/8.3.1/../../../../pic32c/lib/arm/v5te/nofp\libg-musl.a(fwrite.o)
 .debug_loc     0x0005536c      0x116 c:/program files/microchip/xc32/v4.35/bin/bin/../../lib/gcc/pic32c/8.3.1/../../../../pic32c/lib/arm/v5te/nofp\libg-musl.a(putc.o)
 .debug_loc     0x00055482      0x11b c:/program files/microchip/xc32/v4.35/bin/bin/../../lib/gcc/pic32c/8.3.1/../../../../pic32c/lib/arm/v5te/nofp\libg-musl.a(setvbuf.o)
 .debug_loc     0x0005559d       0xe8 c:/program files/microchip/xc32/v4.35/bin/bin/../../lib/gcc/pic32c/8.3.1/../../../../pic32c/lib/arm/v5te/nofp\libg-musl.a(readv.o)
 .debug_loc     0x00055685      0xc42 c:/program files/microchip/xc32/v4.35/bin/bin/../../lib/gcc/pic32c/8.3.1/../../../../pic32c/lib/arm/v5te/nofp\libg-musl.a(malloc.o)
 .debug_loc     0x000562c7       0x8b c:/program files/microchip/xc32/v4.35/bin/bin/../../lib/gcc/pic32c/8.3.1/../../../../pic32c/lib/arm/v5te/nofp\libg-musl.a(expand_heap.o)
 .debug_loc     0x00056352      0x12a c:/program files/microchip/xc32/v4.35/bin/bin/../../lib/gcc/pic32c/8.3.1/../../../../pic32c/lib/arm/v5te/nofp\libg-musl.a(__int_vsnprintf.o)
 .debug_loc     0x0005647c       0x20 c:/program files/microchip/xc32/v4.35/bin/bin/../../lib/gcc/pic32c/8.3.1/../../../../pic32c/lib/arm/v5te/nofp\libg-musl.a(__init_stdio.o)
 .debug_loc     0x0005649c      0x1ae c:/program files/microchip/xc32/v4.35/bin/bin/../../lib/gcc/pic32c/8.3.1/../../../../pic32c/lib/arm/v5te/nofp\libg-musl.a(__out.o)
 .debug_loc     0x0005664a       0xb8 c:/program files/microchip/xc32/v4.35/bin/bin/../../lib/gcc/pic32c/8.3.1/../../../../pic32c/lib/arm/v5te/nofp\libg-musl.a(__putc.o)
 .debug_loc     0x00056702       0x25 c:/program files/microchip/xc32/v4.35/bin/bin/../../lib/gcc/pic32c/8.3.1/../../../../pic32c/lib/arm/v5te/nofp\libg-musl.a(__stderr.o)
 .debug_loc     0x00056727      0x20e c:/program files/microchip/xc32/v4.35/bin/bin/../../lib/gcc/pic32c/8.3.1/../../../../pic32c/lib/arm/v5te/nofp\libg-musl.a(__stdio_close.o)
 .debug_loc     0x00056935      0x291 c:/program files/microchip/xc32/v4.35/bin/bin/../../lib/gcc/pic32c/8.3.1/../../../../pic32c/lib/arm/v5te/nofp\libg-musl.a(__stdio_write.o)
 .debug_loc     0x00056bc6       0x25 c:/program files/microchip/xc32/v4.35/bin/bin/../../lib/gcc/pic32c/8.3.1/../../../../pic32c/lib/arm/v5te/nofp\libg-musl.a(__stdout.o)
 .debug_loc     0x00056beb       0x7c c:/program files/microchip/xc32/v4.35/bin/bin/../../lib/gcc/pic32c/8.3.1/../../../../pic32c/lib/arm/v5te/nofp\libg-musl.a(__towrite.o)
 .debug_loc     0x00056c67       0xe8 c:/program files/microchip/xc32/v4.35/bin/bin/../../lib/gcc/pic32c/8.3.1/../../../../pic32c/lib/arm/v5te/nofp\libg-musl.a(writev.o)
 .debug_loc     0x00056d4f       0xb6 c:/program files/microchip/xc32/v4.35/bin/bin/../../lib/gcc/pic32c/8.3.1/../../../../pic32c/lib/arm/v5te/nofp\libg-musl.a(__overflow.o)
 .debug_loc     0x00056e05      0x10a c:/program files/microchip/xc32/v4.35/bin/bin/../../lib/gcc/pic32c/8.3.1/../../../../pic32c/lib/arm/v5te/nofp\libg-musl.a(__fwrite.o)

.debug_aranges  0x00000000     0x33b0
 .debug_aranges
                0x00000000       0x98 build/dsi_xlcdc_rgba8888_ws_9x75_curiosity_720x720_round/debug/_ext/1985065589/drv_i2c.o
 .debug_aranges
                0x00000098       0xc8 build/dsi_xlcdc_rgba8888_ws_9x75_curiosity_720x720_round/debug/_ext/2010836581/gfx_canvas_api.o
 .debug_aranges
                0x00000160       0xa8 build/dsi_xlcdc_rgba8888_ws_9x75_curiosity_720x720_round/debug/_ext/2010836581/gfx_canvas.o
 .debug_aranges
                0x00000208       0x38 build/dsi_xlcdc_rgba8888_ws_9x75_curiosity_720x720_round/debug/_ext/1085405985/ws_touch_display.o
 .debug_aranges
                0x00000240       0x60 build/dsi_xlcdc_rgba8888_ws_9x75_curiosity_720x720_round/debug/_ext/219820618/drv_gfx2d.o
 .debug_aranges
                0x000002a0       0x38 build/dsi_xlcdc_rgba8888_ws_9x75_curiosity_720x720_round/debug/_ext/1247915868/plib_dsi.o
 .debug_aranges
                0x000002d8       0xc8 build/dsi_xlcdc_rgba8888_ws_9x75_curiosity_720x720_round/debug/_ext/225302149/plib_xlcdc.o
 .debug_aranges
                0x000003a0       0x38 build/dsi_xlcdc_rgba8888_ws_9x75_curiosity_720x720_round/debug/_ext/505007713/drv_gfx_xlcdc.o
 .debug_aranges
                0x000003d8      0x218 build/dsi_xlcdc_rgba8888_ws_9x75_curiosity_720x720_round/debug/_ext/1966656405/gfx_driver.o
 .debug_aranges
                0x000005f0      0x138 build/dsi_xlcdc_rgba8888_ws_9x75_curiosity_720x720_round/debug/_ext/105237591/legato_math.o
 .debug_aranges
                0x00000728       0x70 build/dsi_xlcdc_rgba8888_ws_9x75_curiosity_720x720_round/debug/_ext/105237591/legato_rect.o
 .debug_aranges
                0x00000798       0x90 build/dsi_xlcdc_rgba8888_ws_9x75_curiosity_720x720_round/debug/_ext/105237591/legato_utils.o
 .debug_aranges
                0x00000828       0x28 build/dsi_xlcdc_rgba8888_ws_9x75_curiosity_720x720_round/debug/_ext/105237591/legato_color_blend.o
 .debug_aranges
                0x00000850       0x40 build/dsi_xlcdc_rgba8888_ws_9x75_curiosity_720x720_round/debug/_ext/105237591/legato_color.o
 .debug_aranges
                0x00000890       0x58 build/dsi_xlcdc_rgba8888_ws_9x75_curiosity_720x720_round/debug/_ext/105237591/legato_color_lerp.o
 .debug_aranges
                0x000008e8       0xd8 build/dsi_xlcdc_rgba8888_ws_9x75_curiosity_720x720_round/debug/_ext/105237591/legato_pixelbuffer.o
 .debug_aranges
                0x000009c0      0x150 build/dsi_xlcdc_rgba8888_ws_9x75_curiosity_720x720_round/debug/_ext/105237591/legato_color_convert.o
 .debug_aranges
                0x00000b10       0x60 build/dsi_xlcdc_rgba8888_ws_9x75_curiosity_720x720_round/debug/_ext/884805853/legato_event.o
 .debug_aranges
                0x00000b70       0x30 build/dsi_xlcdc_rgba8888_ws_9x75_curiosity_720x720_round/debug/_ext/884805853/legato_scheme.o
 .debug_aranges
                0x00000ba0       0x78 build/dsi_xlcdc_rgba8888_ws_9x75_curiosity_720x720_round/debug/_ext/884805853/legato_input.o
 .debug_aranges
                0x00000c18      0x148 build/dsi_xlcdc_rgba8888_ws_9x75_curiosity_720x720_round/debug/_ext/884805853/legato_state.o
 .debug_aranges
                0x00000d60       0x88 build/dsi_xlcdc_rgba8888_ws_9x75_curiosity_720x720_round/debug/_ext/778592651/legato_array.o
 .debug_aranges
                0x00000de8       0xc0 build/dsi_xlcdc_rgba8888_ws_9x75_curiosity_720x720_round/debug/_ext/778592651/legato_rectarray.o
 .debug_aranges
                0x00000ea8       0x80 build/dsi_xlcdc_rgba8888_ws_9x75_curiosity_720x720_round/debug/_ext/778592651/legato_list.o
 .debug_aranges
                0x00000f28       0x70 build/dsi_xlcdc_rgba8888_ws_9x75_curiosity_720x720_round/debug/_ext/884895117/legato_font.o
 .debug_aranges
                0x00000f98       0x18 build/dsi_xlcdc_rgba8888_ws_9x75_curiosity_720x720_round/debug/_ext/1382756211/le_gen_fonts.o
 .debug_aranges
                0x00000fb0       0x18 build/dsi_xlcdc_rgba8888_ws_9x75_curiosity_720x720_round/debug/_ext/86928605/le_gen_images.o
 .debug_aranges
                0x00000fc8       0x48 build/dsi_xlcdc_rgba8888_ws_9x75_curiosity_720x720_round/debug/_ext/1322619606/le_gen_screen_Screen0.o
 .debug_aranges
                0x00001010       0x18 build/dsi_xlcdc_rgba8888_ws_9x75_curiosity_720x720_round/debug/_ext/1965903633/le_gen_globalpalette.o
 .debug_aranges
                0x00001028       0x40 build/dsi_xlcdc_rgba8888_ws_9x75_curiosity_720x720_round/debug/_ext/1965903633/le_gen_harmony.o
 .debug_aranges
                0x00001068       0x18 build/dsi_xlcdc_rgba8888_ws_9x75_curiosity_720x720_round/debug/_ext/1965903633/le_gen_scheme.o
 .debug_aranges
                0x00001080       0x20 build/dsi_xlcdc_rgba8888_ws_9x75_curiosity_720x720_round/debug/_ext/1965903633/le_gen_stringtable.o
 .debug_aranges
                0x000010a0       0x40 build/dsi_xlcdc_rgba8888_ws_9x75_curiosity_720x720_round/debug/_ext/1965903633/le_gen_init.o
 .debug_aranges
                0x000010e0       0x58 build/dsi_xlcdc_rgba8888_ws_9x75_curiosity_720x720_round/debug/_ext/979623078/legato_imagedecoder_jpeg_common.o
 .debug_aranges
                0x00001138       0x20 build/dsi_xlcdc_rgba8888_ws_9x75_curiosity_720x720_round/debug/_ext/979623078/jidctint.o
 .debug_aranges
                0x00001158       0x58 build/dsi_xlcdc_rgba8888_ws_9x75_curiosity_720x720_round/debug/_ext/979623078/legato_imagedecoder_jpeg.o
 .debug_aranges
                0x000011b0       0x28 build/dsi_xlcdc_rgba8888_ws_9x75_curiosity_720x720_round/debug/_ext/979534379/legato_imagedecoder_mono_read_internal.o
 .debug_aranges
                0x000011d8       0x88 build/dsi_xlcdc_rgba8888_ws_9x75_curiosity_720x720_round/debug/_ext/979534379/legato_imagedecoder_mono.o
 .debug_aranges
                0x00001260       0x50 build/dsi_xlcdc_rgba8888_ws_9x75_curiosity_720x720_round/debug/_ext/799688951/legato_imagedecoder_png.o
 .debug_aranges
                0x000012b0      0x1e8 build/dsi_xlcdc_rgba8888_ws_9x75_curiosity_720x720_round/debug/_ext/799688951/lodepng.o
 .debug_aranges
                0x00001498       0x28 build/dsi_xlcdc_rgba8888_ws_9x75_curiosity_720x720_round/debug/_ext/799690486/legato_imagedecoder_raw_convert.o
 .debug_aranges
                0x000014c0       0x38 build/dsi_xlcdc_rgba8888_ws_9x75_curiosity_720x720_round/debug/_ext/799690486/legato_imagedecoder_raw_write.o
 .debug_aranges
                0x000014f8       0x58 build/dsi_xlcdc_rgba8888_ws_9x75_curiosity_720x720_round/debug/_ext/799690486/legato_imagedecoder_raw_read_internal.o
 .debug_aranges
                0x00001550       0x58 build/dsi_xlcdc_rgba8888_ws_9x75_curiosity_720x720_round/debug/_ext/799690486/legato_imagedecoder_raw_scale.o
 .debug_aranges
                0x000015a8       0x28 build/dsi_xlcdc_rgba8888_ws_9x75_curiosity_720x720_round/debug/_ext/799690486/legato_imagedecoder_raw_mask.o
 .debug_aranges
                0x000015d0       0x38 build/dsi_xlcdc_rgba8888_ws_9x75_curiosity_720x720_round/debug/_ext/799690486/legato_imagedecoder_raw_blend.o
 .debug_aranges
                0x00001608       0x80 build/dsi_xlcdc_rgba8888_ws_9x75_curiosity_720x720_round/debug/_ext/799690486/legato_imagedecoder_raw.o
 .debug_aranges
                0x00001688       0x38 build/dsi_xlcdc_rgba8888_ws_9x75_curiosity_720x720_round/debug/_ext/799690486/legato_imagedecoder_raw_setup.o
 .debug_aranges
                0x000016c0       0x48 build/dsi_xlcdc_rgba8888_ws_9x75_curiosity_720x720_round/debug/_ext/799690486/legato_imagedecoder_raw_rotate.o
 .debug_aranges
                0x00001708       0x38 build/dsi_xlcdc_rgba8888_ws_9x75_curiosity_720x720_round/debug/_ext/799690486/legato_imagedecoder_raw_palette_internal.o
 .debug_aranges
                0x00001740       0x78 build/dsi_xlcdc_rgba8888_ws_9x75_curiosity_720x720_round/debug/_ext/1664643037/legato_image_utils.o
 .debug_aranges
                0x000017b8       0x78 build/dsi_xlcdc_rgba8888_ws_9x75_curiosity_720x720_round/debug/_ext/1664643037/legato_image.o
 .debug_aranges
                0x00001830       0x80 build/dsi_xlcdc_rgba8888_ws_9x75_curiosity_720x720_round/debug/_ext/171820735/legato_variableheap.o
 .debug_aranges
                0x000018b0       0x48 build/dsi_xlcdc_rgba8888_ws_9x75_curiosity_720x720_round/debug/_ext/171820735/legato_fixedheap.o
 .debug_aranges
                0x000018f8       0x50 build/dsi_xlcdc_rgba8888_ws_9x75_curiosity_720x720_round/debug/_ext/171820735/legato_memory.o
 .debug_aranges
                0x00001948       0x88 build/dsi_xlcdc_rgba8888_ws_9x75_curiosity_720x720_round/debug/_ext/2053165825/legato_draw.o
 .debug_aranges
                0x000019d0       0x38 build/dsi_xlcdc_rgba8888_ws_9x75_curiosity_720x720_round/debug/_ext/2053165825/legato_draw_line.o
 .debug_aranges
                0x00001a08       0x38 build/dsi_xlcdc_rgba8888_ws_9x75_curiosity_720x720_round/debug/_ext/2053165825/legato_draw_rect.o
 .debug_aranges
                0x00001a40       0x60 build/dsi_xlcdc_rgba8888_ws_9x75_curiosity_720x720_round/debug/_ext/2053165825/legato_draw_arc.o
 .debug_aranges
                0x00001aa0       0x40 build/dsi_xlcdc_rgba8888_ws_9x75_curiosity_720x720_round/debug/_ext/2053165825/legato_gpu.o
 .debug_aranges
                0x00001ae0       0xe8 build/dsi_xlcdc_rgba8888_ws_9x75_curiosity_720x720_round/debug/_ext/2053165825/legato_renderer.o
 .debug_aranges
                0x00001bc8       0x88 build/dsi_xlcdc_rgba8888_ws_9x75_curiosity_720x720_round/debug/_ext/357591503/legato_string.o
 .debug_aranges
                0x00001c50       0xb0 build/dsi_xlcdc_rgba8888_ws_9x75_curiosity_720x720_round/debug/_ext/357591503/legato_stringutils.o
 .debug_aranges
                0x00001d00       0x30 build/dsi_xlcdc_rgba8888_ws_9x75_curiosity_720x720_round/debug/_ext/357591503/legato_string_renderer.o
 .debug_aranges
                0x00001d30       0xa0 build/dsi_xlcdc_rgba8888_ws_9x75_curiosity_720x720_round/debug/_ext/357591503/legato_fixedstring.o
 .debug_aranges
                0x00001dd0       0x50 build/dsi_xlcdc_rgba8888_ws_9x75_curiosity_720x720_round/debug/_ext/357591503/legato_stringtable.o
 .debug_aranges
                0x00001e20       0x98 build/dsi_xlcdc_rgba8888_ws_9x75_curiosity_720x720_round/debug/_ext/357591503/legato_tablestring.o
 .debug_aranges
                0x00001eb8       0x48 build/dsi_xlcdc_rgba8888_ws_9x75_curiosity_720x720_round/debug/_ext/1591588594/legato_widget_image_skin_classic.o
 .debug_aranges
                0x00001f00       0x48 build/dsi_xlcdc_rgba8888_ws_9x75_curiosity_720x720_round/debug/_ext/1591588594/legato_widget_image.o
 .debug_aranges
                0x00001f48       0x48 build/dsi_xlcdc_rgba8888_ws_9x75_curiosity_720x720_round/debug/_ext/1589174617/legato_widget_label_skin_classic.o
 .debug_aranges
                0x00001f90       0x58 build/dsi_xlcdc_rgba8888_ws_9x75_curiosity_720x720_round/debug/_ext/1589174617/legato_widget_label.o
 .debug_aranges
                0x00001fe8       0xa0 build/dsi_xlcdc_rgba8888_ws_9x75_curiosity_720x720_round/debug/_ext/461530114/legato_widget_skin_classic_common.o
 .debug_aranges
                0x00002088       0x30 build/dsi_xlcdc_rgba8888_ws_9x75_curiosity_720x720_round/debug/_ext/461530114/legato_widget_skin_classic.o
 .debug_aranges
                0x000020b8      0x258 build/dsi_xlcdc_rgba8888_ws_9x75_curiosity_720x720_round/debug/_ext/461530114/legato_widget.o
 .debug_aranges
                0x00002310       0x38 build/dsi_xlcdc_rgba8888_ws_9x75_curiosity_720x720_round/debug/_ext/1886844053/plib_aic.o
 .debug_aranges
                0x00002348       0x20 build/dsi_xlcdc_rgba8888_ws_9x75_curiosity_720x720_round/debug/_ext/1886846076/plib_clk.o
 .debug_aranges
                0x00002368       0x68 build/dsi_xlcdc_rgba8888_ws_9x75_curiosity_720x720_round/debug/_ext/1637293614/plib_dbgu.o
 .debug_aranges
                0x000023d0       0x70 build/dsi_xlcdc_rgba8888_ws_9x75_curiosity_720x720_round/debug/_ext/545877704/plib_flexcom6_twi_master.o
 .debug_aranges
                0x00002440      0x110 build/dsi_xlcdc_rgba8888_ws_9x75_curiosity_720x720_round/debug/_ext/786409605/plib_gfx2d.o
 .debug_aranges
                0x00002550       0x78 build/dsi_xlcdc_rgba8888_ws_9x75_curiosity_720x720_round/debug/_ext/1886855727/plib_mmu.o
 .debug_aranges
                0x000025c8       0x60 build/dsi_xlcdc_rgba8888_ws_9x75_curiosity_720x720_round/debug/_ext/1886858480/plib_pio.o
 .debug_aranges
                0x00002628       0x70 build/dsi_xlcdc_rgba8888_ws_9x75_curiosity_720x720_round/debug/_ext/1886860748/plib_rtt.o
 .debug_aranges
                0x00002698       0xa8 build/dsi_xlcdc_rgba8888_ws_9x75_curiosity_720x720_round/debug/_ext/60866517/plib_tc1.o
 .debug_aranges
                0x00002740       0x28 build/dsi_xlcdc_rgba8888_ws_9x75_curiosity_720x720_round/debug/_ext/1477359996/xc32_monitor.o
 .debug_aranges
                0x00002768       0xa0 build/dsi_xlcdc_rgba8888_ws_9x75_curiosity_720x720_round/debug/_ext/1949213289/sys_input.o
 .debug_aranges
                0x00002808       0x70 build/dsi_xlcdc_rgba8888_ws_9x75_curiosity_720x720_round/debug/_ext/586618287/sys_int.o
 .debug_aranges
                0x00002878       0xe8 build/dsi_xlcdc_rgba8888_ws_9x75_curiosity_720x720_round/debug/_ext/690637493/sys_time.o
 .debug_aranges
                0x00002960       0x30 build/dsi_xlcdc_rgba8888_ws_9x75_curiosity_720x720_round/debug/_ext/1295507646/cstartup.o
 .debug_aranges
                0x00002990       0x28 build/dsi_xlcdc_rgba8888_ws_9x75_curiosity_720x720_round/debug/_ext/1295507646/interrupts.o
 .debug_aranges
                0x000029b8       0x20 build/dsi_xlcdc_rgba8888_ws_9x75_curiosity_720x720_round/debug/_ext/1295507646/initialization.o
 .debug_aranges
                0x000029d8       0x38 build/dsi_xlcdc_rgba8888_ws_9x75_curiosity_720x720_round/debug/_ext/1295507646/fault_handlers.o
 .debug_aranges
                0x00002a10       0x20 build/dsi_xlcdc_rgba8888_ws_9x75_curiosity_720x720_round/debug/_ext/1295507646/tasks.o
 .debug_aranges
                0x00002a30       0x20 build/dsi_xlcdc_rgba8888_ws_9x75_curiosity_720x720_round/debug/_ext/1360937237/main.o
 .debug_aranges
                0x00002a50       0x68 build/dsi_xlcdc_rgba8888_ws_9x75_curiosity_720x720_round/debug/_ext/1360937237/app.o
 .debug_aranges
                0x00002ab8       0x68 build/dsi_xlcdc_rgba8888_ws_9x75_curiosity_720x720_round/debug/_ext/1360937237/app_drive.o
 .debug_aranges
                0x00002b20       0x20 c:/program files/microchip/xc32/v4.35/bin/bin/../../lib/gcc/pic32c/8.3.1/arm/v5te/nofp\libgcc.a(_udivsi3.o)
 .debug_aranges
                0x00002b40       0x20 c:/program files/microchip/xc32/v4.35/bin/bin/../../lib/gcc/pic32c/8.3.1/arm/v5te/nofp\libgcc.a(_divsi3.o)
 .debug_aranges
                0x00002b60       0x20 c:/program files/microchip/xc32/v4.35/bin/bin/../../lib/gcc/pic32c/8.3.1/arm/v5te/nofp\libgcc.a(_dvmd_tls.o)
 .debug_aranges
                0x00002b80       0x20 c:/program files/microchip/xc32/v4.35/bin/bin/../../lib/gcc/pic32c/8.3.1/arm/v5te/nofp\libgcc.a(_arm_addsubsf3.o)
 .debug_aranges
                0x00002ba0       0x20 c:/program files/microchip/xc32/v4.35/bin/bin/../../lib/gcc/pic32c/8.3.1/arm/v5te/nofp\libgcc.a(_arm_muldivsf3.o)
 .debug_aranges
                0x00002bc0       0x20 c:/program files/microchip/xc32/v4.35/bin/bin/../../lib/gcc/pic32c/8.3.1/arm/v5te/nofp\libgcc.a(_arm_cmpsf2.o)
 .debug_aranges
                0x00002be0       0x20 c:/program files/microchip/xc32/v4.35/bin/bin/../../lib/gcc/pic32c/8.3.1/arm/v5te/nofp\libgcc.a(_arm_fixsfsi.o)
 .debug_aranges
                0x00002c00       0x20 c:/program files/microchip/xc32/v4.35/bin/bin/../../lib/gcc/pic32c/8.3.1/arm/v5te/nofp\libgcc.a(_arm_fixunssfsi.o)
 .debug_aranges
                0x00002c20       0x20 c:/program files/microchip/xc32/v4.35/bin/bin/../../lib/gcc/pic32c/8.3.1/arm/v5te/nofp\libgcc.a(_aeabi_uldivmod.o)
 .debug_aranges
                0x00002c40       0x20 c:/program files/microchip/xc32/v4.35/bin/bin/../../lib/gcc/pic32c/8.3.1/arm/v5te/nofp\libgcc.a(_udivmoddi4.o)
 .debug_aranges
                0x00002c60       0x28 c:/program files/microchip/xc32/v4.35/bin/bin/../../lib/gcc/pic32c/8.3.1/../../../../pic32c/lib/arm/v5te/nofp\libg-musl.a(__libc_start_main.o)
 .debug_aranges
                0x00002c88       0x18 c:/program files/microchip/xc32/v4.35/bin/bin/../../lib/gcc/pic32c/8.3.1/../../../../pic32c/lib/arm/v5te/nofp\libg-musl.a(libc.o)
 .debug_aranges
                0x00002ca0       0x28 c:/program files/microchip/xc32/v4.35/bin/bin/../../lib/gcc/pic32c/8.3.1/../../../../pic32c/lib/arm/v5te/nofp\libg-musl.a(__sio_sprintf_dnpuxX.o)
 .debug_aranges
                0x00002cc8       0x20 c:/program files/microchip/xc32/v4.35/bin/bin/../../lib/gcc/pic32c/8.3.1/../../../../pic32c/lib/arm/v5te/nofp\libg-musl.a(__fmt_d.o)
 .debug_aranges
                0x00002ce8       0x20 c:/program files/microchip/xc32/v4.35/bin/bin/../../lib/gcc/pic32c/8.3.1/../../../../pic32c/lib/arm/v5te/nofp\libg-musl.a(__fmt_u.o)
 .debug_aranges
                0x00002d08       0x20 c:/program files/microchip/xc32/v4.35/bin/bin/../../lib/gcc/pic32c/8.3.1/../../../../pic32c/lib/arm/v5te/nofp\libg-musl.a(__fmt_x.o)
 .debug_aranges
                0x00002d28       0x20 c:/program files/microchip/xc32/v4.35/bin/bin/../../lib/gcc/pic32c/8.3.1/../../../../pic32c/lib/arm/v5te/nofp\libg-musl.a(__pop_int.o)
 .debug_aranges
                0x00002d48       0x20 c:/program files/microchip/xc32/v4.35/bin/bin/../../lib/gcc/pic32c/8.3.1/../../../../pic32c/lib/arm/v5te/nofp\libg-musl.a(__pop_ptr.o)
 .debug_aranges
                0x00002d68       0x50 c:/program files/microchip/xc32/v4.35/bin/bin/../../lib/gcc/pic32c/8.3.1/../../../../pic32c/lib/arm/v5te/nofp\libg-musl.a(__printf_core.o)
 .debug_aranges
                0x00002db8       0x28 c:/program files/microchip/xc32/v4.35/bin/bin/../../lib/gcc/pic32c/8.3.1/../../../../pic32c/lib/arm/v5te/nofp\libg-musl.a(stdin.o)
 .debug_aranges
                0x00002de0       0x30 c:/program files/microchip/xc32/v4.35/bin/bin/../../lib/gcc/pic32c/8.3.1/../../../../pic32c/lib/arm/v5te/nofp\libg-musl.a(stdout.o)
 .debug_aranges
                0x00002e10       0x20 c:/program files/microchip/xc32/v4.35/bin/bin/../../lib/gcc/pic32c/8.3.1/../../../../pic32c/lib/arm/v5te/nofp\libg-musl.a(puts.o)
 .debug_aranges
                0x00002e30       0x20 c:/program files/microchip/xc32/v4.35/bin/bin/../../lib/gcc/pic32c/8.3.1/../../../../pic32c/lib/arm/v5te/nofp\libg-musl.a(setbuf.o)
 .debug_aranges
                0x00002e50       0x20 c:/program files/microchip/xc32/v4.35/bin/bin/../../lib/gcc/pic32c/8.3.1/../../../../pic32c/lib/arm/v5te/nofp\libg-musl.a(atoi.o)
 .debug_aranges
                0x00002e70       0x20 c:/program files/microchip/xc32/v4.35/bin/bin/../../lib/gcc/pic32c/8.3.1/../../../../pic32c/lib/arm/v5te/nofp\libg-musl.a(memcpy.o)
 .debug_aranges
                0x00002e90       0x20 c:/program files/microchip/xc32/v4.35/bin/bin/../../lib/gcc/pic32c/8.3.1/../../../../pic32c/lib/arm/v5te/nofp\libg-musl.a(memmove.o)
 .debug_aranges
                0x00002eb0       0x20 c:/program files/microchip/xc32/v4.35/bin/bin/../../lib/gcc/pic32c/8.3.1/../../../../pic32c/lib/arm/v5te/nofp\libg-musl.a(memset.o)
 .debug_aranges
                0x00002ed0       0x20 c:/program files/microchip/xc32/v4.35/bin/bin/../../lib/gcc/pic32c/8.3.1/../../../../pic32c/lib/arm/v5te/nofp\libg-musl.a(strlen.o)
 .debug_aranges
                0x00002ef0       0x28 c:/program files/microchip/xc32/v4.35/bin/bin/../../lib/gcc/pic32c/8.3.1/../../../../pic32c/lib/arm/v5te/nofp\libg-musl.a(tolower.o)
 .debug_aranges
                0x00002f18       0x28 c:/program files/microchip/xc32/v4.35/bin/bin/../../lib/gcc/pic32c/8.3.1/../../../../pic32c/lib/arm/v5te/nofp\libg-musl.a(toupper.o)
 .debug_aranges
                0x00002f40       0x18 c:/program files/microchip/xc32/v4.35/bin/bin/../../lib/gcc/pic32c/8.3.1/../../../../pic32c/lib/arm/v5te/nofp\libg-musl.a(__environ.o)
 .debug_aranges
                0x00002f58       0x18 c:/program files/microchip/xc32/v4.35/bin/bin/../../lib/gcc/pic32c/8.3.1/../../../../pic32c/lib/arm/v5te/nofp\libg-musl.a(__errno_location.o)
 .debug_aranges
                0x00002f70       0x20 c:/program files/microchip/xc32/v4.35/bin/bin/../../lib/gcc/pic32c/8.3.1/../../../../pic32c/lib/arm/v5te/nofp\libg-musl.a(__int_vfprintf.o)
 .debug_aranges
                0x00002f90       0x20 c:/program files/microchip/xc32/v4.35/bin/bin/../../lib/gcc/pic32c/8.3.1/../../../../pic32c/lib/arm/v5te/nofp\libg-musl.a(__int_vsprintf.o)
 .debug_aranges
                0x00002fb0       0x20 c:/program files/microchip/xc32/v4.35/bin/bin/../../lib/gcc/pic32c/8.3.1/../../../../pic32c/lib/arm/v5te/nofp\libg-musl.a(fputs.o)
 .debug_aranges
                0x00002fd0       0x20 c:/program files/microchip/xc32/v4.35/bin/bin/../../lib/gcc/pic32c/8.3.1/../../../../pic32c/lib/arm/v5te/nofp\libg-musl.a(__cvt_u.o)
 .debug_aranges
                0x00002ff0       0x20 c:/program files/microchip/xc32/v4.35/bin/bin/../../lib/gcc/pic32c/8.3.1/../../../../pic32c/lib/arm/v5te/nofp\libg-musl.a(__pop_float.o)
 .debug_aranges
                0x00003010       0x20 c:/program files/microchip/xc32/v4.35/bin/bin/../../lib/gcc/pic32c/8.3.1/../../../../pic32c/lib/arm/v5te/nofp\libg-musl.a(__stdio_read.o)
 .debug_aranges
                0x00003030       0x20 c:/program files/microchip/xc32/v4.35/bin/bin/../../lib/gcc/pic32c/8.3.1/../../../../pic32c/lib/arm/v5te/nofp\libg-musl.a(__towrite_rw.o)
 .debug_aranges
                0x00003050       0x28 c:/program files/microchip/xc32/v4.35/bin/bin/../../lib/gcc/pic32c/8.3.1/../../../../pic32c/lib/arm/v5te/nofp\libg-musl.a(fwrite.o)
 .debug_aranges
                0x00003078       0x30 c:/program files/microchip/xc32/v4.35/bin/bin/../../lib/gcc/pic32c/8.3.1/../../../../pic32c/lib/arm/v5te/nofp\libg-musl.a(putc.o)
 .debug_aranges
                0x000030a8       0x28 c:/program files/microchip/xc32/v4.35/bin/bin/../../lib/gcc/pic32c/8.3.1/../../../../pic32c/lib/arm/v5te/nofp\libg-musl.a(setvbuf.o)
 .debug_aranges
                0x000030d0       0x20 c:/program files/microchip/xc32/v4.35/bin/bin/../../lib/gcc/pic32c/8.3.1/../../../../pic32c/lib/arm/v5te/nofp\libg-musl.a(readv.o)
 .debug_aranges
                0x000030f0       0x70 c:/program files/microchip/xc32/v4.35/bin/bin/../../lib/gcc/pic32c/8.3.1/../../../../pic32c/lib/arm/v5te/nofp\libg-musl.a(malloc.o)
 .debug_aranges
                0x00003160       0x20 c:/program files/microchip/xc32/v4.35/bin/bin/../../lib/gcc/pic32c/8.3.1/../../../../pic32c/lib/arm/v5te/nofp\libg-musl.a(expand_heap.o)
 .debug_aranges
                0x00003180       0x20 c:/program files/microchip/xc32/v4.35/bin/bin/../../lib/gcc/pic32c/8.3.1/../../../../pic32c/lib/arm/v5te/nofp\libg-musl.a(__int_vsnprintf.o)
 .debug_aranges
                0x000031a0       0x28 c:/program files/microchip/xc32/v4.35/bin/bin/../../lib/gcc/pic32c/8.3.1/../../../../pic32c/lib/arm/v5te/nofp\libg-musl.a(__init_stdio.o)
 .debug_aranges
                0x000031c8       0x28 c:/program files/microchip/xc32/v4.35/bin/bin/../../lib/gcc/pic32c/8.3.1/../../../../pic32c/lib/arm/v5te/nofp\libg-musl.a(__out.o)
 .debug_aranges
                0x000031f0       0x20 c:/program files/microchip/xc32/v4.35/bin/bin/../../lib/gcc/pic32c/8.3.1/../../../../pic32c/lib/arm/v5te/nofp\libg-musl.a(__putc.o)
 .debug_aranges
                0x00003210       0x30 c:/program files/microchip/xc32/v4.35/bin/bin/../../lib/gcc/pic32c/8.3.1/../../../../pic32c/lib/arm/v5te/nofp\libg-musl.a(__stderr.o)
 .debug_aranges
                0x00003240       0x28 c:/program files/microchip/xc32/v4.35/bin/bin/../../lib/gcc/pic32c/8.3.1/../../../../pic32c/lib/arm/v5te/nofp\libg-musl.a(__stdio_close.o)
 .debug_aranges
                0x00003268       0x28 c:/program files/microchip/xc32/v4.35/bin/bin/../../lib/gcc/pic32c/8.3.1/../../../../pic32c/lib/arm/v5te/nofp\libg-musl.a(__stdio_write.o)
 .debug_aranges
                0x00003290       0x30 c:/program files/microchip/xc32/v4.35/bin/bin/../../lib/gcc/pic32c/8.3.1/../../../../pic32c/lib/arm/v5te/nofp\libg-musl.a(__stdout.o)
 .debug_aranges
                0x000032c0       0x28 c:/program files/microchip/xc32/v4.35/bin/bin/../../lib/gcc/pic32c/8.3.1/../../../../pic32c/lib/arm/v5te/nofp\libg-musl.a(__towrite.o)
 .debug_aranges
                0x000032e8       0x20 c:/program files/microchip/xc32/v4.35/bin/bin/../../lib/gcc/pic32c/8.3.1/../../../../pic32c/lib/arm/v5te/nofp\libg-musl.a(writev.o)
 .debug_aranges
                0x00003308       0x20 c:/program files/microchip/xc32/v4.35/bin/bin/../../lib/gcc/pic32c/8.3.1/../../../../pic32c/lib/arm/v5te/nofp\libg-musl.a(__overflow.o)
 .debug_aranges
                0x00003328       0x28 c:/program files/microchip/xc32/v4.35/bin/bin/../../lib/gcc/pic32c/8.3.1/../../../../pic32c/lib/arm/v5te/nofp\libg-musl.a(__fwrite.o)
 .debug_aranges
                0x00003350       0x20 c:/program files/microchip/xc32/v4.35/bin/bin/../../lib/gcc/pic32c/8.3.1/../../../../pic32c/lib/arm/v5te/nofp\libpic32c.a(close.o)
 .debug_aranges
                0x00003370       0x20 c:/program files/microchip/xc32/v4.35/bin/bin/../../lib/gcc/pic32c/8.3.1/../../../../pic32c/lib/arm/v5te/nofp\libpic32c.a(lseek.o)
 .debug_aranges
                0x00003390       0x20 c:/program files/microchip/xc32/v4.35/bin/bin/../../lib/gcc/pic32c/8.3.1/../../../../pic32c/lib/arm/v5te/nofp\libpic32c.a(sbrk.o)

.debug_ranges   0x00000000     0xb0d0
 .debug_ranges  0x00000000      0x6d8 build/dsi_xlcdc_rgba8888_ws_9x75_curiosity_720x720_round/debug/_ext/1985065589/drv_i2c.o
 .debug_ranges  0x000006d8       0xd0 build/dsi_xlcdc_rgba8888_ws_9x75_curiosity_720x720_round/debug/_ext/2010836581/gfx_canvas_api.o
 .debug_ranges  0x000007a8      0x188 build/dsi_xlcdc_rgba8888_ws_9x75_curiosity_720x720_round/debug/_ext/2010836581/gfx_canvas.o
 .debug_ranges  0x00000930      0x2c0 build/dsi_xlcdc_rgba8888_ws_9x75_curiosity_720x720_round/debug/_ext/1085405985/ws_touch_display.o
 .debug_ranges  0x00000bf0       0x50 build/dsi_xlcdc_rgba8888_ws_9x75_curiosity_720x720_round/debug/_ext/219820618/drv_gfx2d.o
 .debug_ranges  0x00000c40      0x170 build/dsi_xlcdc_rgba8888_ws_9x75_curiosity_720x720_round/debug/_ext/1247915868/plib_dsi.o
 .debug_ranges  0x00000db0      0x2d8 build/dsi_xlcdc_rgba8888_ws_9x75_curiosity_720x720_round/debug/_ext/225302149/plib_xlcdc.o
 .debug_ranges  0x00001088       0x48 build/dsi_xlcdc_rgba8888_ws_9x75_curiosity_720x720_round/debug/_ext/505007713/drv_gfx_xlcdc.o
 .debug_ranges  0x000010d0      0x340 build/dsi_xlcdc_rgba8888_ws_9x75_curiosity_720x720_round/debug/_ext/1966656405/gfx_driver.o
 .debug_ranges  0x00001410      0x960 build/dsi_xlcdc_rgba8888_ws_9x75_curiosity_720x720_round/debug/_ext/105237591/legato_math.o
 .debug_ranges  0x00001d70       0xc8 build/dsi_xlcdc_rgba8888_ws_9x75_curiosity_720x720_round/debug/_ext/105237591/legato_rect.o
 .debug_ranges  0x00001e38       0x80 build/dsi_xlcdc_rgba8888_ws_9x75_curiosity_720x720_round/debug/_ext/105237591/legato_utils.o
 .debug_ranges  0x00001eb8      0x1a8 build/dsi_xlcdc_rgba8888_ws_9x75_curiosity_720x720_round/debug/_ext/105237591/legato_color_blend.o
 .debug_ranges  0x00002060       0x90 build/dsi_xlcdc_rgba8888_ws_9x75_curiosity_720x720_round/debug/_ext/105237591/legato_color.o
 .debug_ranges  0x000020f0       0xa8 build/dsi_xlcdc_rgba8888_ws_9x75_curiosity_720x720_round/debug/_ext/105237591/legato_color_lerp.o
 .debug_ranges  0x00002198      0x2e0 build/dsi_xlcdc_rgba8888_ws_9x75_curiosity_720x720_round/debug/_ext/105237591/legato_pixelbuffer.o
 .debug_ranges  0x00002478      0x140 build/dsi_xlcdc_rgba8888_ws_9x75_curiosity_720x720_round/debug/_ext/105237591/legato_color_convert.o
 .debug_ranges  0x000025b8       0x70 build/dsi_xlcdc_rgba8888_ws_9x75_curiosity_720x720_round/debug/_ext/884805853/legato_event.o
 .debug_ranges  0x00002628       0x20 build/dsi_xlcdc_rgba8888_ws_9x75_curiosity_720x720_round/debug/_ext/884805853/legato_scheme.o
 .debug_ranges  0x00002648       0x98 build/dsi_xlcdc_rgba8888_ws_9x75_curiosity_720x720_round/debug/_ext/884805853/legato_input.o
 .debug_ranges  0x000026e0      0x1b8 build/dsi_xlcdc_rgba8888_ws_9x75_curiosity_720x720_round/debug/_ext/884805853/legato_state.o
 .debug_ranges  0x00002898      0x150 build/dsi_xlcdc_rgba8888_ws_9x75_curiosity_720x720_round/debug/_ext/778592651/legato_array.o
 .debug_ranges  0x000029e8      0x3a8 build/dsi_xlcdc_rgba8888_ws_9x75_curiosity_720x720_round/debug/_ext/778592651/legato_rectarray.o
 .debug_ranges  0x00002d90       0x90 build/dsi_xlcdc_rgba8888_ws_9x75_curiosity_720x720_round/debug/_ext/778592651/legato_list.o
 .debug_ranges  0x00002e20       0x78 build/dsi_xlcdc_rgba8888_ws_9x75_curiosity_720x720_round/debug/_ext/884895117/legato_font.o
 .debug_ranges  0x00002e98       0x38 build/dsi_xlcdc_rgba8888_ws_9x75_curiosity_720x720_round/debug/_ext/1322619606/le_gen_screen_Screen0.o
 .debug_ranges  0x00002ed0       0x30 build/dsi_xlcdc_rgba8888_ws_9x75_curiosity_720x720_round/debug/_ext/1965903633/le_gen_harmony.o
 .debug_ranges  0x00002f00       0x10 build/dsi_xlcdc_rgba8888_ws_9x75_curiosity_720x720_round/debug/_ext/1965903633/le_gen_stringtable.o
 .debug_ranges  0x00002f10       0x68 build/dsi_xlcdc_rgba8888_ws_9x75_curiosity_720x720_round/debug/_ext/1965903633/le_gen_init.o
 .debug_ranges  0x00002f78      0x3c0 build/dsi_xlcdc_rgba8888_ws_9x75_curiosity_720x720_round/debug/_ext/979623078/legato_imagedecoder_jpeg_common.o
 .debug_ranges  0x00003338       0x30 build/dsi_xlcdc_rgba8888_ws_9x75_curiosity_720x720_round/debug/_ext/979623078/jidctint.o
 .debug_ranges  0x00003368       0x48 build/dsi_xlcdc_rgba8888_ws_9x75_curiosity_720x720_round/debug/_ext/979623078/legato_imagedecoder_jpeg.o
 .debug_ranges  0x000033b0       0x18 build/dsi_xlcdc_rgba8888_ws_9x75_curiosity_720x720_round/debug/_ext/979534379/legato_imagedecoder_mono_read_internal.o
 .debug_ranges  0x000033c8      0x500 build/dsi_xlcdc_rgba8888_ws_9x75_curiosity_720x720_round/debug/_ext/979534379/legato_imagedecoder_mono.o
 .debug_ranges  0x000038c8       0x40 build/dsi_xlcdc_rgba8888_ws_9x75_curiosity_720x720_round/debug/_ext/799688951/legato_imagedecoder_png.o
 .debug_ranges  0x00003908     0x3730 build/dsi_xlcdc_rgba8888_ws_9x75_curiosity_720x720_round/debug/_ext/799688951/lodepng.o
 .debug_ranges  0x00007038       0x18 build/dsi_xlcdc_rgba8888_ws_9x75_curiosity_720x720_round/debug/_ext/799690486/legato_imagedecoder_raw_convert.o
 .debug_ranges  0x00007050       0x28 build/dsi_xlcdc_rgba8888_ws_9x75_curiosity_720x720_round/debug/_ext/799690486/legato_imagedecoder_raw_write.o
 .debug_ranges  0x00007078       0x48 build/dsi_xlcdc_rgba8888_ws_9x75_curiosity_720x720_round/debug/_ext/799690486/legato_imagedecoder_raw_read_internal.o
 .debug_ranges  0x000070c0       0x48 build/dsi_xlcdc_rgba8888_ws_9x75_curiosity_720x720_round/debug/_ext/799690486/legato_imagedecoder_raw_scale.o
 .debug_ranges  0x00007108       0x18 build/dsi_xlcdc_rgba8888_ws_9x75_curiosity_720x720_round/debug/_ext/799690486/legato_imagedecoder_raw_mask.o
 .debug_ranges  0x00007120       0x98 build/dsi_xlcdc_rgba8888_ws_9x75_curiosity_720x720_round/debug/_ext/799690486/legato_imagedecoder_raw_blend.o
 .debug_ranges  0x000071b8      0x258 build/dsi_xlcdc_rgba8888_ws_9x75_curiosity_720x720_round/debug/_ext/799690486/legato_imagedecoder_raw.o
 .debug_ranges  0x00007410       0x28 build/dsi_xlcdc_rgba8888_ws_9x75_curiosity_720x720_round/debug/_ext/799690486/legato_imagedecoder_raw_setup.o
 .debug_ranges  0x00007438       0x38 build/dsi_xlcdc_rgba8888_ws_9x75_curiosity_720x720_round/debug/_ext/799690486/legato_imagedecoder_raw_rotate.o
 .debug_ranges  0x00007470       0x28 build/dsi_xlcdc_rgba8888_ws_9x75_curiosity_720x720_round/debug/_ext/799690486/legato_imagedecoder_raw_palette_internal.o
 .debug_ranges  0x00007498       0x68 build/dsi_xlcdc_rgba8888_ws_9x75_curiosity_720x720_round/debug/_ext/1664643037/legato_image_utils.o
 .debug_ranges  0x00007500       0x98 build/dsi_xlcdc_rgba8888_ws_9x75_curiosity_720x720_round/debug/_ext/1664643037/legato_image.o
 .debug_ranges  0x00007598      0x6a8 build/dsi_xlcdc_rgba8888_ws_9x75_curiosity_720x720_round/debug/_ext/171820735/legato_variableheap.o
 .debug_ranges  0x00007c40       0x38 build/dsi_xlcdc_rgba8888_ws_9x75_curiosity_720x720_round/debug/_ext/171820735/legato_fixedheap.o
 .debug_ranges  0x00007c78      0x2b8 build/dsi_xlcdc_rgba8888_ws_9x75_curiosity_720x720_round/debug/_ext/171820735/legato_memory.o
 .debug_ranges  0x00007f30       0xb0 build/dsi_xlcdc_rgba8888_ws_9x75_curiosity_720x720_round/debug/_ext/2053165825/legato_draw.o
 .debug_ranges  0x00007fe0       0x28 build/dsi_xlcdc_rgba8888_ws_9x75_curiosity_720x720_round/debug/_ext/2053165825/legato_draw_line.o
 .debug_ranges  0x00008008       0x28 build/dsi_xlcdc_rgba8888_ws_9x75_curiosity_720x720_round/debug/_ext/2053165825/legato_draw_rect.o
 .debug_ranges  0x00008030      0x168 build/dsi_xlcdc_rgba8888_ws_9x75_curiosity_720x720_round/debug/_ext/2053165825/legato_draw_arc.o
 .debug_ranges  0x00008198       0x30 build/dsi_xlcdc_rgba8888_ws_9x75_curiosity_720x720_round/debug/_ext/2053165825/legato_gpu.o
 .debug_ranges  0x000081c8      0x2f0 build/dsi_xlcdc_rgba8888_ws_9x75_curiosity_720x720_round/debug/_ext/2053165825/legato_renderer.o
 .debug_ranges  0x000084b8       0x78 build/dsi_xlcdc_rgba8888_ws_9x75_curiosity_720x720_round/debug/_ext/357591503/legato_string.o
 .debug_ranges  0x00008530      0x1b0 build/dsi_xlcdc_rgba8888_ws_9x75_curiosity_720x720_round/debug/_ext/357591503/legato_stringutils.o
 .debug_ranges  0x000086e0       0x68 build/dsi_xlcdc_rgba8888_ws_9x75_curiosity_720x720_round/debug/_ext/357591503/legato_string_renderer.o
 .debug_ranges  0x00008748      0x168 build/dsi_xlcdc_rgba8888_ws_9x75_curiosity_720x720_round/debug/_ext/357591503/legato_fixedstring.o
 .debug_ranges  0x000088b0       0x68 build/dsi_xlcdc_rgba8888_ws_9x75_curiosity_720x720_round/debug/_ext/357591503/legato_stringtable.o
 .debug_ranges  0x00008918       0xa0 build/dsi_xlcdc_rgba8888_ws_9x75_curiosity_720x720_round/debug/_ext/357591503/legato_tablestring.o
 .debug_ranges  0x000089b8       0x88 build/dsi_xlcdc_rgba8888_ws_9x75_curiosity_720x720_round/debug/_ext/1591588594/legato_widget_image_skin_classic.o
 .debug_ranges  0x00008a40       0x38 build/dsi_xlcdc_rgba8888_ws_9x75_curiosity_720x720_round/debug/_ext/1591588594/legato_widget_image.o
 .debug_ranges  0x00008a78       0x68 build/dsi_xlcdc_rgba8888_ws_9x75_curiosity_720x720_round/debug/_ext/1589174617/legato_widget_label_skin_classic.o
 .debug_ranges  0x00008ae0       0x60 build/dsi_xlcdc_rgba8888_ws_9x75_curiosity_720x720_round/debug/_ext/1589174617/legato_widget_label.o
 .debug_ranges  0x00008b40       0xb0 build/dsi_xlcdc_rgba8888_ws_9x75_curiosity_720x720_round/debug/_ext/461530114/legato_widget_skin_classic_common.o
 .debug_ranges  0x00008bf0       0x68 build/dsi_xlcdc_rgba8888_ws_9x75_curiosity_720x720_round/debug/_ext/461530114/legato_widget_skin_classic.o
 .debug_ranges  0x00008c58      0x278 build/dsi_xlcdc_rgba8888_ws_9x75_curiosity_720x720_round/debug/_ext/461530114/legato_widget.o
 .debug_ranges  0x00008ed0       0x70 build/dsi_xlcdc_rgba8888_ws_9x75_curiosity_720x720_round/debug/_ext/1886844053/plib_aic.o
 .debug_ranges  0x00008f40       0x88 build/dsi_xlcdc_rgba8888_ws_9x75_curiosity_720x720_round/debug/_ext/1886846076/plib_clk.o
 .debug_ranges  0x00008fc8       0x58 build/dsi_xlcdc_rgba8888_ws_9x75_curiosity_720x720_round/debug/_ext/1637293614/plib_dbgu.o
 .debug_ranges  0x00009020      0x140 build/dsi_xlcdc_rgba8888_ws_9x75_curiosity_720x720_round/debug/_ext/545877704/plib_flexcom6_twi_master.o
 .debug_ranges  0x00009160      0x358 build/dsi_xlcdc_rgba8888_ws_9x75_curiosity_720x720_round/debug/_ext/786409605/plib_gfx2d.o
 .debug_ranges  0x000094b8      0x2d8 build/dsi_xlcdc_rgba8888_ws_9x75_curiosity_720x720_round/debug/_ext/1886855727/plib_mmu.o
 .debug_ranges  0x00009790       0x50 build/dsi_xlcdc_rgba8888_ws_9x75_curiosity_720x720_round/debug/_ext/1886858480/plib_pio.o
 .debug_ranges  0x000097e0       0x60 build/dsi_xlcdc_rgba8888_ws_9x75_curiosity_720x720_round/debug/_ext/1886860748/plib_rtt.o
 .debug_ranges  0x00009840       0xc8 build/dsi_xlcdc_rgba8888_ws_9x75_curiosity_720x720_round/debug/_ext/60866517/plib_tc1.o
 .debug_ranges  0x00009908       0x18 build/dsi_xlcdc_rgba8888_ws_9x75_curiosity_720x720_round/debug/_ext/1477359996/xc32_monitor.o
 .debug_ranges  0x00009920       0x90 build/dsi_xlcdc_rgba8888_ws_9x75_curiosity_720x720_round/debug/_ext/1949213289/sys_input.o
 .debug_ranges  0x000099b0      0x1e0 build/dsi_xlcdc_rgba8888_ws_9x75_curiosity_720x720_round/debug/_ext/586618287/sys_int.o
 .debug_ranges  0x00009b90      0xd00 build/dsi_xlcdc_rgba8888_ws_9x75_curiosity_720x720_round/debug/_ext/690637493/sys_time.o
 .debug_ranges  0x0000a890       0x28 build/dsi_xlcdc_rgba8888_ws_9x75_curiosity_720x720_round/debug/_ext/1295507646/cstartup.o
 .debug_ranges  0x0000a8b8       0x18 build/dsi_xlcdc_rgba8888_ws_9x75_curiosity_720x720_round/debug/_ext/1295507646/interrupts.o
 .debug_ranges  0x0000a8d0       0x50 build/dsi_xlcdc_rgba8888_ws_9x75_curiosity_720x720_round/debug/_ext/1295507646/initialization.o
 .debug_ranges  0x0000a920       0x28 build/dsi_xlcdc_rgba8888_ws_9x75_curiosity_720x720_round/debug/_ext/1295507646/fault_handlers.o
 .debug_ranges  0x0000a948       0x10 build/dsi_xlcdc_rgba8888_ws_9x75_curiosity_720x720_round/debug/_ext/1295507646/tasks.o
 .debug_ranges  0x0000a958       0x10 build/dsi_xlcdc_rgba8888_ws_9x75_curiosity_720x720_round/debug/_ext/1360937237/main.o
 .debug_ranges  0x0000a968       0xc0 build/dsi_xlcdc_rgba8888_ws_9x75_curiosity_720x720_round/debug/_ext/1360937237/app.o
 .debug_ranges  0x0000aa28       0xd8 build/dsi_xlcdc_rgba8888_ws_9x75_curiosity_720x720_round/debug/_ext/1360937237/app_drive.o
 .debug_ranges  0x0000ab00       0x40 c:/program files/microchip/xc32/v4.35/bin/bin/../../lib/gcc/pic32c/8.3.1/../../../../pic32c/lib/arm/v5te/nofp\libg-musl.a(__libc_start_main.o)
 .debug_ranges  0x0000ab40       0x18 c:/program files/microchip/xc32/v4.35/bin/bin/../../lib/gcc/pic32c/8.3.1/../../../../pic32c/lib/arm/v5te/nofp\libg-musl.a(__sio_sprintf_dnpuxX.o)
 .debug_ranges  0x0000ab58       0x10 c:/program files/microchip/xc32/v4.35/bin/bin/../../lib/gcc/pic32c/8.3.1/../../../../pic32c/lib/arm/v5te/nofp\libg-musl.a(__fmt_d.o)
 .debug_ranges  0x0000ab68       0x10 c:/program files/microchip/xc32/v4.35/bin/bin/../../lib/gcc/pic32c/8.3.1/../../../../pic32c/lib/arm/v5te/nofp\libg-musl.a(__fmt_u.o)
 .debug_ranges  0x0000ab78       0x10 c:/program files/microchip/xc32/v4.35/bin/bin/../../lib/gcc/pic32c/8.3.1/../../../../pic32c/lib/arm/v5te/nofp\libg-musl.a(__fmt_x.o)
 .debug_ranges  0x0000ab88       0x10 c:/program files/microchip/xc32/v4.35/bin/bin/../../lib/gcc/pic32c/8.3.1/../../../../pic32c/lib/arm/v5te/nofp\libg-musl.a(__pop_int.o)
 .debug_ranges  0x0000ab98       0x10 c:/program files/microchip/xc32/v4.35/bin/bin/../../lib/gcc/pic32c/8.3.1/../../../../pic32c/lib/arm/v5te/nofp\libg-musl.a(__pop_ptr.o)
 .debug_ranges  0x0000aba8       0x58 c:/program files/microchip/xc32/v4.35/bin/bin/../../lib/gcc/pic32c/8.3.1/../../../../pic32c/lib/arm/v5te/nofp\libg-musl.a(__printf_core.o)
 .debug_ranges  0x0000ac00       0x18 c:/program files/microchip/xc32/v4.35/bin/bin/../../lib/gcc/pic32c/8.3.1/../../../../pic32c/lib/arm/v5te/nofp\libg-musl.a(stdin.o)
 .debug_ranges  0x0000ac18       0x20 c:/program files/microchip/xc32/v4.35/bin/bin/../../lib/gcc/pic32c/8.3.1/../../../../pic32c/lib/arm/v5te/nofp\libg-musl.a(stdout.o)
 .debug_ranges  0x0000ac38       0x10 c:/program files/microchip/xc32/v4.35/bin/bin/../../lib/gcc/pic32c/8.3.1/../../../../pic32c/lib/arm/v5te/nofp\libg-musl.a(puts.o)
 .debug_ranges  0x0000ac48       0x10 c:/program files/microchip/xc32/v4.35/bin/bin/../../lib/gcc/pic32c/8.3.1/../../../../pic32c/lib/arm/v5te/nofp\libg-musl.a(setbuf.o)
 .debug_ranges  0x0000ac58       0x10 c:/program files/microchip/xc32/v4.35/bin/bin/../../lib/gcc/pic32c/8.3.1/../../../../pic32c/lib/arm/v5te/nofp\libg-musl.a(atoi.o)
 .debug_ranges  0x0000ac68       0x10 c:/program files/microchip/xc32/v4.35/bin/bin/../../lib/gcc/pic32c/8.3.1/../../../../pic32c/lib/arm/v5te/nofp\libg-musl.a(memcpy.o)
 .debug_ranges  0x0000ac78       0x10 c:/program files/microchip/xc32/v4.35/bin/bin/../../lib/gcc/pic32c/8.3.1/../../../../pic32c/lib/arm/v5te/nofp\libg-musl.a(memmove.o)
 .debug_ranges  0x0000ac88       0x10 c:/program files/microchip/xc32/v4.35/bin/bin/../../lib/gcc/pic32c/8.3.1/../../../../pic32c/lib/arm/v5te/nofp\libg-musl.a(memset.o)
 .debug_ranges  0x0000ac98       0x10 c:/program files/microchip/xc32/v4.35/bin/bin/../../lib/gcc/pic32c/8.3.1/../../../../pic32c/lib/arm/v5te/nofp\libg-musl.a(strlen.o)
 .debug_ranges  0x0000aca8       0x18 c:/program files/microchip/xc32/v4.35/bin/bin/../../lib/gcc/pic32c/8.3.1/../../../../pic32c/lib/arm/v5te/nofp\libg-musl.a(tolower.o)
 .debug_ranges  0x0000acc0       0x18 c:/program files/microchip/xc32/v4.35/bin/bin/../../lib/gcc/pic32c/8.3.1/../../../../pic32c/lib/arm/v5te/nofp\libg-musl.a(toupper.o)
 .debug_ranges  0x0000acd8       0x10 c:/program files/microchip/xc32/v4.35/bin/bin/../../lib/gcc/pic32c/8.3.1/../../../../pic32c/lib/arm/v5te/nofp\libg-musl.a(__int_vfprintf.o)
 .debug_ranges  0x0000ace8       0x10 c:/program files/microchip/xc32/v4.35/bin/bin/../../lib/gcc/pic32c/8.3.1/../../../../pic32c/lib/arm/v5te/nofp\libg-musl.a(__int_vsprintf.o)
 .debug_ranges  0x0000acf8       0x10 c:/program files/microchip/xc32/v4.35/bin/bin/../../lib/gcc/pic32c/8.3.1/../../../../pic32c/lib/arm/v5te/nofp\libg-musl.a(fputs.o)
 .debug_ranges  0x0000ad08       0x10 c:/program files/microchip/xc32/v4.35/bin/bin/../../lib/gcc/pic32c/8.3.1/../../../../pic32c/lib/arm/v5te/nofp\libg-musl.a(__cvt_u.o)
 .debug_ranges  0x0000ad18       0x10 c:/program files/microchip/xc32/v4.35/bin/bin/../../lib/gcc/pic32c/8.3.1/../../../../pic32c/lib/arm/v5te/nofp\libg-musl.a(__pop_float.o)
 .debug_ranges  0x0000ad28       0x10 c:/program files/microchip/xc32/v4.35/bin/bin/../../lib/gcc/pic32c/8.3.1/../../../../pic32c/lib/arm/v5te/nofp\libg-musl.a(__stdio_read.o)
 .debug_ranges  0x0000ad38       0x10 c:/program files/microchip/xc32/v4.35/bin/bin/../../lib/gcc/pic32c/8.3.1/../../../../pic32c/lib/arm/v5te/nofp\libg-musl.a(__towrite_rw.o)
 .debug_ranges  0x0000ad48       0x18 c:/program files/microchip/xc32/v4.35/bin/bin/../../lib/gcc/pic32c/8.3.1/../../../../pic32c/lib/arm/v5te/nofp\libg-musl.a(fwrite.o)
 .debug_ranges  0x0000ad60       0x20 c:/program files/microchip/xc32/v4.35/bin/bin/../../lib/gcc/pic32c/8.3.1/../../../../pic32c/lib/arm/v5te/nofp\libg-musl.a(putc.o)
 .debug_ranges  0x0000ad80       0x18 c:/program files/microchip/xc32/v4.35/bin/bin/../../lib/gcc/pic32c/8.3.1/../../../../pic32c/lib/arm/v5te/nofp\libg-musl.a(setvbuf.o)
 .debug_ranges  0x0000ad98       0x10 c:/program files/microchip/xc32/v4.35/bin/bin/../../lib/gcc/pic32c/8.3.1/../../../../pic32c/lib/arm/v5te/nofp\libg-musl.a(readv.o)
 .debug_ranges  0x0000ada8      0x1a8 c:/program files/microchip/xc32/v4.35/bin/bin/../../lib/gcc/pic32c/8.3.1/../../../../pic32c/lib/arm/v5te/nofp\libg-musl.a(malloc.o)
 .debug_ranges  0x0000af50       0x10 c:/program files/microchip/xc32/v4.35/bin/bin/../../lib/gcc/pic32c/8.3.1/../../../../pic32c/lib/arm/v5te/nofp\libg-musl.a(expand_heap.o)
 .debug_ranges  0x0000af60       0x10 c:/program files/microchip/xc32/v4.35/bin/bin/../../lib/gcc/pic32c/8.3.1/../../../../pic32c/lib/arm/v5te/nofp\libg-musl.a(__int_vsnprintf.o)
 .debug_ranges  0x0000af70       0x18 c:/program files/microchip/xc32/v4.35/bin/bin/../../lib/gcc/pic32c/8.3.1/../../../../pic32c/lib/arm/v5te/nofp\libg-musl.a(__init_stdio.o)
 .debug_ranges  0x0000af88       0x30 c:/program files/microchip/xc32/v4.35/bin/bin/../../lib/gcc/pic32c/8.3.1/../../../../pic32c/lib/arm/v5te/nofp\libg-musl.a(__out.o)
 .debug_ranges  0x0000afb8       0x10 c:/program files/microchip/xc32/v4.35/bin/bin/../../lib/gcc/pic32c/8.3.1/../../../../pic32c/lib/arm/v5te/nofp\libg-musl.a(__putc.o)
 .debug_ranges  0x0000afc8       0x20 c:/program files/microchip/xc32/v4.35/bin/bin/../../lib/gcc/pic32c/8.3.1/../../../../pic32c/lib/arm/v5te/nofp\libg-musl.a(__stderr.o)
 .debug_ranges  0x0000afe8       0x18 c:/program files/microchip/xc32/v4.35/bin/bin/../../lib/gcc/pic32c/8.3.1/../../../../pic32c/lib/arm/v5te/nofp\libg-musl.a(__stdio_close.o)
 .debug_ranges  0x0000b000       0x30 c:/program files/microchip/xc32/v4.35/bin/bin/../../lib/gcc/pic32c/8.3.1/../../../../pic32c/lib/arm/v5te/nofp\libg-musl.a(__stdio_write.o)
 .debug_ranges  0x0000b030       0x20 c:/program files/microchip/xc32/v4.35/bin/bin/../../lib/gcc/pic32c/8.3.1/../../../../pic32c/lib/arm/v5te/nofp\libg-musl.a(__stdout.o)
 .debug_ranges  0x0000b050       0x18 c:/program files/microchip/xc32/v4.35/bin/bin/../../lib/gcc/pic32c/8.3.1/../../../../pic32c/lib/arm/v5te/nofp\libg-musl.a(__towrite.o)
 .debug_ranges  0x0000b068       0x10 c:/program files/microchip/xc32/v4.35/bin/bin/../../lib/gcc/pic32c/8.3.1/../../../../pic32c/lib/arm/v5te/nofp\libg-musl.a(writev.o)
 .debug_ranges  0x0000b078       0x10 c:/program files/microchip/xc32/v4.35/bin/bin/../../lib/gcc/pic32c/8.3.1/../../../../pic32c/lib/arm/v5te/nofp\libg-musl.a(__overflow.o)
 .debug_ranges  0x0000b088       0x18 c:/program files/microchip/xc32/v4.35/bin/bin/../../lib/gcc/pic32c/8.3.1/../../../../pic32c/lib/arm/v5te/nofp\libg-musl.a(__fwrite.o)
 .debug_ranges  0x0000b0a0       0x10 c:/program files/microchip/xc32/v4.35/bin/bin/../../lib/gcc/pic32c/8.3.1/../../../../pic32c/lib/arm/v5te/nofp\libpic32c.a(close.o)
 .debug_ranges  0x0000b0b0       0x10 c:/program files/microchip/xc32/v4.35/bin/bin/../../lib/gcc/pic32c/8.3.1/../../../../pic32c/lib/arm/v5te/nofp\libpic32c.a(lseek.o)
 .debug_ranges  0x0000b0c0       0x10 c:/program files/microchip/xc32/v4.35/bin/bin/../../lib/gcc/pic32c/8.3.1/../../../../pic32c/lib/arm/v5te/nofp\libpic32c.a(sbrk.o)

.debug_line     0x00000000    0x43ec6
 .debug_line    0x00000000     0x1b0f build/dsi_xlcdc_rgba8888_ws_9x75_curiosity_720x720_round/debug/_ext/1985065589/drv_i2c.o
 .debug_line    0x00001b0f      0x6af build/dsi_xlcdc_rgba8888_ws_9x75_curiosity_720x720_round/debug/_ext/2010836581/gfx_canvas_api.o
 .debug_line    0x000021be      0xfd0 build/dsi_xlcdc_rgba8888_ws_9x75_curiosity_720x720_round/debug/_ext/2010836581/gfx_canvas.o
 .debug_line    0x0000318e      0xddf build/dsi_xlcdc_rgba8888_ws_9x75_curiosity_720x720_round/debug/_ext/1085405985/ws_touch_display.o
 .debug_line    0x00003f6d      0x57f build/dsi_xlcdc_rgba8888_ws_9x75_curiosity_720x720_round/debug/_ext/219820618/drv_gfx2d.o
 .debug_line    0x000044ec      0x5cd build/dsi_xlcdc_rgba8888_ws_9x75_curiosity_720x720_round/debug/_ext/1247915868/plib_dsi.o
 .debug_line    0x00004ab9     0x122e build/dsi_xlcdc_rgba8888_ws_9x75_curiosity_720x720_round/debug/_ext/225302149/plib_xlcdc.o
 .debug_line    0x00005ce7      0x726 build/dsi_xlcdc_rgba8888_ws_9x75_curiosity_720x720_round/debug/_ext/505007713/drv_gfx_xlcdc.o
 .debug_line    0x0000640d      0xf20 build/dsi_xlcdc_rgba8888_ws_9x75_curiosity_720x720_round/debug/_ext/1966656405/gfx_driver.o
 .debug_line    0x0000732d     0x1d1f build/dsi_xlcdc_rgba8888_ws_9x75_curiosity_720x720_round/debug/_ext/105237591/legato_math.o
 .debug_line    0x0000904c      0x706 build/dsi_xlcdc_rgba8888_ws_9x75_curiosity_720x720_round/debug/_ext/105237591/legato_rect.o
 .debug_line    0x00009752      0xa40 build/dsi_xlcdc_rgba8888_ws_9x75_curiosity_720x720_round/debug/_ext/105237591/legato_utils.o
 .debug_line    0x0000a192      0x403 build/dsi_xlcdc_rgba8888_ws_9x75_curiosity_720x720_round/debug/_ext/105237591/legato_color_blend.o
 .debug_line    0x0000a595      0x282 build/dsi_xlcdc_rgba8888_ws_9x75_curiosity_720x720_round/debug/_ext/105237591/legato_color.o
 .debug_line    0x0000a817      0x4d0 build/dsi_xlcdc_rgba8888_ws_9x75_curiosity_720x720_round/debug/_ext/105237591/legato_color_lerp.o
 .debug_line    0x0000ace7      0xce6 build/dsi_xlcdc_rgba8888_ws_9x75_curiosity_720x720_round/debug/_ext/105237591/legato_pixelbuffer.o
 .debug_line    0x0000b9cd      0x8b6 build/dsi_xlcdc_rgba8888_ws_9x75_curiosity_720x720_round/debug/_ext/105237591/legato_color_convert.o
 .debug_line    0x0000c283      0x499 build/dsi_xlcdc_rgba8888_ws_9x75_curiosity_720x720_round/debug/_ext/884805853/legato_event.o
 .debug_line    0x0000c71c      0x2cf build/dsi_xlcdc_rgba8888_ws_9x75_curiosity_720x720_round/debug/_ext/884805853/legato_scheme.o
 .debug_line    0x0000c9eb      0xa52 build/dsi_xlcdc_rgba8888_ws_9x75_curiosity_720x720_round/debug/_ext/884805853/legato_input.o
 .debug_line    0x0000d43d     0x10ae build/dsi_xlcdc_rgba8888_ws_9x75_curiosity_720x720_round/debug/_ext/884805853/legato_state.o
 .debug_line    0x0000e4eb      0x909 build/dsi_xlcdc_rgba8888_ws_9x75_curiosity_720x720_round/debug/_ext/778592651/legato_array.o
 .debug_line    0x0000edf4     0x110f build/dsi_xlcdc_rgba8888_ws_9x75_curiosity_720x720_round/debug/_ext/778592651/legato_rectarray.o
 .debug_line    0x0000ff03      0x958 build/dsi_xlcdc_rgba8888_ws_9x75_curiosity_720x720_round/debug/_ext/778592651/legato_list.o
 .debug_line    0x0001085b      0x9b7 build/dsi_xlcdc_rgba8888_ws_9x75_curiosity_720x720_round/debug/_ext/884895117/legato_font.o
 .debug_line    0x00011212      0x2d9 build/dsi_xlcdc_rgba8888_ws_9x75_curiosity_720x720_round/debug/_ext/1382756211/le_gen_fonts.o
 .debug_line    0x000114eb      0x307 build/dsi_xlcdc_rgba8888_ws_9x75_curiosity_720x720_round/debug/_ext/86928605/le_gen_images.o
 .debug_line    0x000117f2      0xd9d build/dsi_xlcdc_rgba8888_ws_9x75_curiosity_720x720_round/debug/_ext/1322619606/le_gen_screen_Screen0.o
 .debug_line    0x0001258f      0x2ae build/dsi_xlcdc_rgba8888_ws_9x75_curiosity_720x720_round/debug/_ext/1965903633/le_gen_globalpalette.o
 .debug_line    0x0001283d      0x5f4 build/dsi_xlcdc_rgba8888_ws_9x75_curiosity_720x720_round/debug/_ext/1965903633/le_gen_harmony.o
 .debug_line    0x00012e31      0x22f build/dsi_xlcdc_rgba8888_ws_9x75_curiosity_720x720_round/debug/_ext/1965903633/le_gen_scheme.o
 .debug_line    0x00013060      0x357 build/dsi_xlcdc_rgba8888_ws_9x75_curiosity_720x720_round/debug/_ext/1965903633/le_gen_stringtable.o
 .debug_line    0x000133b7      0x485 build/dsi_xlcdc_rgba8888_ws_9x75_curiosity_720x720_round/debug/_ext/1965903633/le_gen_init.o
 .debug_line    0x0001383c     0x1be2 build/dsi_xlcdc_rgba8888_ws_9x75_curiosity_720x720_round/debug/_ext/979623078/legato_imagedecoder_jpeg_common.o
 .debug_line    0x0001541e      0x5de build/dsi_xlcdc_rgba8888_ws_9x75_curiosity_720x720_round/debug/_ext/979623078/jidctint.o
 .debug_line    0x000159fc      0x871 build/dsi_xlcdc_rgba8888_ws_9x75_curiosity_720x720_round/debug/_ext/979623078/legato_imagedecoder_jpeg.o
 .debug_line    0x0001626d      0x2c4 build/dsi_xlcdc_rgba8888_ws_9x75_curiosity_720x720_round/debug/_ext/979534379/legato_imagedecoder_mono_read_internal.o
 .debug_line    0x00016531     0x1054 build/dsi_xlcdc_rgba8888_ws_9x75_curiosity_720x720_round/debug/_ext/979534379/legato_imagedecoder_mono.o
 .debug_line    0x00017585      0x5b9 build/dsi_xlcdc_rgba8888_ws_9x75_curiosity_720x720_round/debug/_ext/799688951/legato_imagedecoder_png.o
 .debug_line    0x00017b3e     0x891d build/dsi_xlcdc_rgba8888_ws_9x75_curiosity_720x720_round/debug/_ext/799688951/lodepng.o
 .debug_line    0x0002045b      0x368 build/dsi_xlcdc_rgba8888_ws_9x75_curiosity_720x720_round/debug/_ext/799690486/legato_imagedecoder_raw_convert.o
 .debug_line    0x000207c3      0x3cd build/dsi_xlcdc_rgba8888_ws_9x75_curiosity_720x720_round/debug/_ext/799690486/legato_imagedecoder_raw_write.o
 .debug_line    0x00020b90      0x59e build/dsi_xlcdc_rgba8888_ws_9x75_curiosity_720x720_round/debug/_ext/799690486/legato_imagedecoder_raw_read_internal.o
 .debug_line    0x0002112e      0x63e build/dsi_xlcdc_rgba8888_ws_9x75_curiosity_720x720_round/debug/_ext/799690486/legato_imagedecoder_raw_scale.o
 .debug_line    0x0002176c      0x2b1 build/dsi_xlcdc_rgba8888_ws_9x75_curiosity_720x720_round/debug/_ext/799690486/legato_imagedecoder_raw_mask.o
 .debug_line    0x00021a1d      0x4c5 build/dsi_xlcdc_rgba8888_ws_9x75_curiosity_720x720_round/debug/_ext/799690486/legato_imagedecoder_raw_blend.o
 .debug_line    0x00021ee2     0x150d build/dsi_xlcdc_rgba8888_ws_9x75_curiosity_720x720_round/debug/_ext/799690486/legato_imagedecoder_raw.o
 .debug_line    0x000233ef      0x47a build/dsi_xlcdc_rgba8888_ws_9x75_curiosity_720x720_round/debug/_ext/799690486/legato_imagedecoder_raw_setup.o
 .debug_line    0x00023869      0x585 build/dsi_xlcdc_rgba8888_ws_9x75_curiosity_720x720_round/debug/_ext/799690486/legato_imagedecoder_raw_rotate.o
 .debug_line    0x00023dee      0x3f1 build/dsi_xlcdc_rgba8888_ws_9x75_curiosity_720x720_round/debug/_ext/799690486/legato_imagedecoder_raw_palette_internal.o
 .debug_line    0x000241df      0x353 build/dsi_xlcdc_rgba8888_ws_9x75_curiosity_720x720_round/debug/_ext/1664643037/legato_image_utils.o
 .debug_line    0x00024532      0x8df build/dsi_xlcdc_rgba8888_ws_9x75_curiosity_720x720_round/debug/_ext/1664643037/legato_image.o
 .debug_line    0x00024e11     0x1761 build/dsi_xlcdc_rgba8888_ws_9x75_curiosity_720x720_round/debug/_ext/171820735/legato_variableheap.o
 .debug_line    0x00026572      0x392 build/dsi_xlcdc_rgba8888_ws_9x75_curiosity_720x720_round/debug/_ext/171820735/legato_fixedheap.o
 .debug_line    0x00026904      0xb2b build/dsi_xlcdc_rgba8888_ws_9x75_curiosity_720x720_round/debug/_ext/171820735/legato_memory.o
 .debug_line    0x0002742f      0x7a5 build/dsi_xlcdc_rgba8888_ws_9x75_curiosity_720x720_round/debug/_ext/2053165825/legato_draw.o
 .debug_line    0x00027bd4      0x594 build/dsi_xlcdc_rgba8888_ws_9x75_curiosity_720x720_round/debug/_ext/2053165825/legato_draw_line.o
 .debug_line    0x00028168      0x33a build/dsi_xlcdc_rgba8888_ws_9x75_curiosity_720x720_round/debug/_ext/2053165825/legato_draw_rect.o
 .debug_line    0x000284a2      0xf7d build/dsi_xlcdc_rgba8888_ws_9x75_curiosity_720x720_round/debug/_ext/2053165825/legato_draw_arc.o
 .debug_line    0x0002941f      0x7c2 build/dsi_xlcdc_rgba8888_ws_9x75_curiosity_720x720_round/debug/_ext/2053165825/legato_gpu.o
 .debug_line    0x00029be1     0x1207 build/dsi_xlcdc_rgba8888_ws_9x75_curiosity_720x720_round/debug/_ext/2053165825/legato_renderer.o
 .debug_line    0x0002ade8      0x997 build/dsi_xlcdc_rgba8888_ws_9x75_curiosity_720x720_round/debug/_ext/357591503/legato_string.o
 .debug_line    0x0002b77f     0x103f build/dsi_xlcdc_rgba8888_ws_9x75_curiosity_720x720_round/debug/_ext/357591503/legato_stringutils.o
 .debug_line    0x0002c7be      0x716 build/dsi_xlcdc_rgba8888_ws_9x75_curiosity_720x720_round/debug/_ext/357591503/legato_string_renderer.o
 .debug_line    0x0002ced4      0xa19 build/dsi_xlcdc_rgba8888_ws_9x75_curiosity_720x720_round/debug/_ext/357591503/legato_fixedstring.o
 .debug_line    0x0002d8ed      0x5a6 build/dsi_xlcdc_rgba8888_ws_9x75_curiosity_720x720_round/debug/_ext/357591503/legato_stringtable.o
 .debug_line    0x0002de93      0x822 build/dsi_xlcdc_rgba8888_ws_9x75_curiosity_720x720_round/debug/_ext/357591503/legato_tablestring.o
 .debug_line    0x0002e6b5      0x7bf build/dsi_xlcdc_rgba8888_ws_9x75_curiosity_720x720_round/debug/_ext/1591588594/legato_widget_image_skin_classic.o
 .debug_line    0x0002ee74      0x602 build/dsi_xlcdc_rgba8888_ws_9x75_curiosity_720x720_round/debug/_ext/1591588594/legato_widget_image.o
 .debug_line    0x0002f476      0x871 build/dsi_xlcdc_rgba8888_ws_9x75_curiosity_720x720_round/debug/_ext/1589174617/legato_widget_label_skin_classic.o
 .debug_line    0x0002fce7      0x6df build/dsi_xlcdc_rgba8888_ws_9x75_curiosity_720x720_round/debug/_ext/1589174617/legato_widget_label.o
 .debug_line    0x000303c6      0xc4a build/dsi_xlcdc_rgba8888_ws_9x75_curiosity_720x720_round/debug/_ext/461530114/legato_widget_skin_classic_common.o
 .debug_line    0x00031010      0x464 build/dsi_xlcdc_rgba8888_ws_9x75_curiosity_720x720_round/debug/_ext/461530114/legato_widget_skin_classic.o
 .debug_line    0x00031474     0x1ae1 build/dsi_xlcdc_rgba8888_ws_9x75_curiosity_720x720_round/debug/_ext/461530114/legato_widget.o
 .debug_line    0x00032f55      0x613 build/dsi_xlcdc_rgba8888_ws_9x75_curiosity_720x720_round/debug/_ext/1886844053/plib_aic.o
 .debug_line    0x00033568      0x336 build/dsi_xlcdc_rgba8888_ws_9x75_curiosity_720x720_round/debug/_ext/1886846076/plib_clk.o
 .debug_line    0x0003389e      0x3fe build/dsi_xlcdc_rgba8888_ws_9x75_curiosity_720x720_round/debug/_ext/1637293614/plib_dbgu.o
 .debug_line    0x00033c9c      0xbcf build/dsi_xlcdc_rgba8888_ws_9x75_curiosity_720x720_round/debug/_ext/545877704/plib_flexcom6_twi_master.o
 .debug_line    0x0003486b     0x10f8 build/dsi_xlcdc_rgba8888_ws_9x75_curiosity_720x720_round/debug/_ext/786409605/plib_gfx2d.o
 .debug_line    0x00035963      0xa15 build/dsi_xlcdc_rgba8888_ws_9x75_curiosity_720x720_round/debug/_ext/1886855727/plib_mmu.o
 .debug_line    0x00036378      0x386 build/dsi_xlcdc_rgba8888_ws_9x75_curiosity_720x720_round/debug/_ext/1886858480/plib_pio.o
 .debug_line    0x000366fe      0x37c build/dsi_xlcdc_rgba8888_ws_9x75_curiosity_720x720_round/debug/_ext/1886860748/plib_rtt.o
 .debug_line    0x00036a7a      0x448 build/dsi_xlcdc_rgba8888_ws_9x75_curiosity_720x720_round/debug/_ext/60866517/plib_tc1.o
 .debug_line    0x00036ec2      0x34a build/dsi_xlcdc_rgba8888_ws_9x75_curiosity_720x720_round/debug/_ext/1477359996/xc32_monitor.o
 .debug_line    0x0003720c      0x838 build/dsi_xlcdc_rgba8888_ws_9x75_curiosity_720x720_round/debug/_ext/1949213289/sys_input.o
 .debug_line    0x00037a44      0x666 build/dsi_xlcdc_rgba8888_ws_9x75_curiosity_720x720_round/debug/_ext/586618287/sys_int.o
 .debug_line    0x000380aa     0x2561 build/dsi_xlcdc_rgba8888_ws_9x75_curiosity_720x720_round/debug/_ext/690637493/sys_time.o
 .debug_line    0x0003a60b      0x11d build/dsi_xlcdc_rgba8888_ws_9x75_curiosity_720x720_round/debug/_ext/1295507646/cstartup.o
 .debug_line    0x0003a728      0x2a8 build/dsi_xlcdc_rgba8888_ws_9x75_curiosity_720x720_round/debug/_ext/1295507646/interrupts.o
 .debug_line    0x0003a9d0      0xc38 build/dsi_xlcdc_rgba8888_ws_9x75_curiosity_720x720_round/debug/_ext/1295507646/initialization.o
 .debug_line    0x0003b608       0xc6 build/dsi_xlcdc_rgba8888_ws_9x75_curiosity_720x720_round/debug/_ext/1295507646/fault_handlers.o
 .debug_line    0x0003b6ce      0x429 build/dsi_xlcdc_rgba8888_ws_9x75_curiosity_720x720_round/debug/_ext/1295507646/tasks.o
 .debug_line    0x0003baf7      0x2aa build/dsi_xlcdc_rgba8888_ws_9x75_curiosity_720x720_round/debug/_ext/1360937237/main.o
 .debug_line    0x0003bda1      0xb59 build/dsi_xlcdc_rgba8888_ws_9x75_curiosity_720x720_round/debug/_ext/1360937237/app.o
 .debug_line    0x0003c8fa     0x1036 build/dsi_xlcdc_rgba8888_ws_9x75_curiosity_720x720_round/debug/_ext/1360937237/app_drive.o
 .debug_line    0x0003d930       0xb0 c:/program files/microchip/xc32/v4.35/bin/bin/../../lib/gcc/pic32c/8.3.1/arm/v5te/nofp\libgcc.a(_udivsi3.o)
 .debug_line    0x0003d9e0       0xbc c:/program files/microchip/xc32/v4.35/bin/bin/../../lib/gcc/pic32c/8.3.1/arm/v5te/nofp\libgcc.a(_divsi3.o)
 .debug_line    0x0003da9c       0x94 c:/program files/microchip/xc32/v4.35/bin/bin/../../lib/gcc/pic32c/8.3.1/arm/v5te/nofp\libgcc.a(_dvmd_tls.o)
 .debug_line    0x0003db30      0x133 c:/program files/microchip/xc32/v4.35/bin/bin/../../lib/gcc/pic32c/8.3.1/arm/v5te/nofp\libgcc.a(_arm_addsubsf3.o)
 .debug_line    0x0003dc63      0x156 c:/program files/microchip/xc32/v4.35/bin/bin/../../lib/gcc/pic32c/8.3.1/arm/v5te/nofp\libgcc.a(_arm_muldivsf3.o)
 .debug_line    0x0003ddb9       0xd9 c:/program files/microchip/xc32/v4.35/bin/bin/../../lib/gcc/pic32c/8.3.1/arm/v5te/nofp\libgcc.a(_arm_cmpsf2.o)
 .debug_line    0x0003de92       0xab c:/program files/microchip/xc32/v4.35/bin/bin/../../lib/gcc/pic32c/8.3.1/arm/v5te/nofp\libgcc.a(_arm_fixsfsi.o)
 .debug_line    0x0003df3d       0xa9 c:/program files/microchip/xc32/v4.35/bin/bin/../../lib/gcc/pic32c/8.3.1/arm/v5te/nofp\libgcc.a(_arm_fixunssfsi.o)
 .debug_line    0x0003dfe6       0x94 c:/program files/microchip/xc32/v4.35/bin/bin/../../lib/gcc/pic32c/8.3.1/arm/v5te/nofp\libgcc.a(_aeabi_uldivmod.o)
 .debug_line    0x0003e07a      0x182 c:/program files/microchip/xc32/v4.35/bin/bin/../../lib/gcc/pic32c/8.3.1/arm/v5te/nofp\libgcc.a(_udivmoddi4.o)
 .debug_line    0x0003e1fc      0x1cb c:/program files/microchip/xc32/v4.35/bin/bin/../../lib/gcc/pic32c/8.3.1/../../../../pic32c/lib/arm/v5te/nofp\libg-musl.a(__libc_start_main.o)
 .debug_line    0x0003e3c7       0xb8 c:/program files/microchip/xc32/v4.35/bin/bin/../../lib/gcc/pic32c/8.3.1/../../../../pic32c/lib/arm/v5te/nofp\libg-musl.a(libc.o)
 .debug_line    0x0003e47f      0x1a9 c:/program files/microchip/xc32/v4.35/bin/bin/../../lib/gcc/pic32c/8.3.1/../../../../pic32c/lib/arm/v5te/nofp\libg-musl.a(__sio_sprintf_dnpuxX.o)
 .debug_line    0x0003e628      0x20c c:/program files/microchip/xc32/v4.35/bin/bin/../../lib/gcc/pic32c/8.3.1/../../../../pic32c/lib/arm/v5te/nofp\libg-musl.a(__fmt_d.o)
 .debug_line    0x0003e834      0x199 c:/program files/microchip/xc32/v4.35/bin/bin/../../lib/gcc/pic32c/8.3.1/../../../../pic32c/lib/arm/v5te/nofp\libg-musl.a(__fmt_u.o)
 .debug_line    0x0003e9cd      0x2d6 c:/program files/microchip/xc32/v4.35/bin/bin/../../lib/gcc/pic32c/8.3.1/../../../../pic32c/lib/arm/v5te/nofp\libg-musl.a(__fmt_x.o)
 .debug_line    0x0003eca3      0x20e c:/program files/microchip/xc32/v4.35/bin/bin/../../lib/gcc/pic32c/8.3.1/../../../../pic32c/lib/arm/v5te/nofp\libg-musl.a(__pop_int.o)
 .debug_line    0x0003eeb1      0x1e1 c:/program files/microchip/xc32/v4.35/bin/bin/../../lib/gcc/pic32c/8.3.1/../../../../pic32c/lib/arm/v5te/nofp\libg-musl.a(__pop_ptr.o)
 .debug_line    0x0003f092      0x6aa c:/program files/microchip/xc32/v4.35/bin/bin/../../lib/gcc/pic32c/8.3.1/../../../../pic32c/lib/arm/v5te/nofp\libg-musl.a(__printf_core.o)
 .debug_line    0x0003f73c      0x1ce c:/program files/microchip/xc32/v4.35/bin/bin/../../lib/gcc/pic32c/8.3.1/../../../../pic32c/lib/arm/v5te/nofp\libg-musl.a(stdin.o)
 .debug_line    0x0003f90a      0x187 c:/program files/microchip/xc32/v4.35/bin/bin/../../lib/gcc/pic32c/8.3.1/../../../../pic32c/lib/arm/v5te/nofp\libg-musl.a(stdout.o)
 .debug_line    0x0003fa91      0x1cd c:/program files/microchip/xc32/v4.35/bin/bin/../../lib/gcc/pic32c/8.3.1/../../../../pic32c/lib/arm/v5te/nofp\libg-musl.a(puts.o)
 .debug_line    0x0003fc5e      0x131 c:/program files/microchip/xc32/v4.35/bin/bin/../../lib/gcc/pic32c/8.3.1/../../../../pic32c/lib/arm/v5te/nofp\libg-musl.a(setbuf.o)
 .debug_line    0x0003fd8f      0x15c c:/program files/microchip/xc32/v4.35/bin/bin/../../lib/gcc/pic32c/8.3.1/../../../../pic32c/lib/arm/v5te/nofp\libg-musl.a(atoi.o)
 .debug_line    0x0003feeb       0xea c:/program files/microchip/xc32/v4.35/bin/bin/../../lib/gcc/pic32c/8.3.1/../../../../pic32c/lib/arm/v5te/nofp\libg-musl.a(memcpy.o)
 .debug_line    0x0003ffd5      0x116 c:/program files/microchip/xc32/v4.35/bin/bin/../../lib/gcc/pic32c/8.3.1/../../../../pic32c/lib/arm/v5te/nofp\libg-musl.a(memmove.o)
 .debug_line    0x000400eb       0xe8 c:/program files/microchip/xc32/v4.35/bin/bin/../../lib/gcc/pic32c/8.3.1/../../../../pic32c/lib/arm/v5te/nofp\libg-musl.a(memset.o)
 .debug_line    0x000401d3       0xe9 c:/program files/microchip/xc32/v4.35/bin/bin/../../lib/gcc/pic32c/8.3.1/../../../../pic32c/lib/arm/v5te/nofp\libg-musl.a(strlen.o)
 .debug_line    0x000402bc      0x15d c:/program files/microchip/xc32/v4.35/bin/bin/../../lib/gcc/pic32c/8.3.1/../../../../pic32c/lib/arm/v5te/nofp\libg-musl.a(tolower.o)
 .debug_line    0x00040419      0x15d c:/program files/microchip/xc32/v4.35/bin/bin/../../lib/gcc/pic32c/8.3.1/../../../../pic32c/lib/arm/v5te/nofp\libg-musl.a(toupper.o)
 .debug_line    0x00040576      0x101 c:/program files/microchip/xc32/v4.35/bin/bin/../../lib/gcc/pic32c/8.3.1/../../../../pic32c/lib/arm/v5te/nofp\libg-musl.a(__environ.o)
 .debug_line    0x00040677       0x9d c:/program files/microchip/xc32/v4.35/bin/bin/../../lib/gcc/pic32c/8.3.1/../../../../pic32c/lib/arm/v5te/nofp\libg-musl.a(__errno_location.o)
 .debug_line    0x00040714      0x174 c:/program files/microchip/xc32/v4.35/bin/bin/../../lib/gcc/pic32c/8.3.1/../../../../pic32c/lib/arm/v5te/nofp\libg-musl.a(__int_vfprintf.o)
 .debug_line    0x00040888      0x153 c:/program files/microchip/xc32/v4.35/bin/bin/../../lib/gcc/pic32c/8.3.1/../../../../pic32c/lib/arm/v5te/nofp\libg-musl.a(__int_vsprintf.o)
 .debug_line    0x000409db      0x239 c:/program files/microchip/xc32/v4.35/bin/bin/../../lib/gcc/pic32c/8.3.1/../../../../pic32c/lib/arm/v5te/nofp\libg-musl.a(fputs.o)
 .debug_line    0x00040c14      0x1cc c:/program files/microchip/xc32/v4.35/bin/bin/../../lib/gcc/pic32c/8.3.1/../../../../pic32c/lib/arm/v5te/nofp\libg-musl.a(__cvt_u.o)
 .debug_line    0x00040de0      0x16b c:/program files/microchip/xc32/v4.35/bin/bin/../../lib/gcc/pic32c/8.3.1/../../../../pic32c/lib/arm/v5te/nofp\libg-musl.a(__pop_float.o)
 .debug_line    0x00040f4b      0x238 c:/program files/microchip/xc32/v4.35/bin/bin/../../lib/gcc/pic32c/8.3.1/../../../../pic32c/lib/arm/v5te/nofp\libg-musl.a(__stdio_read.o)
 .debug_line    0x00041183      0x1eb c:/program files/microchip/xc32/v4.35/bin/bin/../../lib/gcc/pic32c/8.3.1/../../../../pic32c/lib/arm/v5te/nofp\libg-musl.a(__towrite_rw.o)
 .debug_line    0x0004136e      0x1f6 c:/program files/microchip/xc32/v4.35/bin/bin/../../lib/gcc/pic32c/8.3.1/../../../../pic32c/lib/arm/v5te/nofp\libg-musl.a(fwrite.o)
 .debug_line    0x00041564      0x19d c:/program files/microchip/xc32/v4.35/bin/bin/../../lib/gcc/pic32c/8.3.1/../../../../pic32c/lib/arm/v5te/nofp\libg-musl.a(putc.o)
 .debug_line    0x00041701      0x22c c:/program files/microchip/xc32/v4.35/bin/bin/../../lib/gcc/pic32c/8.3.1/../../../../pic32c/lib/arm/v5te/nofp\libg-musl.a(setvbuf.o)
 .debug_line    0x0004192d      0x15a c:/program files/microchip/xc32/v4.35/bin/bin/../../lib/gcc/pic32c/8.3.1/../../../../pic32c/lib/arm/v5te/nofp\libg-musl.a(readv.o)
 .debug_line    0x00041a87      0xaa4 c:/program files/microchip/xc32/v4.35/bin/bin/../../lib/gcc/pic32c/8.3.1/../../../../pic32c/lib/arm/v5te/nofp\libg-musl.a(malloc.o)
 .debug_line    0x0004252b       0xf5 c:/program files/microchip/xc32/v4.35/bin/bin/../../lib/gcc/pic32c/8.3.1/../../../../pic32c/lib/arm/v5te/nofp\libg-musl.a(expand_heap.o)
 .debug_line    0x00042620      0x1ca c:/program files/microchip/xc32/v4.35/bin/bin/../../lib/gcc/pic32c/8.3.1/../../../../pic32c/lib/arm/v5te/nofp\libg-musl.a(__int_vsnprintf.o)
 .debug_line    0x000427ea       0xcb c:/program files/microchip/xc32/v4.35/bin/bin/../../lib/gcc/pic32c/8.3.1/../../../../pic32c/lib/arm/v5te/nofp\libg-musl.a(__init_stdio.o)
 .debug_line    0x000428b5      0x221 c:/program files/microchip/xc32/v4.35/bin/bin/../../lib/gcc/pic32c/8.3.1/../../../../pic32c/lib/arm/v5te/nofp\libg-musl.a(__out.o)
 .debug_line    0x00042ad6      0x163 c:/program files/microchip/xc32/v4.35/bin/bin/../../lib/gcc/pic32c/8.3.1/../../../../pic32c/lib/arm/v5te/nofp\libg-musl.a(__putc.o)
 .debug_line    0x00042c39      0x1d9 c:/program files/microchip/xc32/v4.35/bin/bin/../../lib/gcc/pic32c/8.3.1/../../../../pic32c/lib/arm/v5te/nofp\libg-musl.a(__stderr.o)
 .debug_line    0x00042e12      0x2ee c:/program files/microchip/xc32/v4.35/bin/bin/../../lib/gcc/pic32c/8.3.1/../../../../pic32c/lib/arm/v5te/nofp\libg-musl.a(__stdio_close.o)
 .debug_line    0x00043100      0x32a c:/program files/microchip/xc32/v4.35/bin/bin/../../lib/gcc/pic32c/8.3.1/../../../../pic32c/lib/arm/v5te/nofp\libg-musl.a(__stdio_write.o)
 .debug_line    0x0004342a      0x1d9 c:/program files/microchip/xc32/v4.35/bin/bin/../../lib/gcc/pic32c/8.3.1/../../../../pic32c/lib/arm/v5te/nofp\libg-musl.a(__stdout.o)
 .debug_line    0x00043603      0x186 c:/program files/microchip/xc32/v4.35/bin/bin/../../lib/gcc/pic32c/8.3.1/../../../../pic32c/lib/arm/v5te/nofp\libg-musl.a(__towrite.o)
 .debug_line    0x00043789      0x15b c:/program files/microchip/xc32/v4.35/bin/bin/../../lib/gcc/pic32c/8.3.1/../../../../pic32c/lib/arm/v5te/nofp\libg-musl.a(writev.o)
 .debug_line    0x000438e4      0x1fe c:/program files/microchip/xc32/v4.35/bin/bin/../../lib/gcc/pic32c/8.3.1/../../../../pic32c/lib/arm/v5te/nofp\libg-musl.a(__overflow.o)
 .debug_line    0x00043ae2      0x1e7 c:/program files/microchip/xc32/v4.35/bin/bin/../../lib/gcc/pic32c/8.3.1/../../../../pic32c/lib/arm/v5te/nofp\libg-musl.a(__fwrite.o)
 .debug_line    0x00043cc9       0xa0 c:/program files/microchip/xc32/v4.35/bin/bin/../../lib/gcc/pic32c/8.3.1/../../../../pic32c/lib/arm/v5te/nofp\libpic32c.a(close.o)
 .debug_line    0x00043d69       0xa0 c:/program files/microchip/xc32/v4.35/bin/bin/../../lib/gcc/pic32c/8.3.1/../../../../pic32c/lib/arm/v5te/nofp\libpic32c.a(lseek.o)
 .debug_line    0x00043e09       0xbd c:/program files/microchip/xc32/v4.35/bin/bin/../../lib/gcc/pic32c/8.3.1/../../../../pic32c/lib/arm/v5te/nofp\libpic32c.a(sbrk.o)

.debug_str      0x00000000     0xa85b
 .debug_str     0x00000000      0x19f build/dsi_xlcdc_rgba8888_ws_9x75_curiosity_720x720_round/debug/_ext/1985065589/drv_i2c.o
 .debug_str     0x0000019f       0xf5 build/dsi_xlcdc_rgba8888_ws_9x75_curiosity_720x720_round/debug/_ext/2010836581/gfx_canvas_api.o
 .debug_str     0x00000294      0x200 build/dsi_xlcdc_rgba8888_ws_9x75_curiosity_720x720_round/debug/_ext/2010836581/gfx_canvas.o
 .debug_str     0x00000494      0x115 build/dsi_xlcdc_rgba8888_ws_9x75_curiosity_720x720_round/debug/_ext/1085405985/ws_touch_display.o
 .debug_str     0x000005a9      0x1e5 build/dsi_xlcdc_rgba8888_ws_9x75_curiosity_720x720_round/debug/_ext/219820618/drv_gfx2d.o
 .debug_str     0x0000078e       0x8a build/dsi_xlcdc_rgba8888_ws_9x75_curiosity_720x720_round/debug/_ext/1247915868/plib_dsi.o
 .debug_str     0x00000818       0x5e build/dsi_xlcdc_rgba8888_ws_9x75_curiosity_720x720_round/debug/_ext/225302149/plib_xlcdc.o
 .debug_str     0x00000876      0x1da build/dsi_xlcdc_rgba8888_ws_9x75_curiosity_720x720_round/debug/_ext/505007713/drv_gfx_xlcdc.o
 .debug_str     0x00000a50       0x8b build/dsi_xlcdc_rgba8888_ws_9x75_curiosity_720x720_round/debug/_ext/1966656405/gfx_driver.o
 .debug_str     0x00000adb       0x64 build/dsi_xlcdc_rgba8888_ws_9x75_curiosity_720x720_round/debug/_ext/105237591/legato_math.o
 .debug_str     0x00000b3f       0x17 build/dsi_xlcdc_rgba8888_ws_9x75_curiosity_720x720_round/debug/_ext/105237591/legato_rect.o
 .debug_str     0x00000b56      0x221 build/dsi_xlcdc_rgba8888_ws_9x75_curiosity_720x720_round/debug/_ext/105237591/legato_utils.o
 .debug_str     0x00000d77        0x9 build/dsi_xlcdc_rgba8888_ws_9x75_curiosity_720x720_round/debug/_ext/105237591/legato_color_blend.o
 .debug_str     0x00000d80       0x34 build/dsi_xlcdc_rgba8888_ws_9x75_curiosity_720x720_round/debug/_ext/105237591/legato_color.o
 .debug_str     0x00000db4       0x2e build/dsi_xlcdc_rgba8888_ws_9x75_curiosity_720x720_round/debug/_ext/105237591/legato_color_lerp.o
 .debug_str     0x00000de2       0x99 build/dsi_xlcdc_rgba8888_ws_9x75_curiosity_720x720_round/debug/_ext/105237591/legato_pixelbuffer.o
 .debug_str     0x00000e7b       0x4b build/dsi_xlcdc_rgba8888_ws_9x75_curiosity_720x720_round/debug/_ext/105237591/legato_color_convert.o
 .debug_str     0x00000ec6      0x1cc build/dsi_xlcdc_rgba8888_ws_9x75_curiosity_720x720_round/debug/_ext/884805853/legato_event.o
 .debug_str     0x00001092       0x8c build/dsi_xlcdc_rgba8888_ws_9x75_curiosity_720x720_round/debug/_ext/884805853/legato_scheme.o
 .debug_str     0x0000111e      0x68f build/dsi_xlcdc_rgba8888_ws_9x75_curiosity_720x720_round/debug/_ext/884805853/legato_input.o
 .debug_str     0x000017ad      0x847 build/dsi_xlcdc_rgba8888_ws_9x75_curiosity_720x720_round/debug/_ext/884805853/legato_state.o
 .debug_str     0x00001ff4       0x1c build/dsi_xlcdc_rgba8888_ws_9x75_curiosity_720x720_round/debug/_ext/778592651/legato_array.o
 .debug_str     0x00002010       0x84 build/dsi_xlcdc_rgba8888_ws_9x75_curiosity_720x720_round/debug/_ext/778592651/legato_rectarray.o
 .debug_str     0x00002094       0x22 build/dsi_xlcdc_rgba8888_ws_9x75_curiosity_720x720_round/debug/_ext/778592651/legato_list.o
 .debug_str     0x000020b6      0x1ad build/dsi_xlcdc_rgba8888_ws_9x75_curiosity_720x720_round/debug/_ext/884895117/legato_font.o
 .debug_str     0x00002263       0x54 build/dsi_xlcdc_rgba8888_ws_9x75_curiosity_720x720_round/debug/_ext/1382756211/le_gen_fonts.o
 .debug_str     0x000022b7       0x65 build/dsi_xlcdc_rgba8888_ws_9x75_curiosity_720x720_round/debug/_ext/86928605/le_gen_images.o
 .debug_str     0x0000231c      0x760 build/dsi_xlcdc_rgba8888_ws_9x75_curiosity_720x720_round/debug/_ext/1322619606/le_gen_screen_Screen0.o
 .debug_str     0x00002a7c       0x48 build/dsi_xlcdc_rgba8888_ws_9x75_curiosity_720x720_round/debug/_ext/1965903633/le_gen_globalpalette.o
 .debug_str     0x00002ac4      0x1c3 build/dsi_xlcdc_rgba8888_ws_9x75_curiosity_720x720_round/debug/_ext/1965903633/le_gen_harmony.o
 .debug_str     0x00002c87       0x70 build/dsi_xlcdc_rgba8888_ws_9x75_curiosity_720x720_round/debug/_ext/1965903633/le_gen_scheme.o
 .debug_str     0x00002cf7      0x195 build/dsi_xlcdc_rgba8888_ws_9x75_curiosity_720x720_round/debug/_ext/1965903633/le_gen_stringtable.o
 .debug_str     0x00002e8c       0xd1 build/dsi_xlcdc_rgba8888_ws_9x75_curiosity_720x720_round/debug/_ext/1965903633/le_gen_init.o
 .debug_str     0x00002f5d       0xd4 build/dsi_xlcdc_rgba8888_ws_9x75_curiosity_720x720_round/debug/_ext/979623078/legato_imagedecoder_jpeg_common.o
 .debug_str     0x00003031        0x9 build/dsi_xlcdc_rgba8888_ws_9x75_curiosity_720x720_round/debug/_ext/979623078/jidctint.o
 .debug_str     0x0000303a      0x1cb build/dsi_xlcdc_rgba8888_ws_9x75_curiosity_720x720_round/debug/_ext/979623078/legato_imagedecoder_jpeg.o
 .debug_str     0x00003205       0xce build/dsi_xlcdc_rgba8888_ws_9x75_curiosity_720x720_round/debug/_ext/979534379/legato_imagedecoder_mono_read_internal.o
 .debug_str     0x000032d3      0x18e build/dsi_xlcdc_rgba8888_ws_9x75_curiosity_720x720_round/debug/_ext/979534379/legato_imagedecoder_mono.o
 .debug_str     0x00003461      0x122 build/dsi_xlcdc_rgba8888_ws_9x75_curiosity_720x720_round/debug/_ext/799688951/legato_imagedecoder_png.o
 .debug_str     0x00003583      0x29c build/dsi_xlcdc_rgba8888_ws_9x75_curiosity_720x720_round/debug/_ext/799688951/lodepng.o
 .debug_str     0x0000381f       0xe9 build/dsi_xlcdc_rgba8888_ws_9x75_curiosity_720x720_round/debug/_ext/799690486/legato_imagedecoder_raw_convert.o
 .debug_str     0x00003908      0x108 build/dsi_xlcdc_rgba8888_ws_9x75_curiosity_720x720_round/debug/_ext/799690486/legato_imagedecoder_raw_write.o
 .debug_str     0x00003a10      0x177 build/dsi_xlcdc_rgba8888_ws_9x75_curiosity_720x720_round/debug/_ext/799690486/legato_imagedecoder_raw_read_internal.o
 .debug_str     0x00003b87      0x110 build/dsi_xlcdc_rgba8888_ws_9x75_curiosity_720x720_round/debug/_ext/799690486/legato_imagedecoder_raw_scale.o
 .debug_str     0x00003c97       0xc4 build/dsi_xlcdc_rgba8888_ws_9x75_curiosity_720x720_round/debug/_ext/799690486/legato_imagedecoder_raw_mask.o
 .debug_str     0x00003d5b      0x135 build/dsi_xlcdc_rgba8888_ws_9x75_curiosity_720x720_round/debug/_ext/799690486/legato_imagedecoder_raw_blend.o
 .debug_str     0x00003e90      0x520 build/dsi_xlcdc_rgba8888_ws_9x75_curiosity_720x720_round/debug/_ext/799690486/legato_imagedecoder_raw.o
 .debug_str     0x000043b0       0xca build/dsi_xlcdc_rgba8888_ws_9x75_curiosity_720x720_round/debug/_ext/799690486/legato_imagedecoder_raw_setup.o
 .debug_str     0x0000447a       0xe6 build/dsi_xlcdc_rgba8888_ws_9x75_curiosity_720x720_round/debug/_ext/799690486/legato_imagedecoder_raw_rotate.o
 .debug_str     0x00004560       0xf9 build/dsi_xlcdc_rgba8888_ws_9x75_curiosity_720x720_round/debug/_ext/799690486/legato_imagedecoder_raw_palette_internal.o
 .debug_str     0x00004659       0x2a build/dsi_xlcdc_rgba8888_ws_9x75_curiosity_720x720_round/debug/_ext/1664643037/legato_image_utils.o
 .debug_str     0x00004683      0x130 build/dsi_xlcdc_rgba8888_ws_9x75_curiosity_720x720_round/debug/_ext/1664643037/legato_image.o
 .debug_str     0x000047b3       0x4c build/dsi_xlcdc_rgba8888_ws_9x75_curiosity_720x720_round/debug/_ext/171820735/legato_variableheap.o
 .debug_str     0x000047ff       0x34 build/dsi_xlcdc_rgba8888_ws_9x75_curiosity_720x720_round/debug/_ext/171820735/legato_fixedheap.o
 .debug_str     0x00004833      0x1ce build/dsi_xlcdc_rgba8888_ws_9x75_curiosity_720x720_round/debug/_ext/171820735/legato_memory.o
 .debug_str     0x00004a01      0x171 build/dsi_xlcdc_rgba8888_ws_9x75_curiosity_720x720_round/debug/_ext/2053165825/legato_draw.o
 .debug_str     0x00004b72       0xf2 build/dsi_xlcdc_rgba8888_ws_9x75_curiosity_720x720_round/debug/_ext/2053165825/legato_draw_line.o
 .debug_str     0x00004c64       0xe5 build/dsi_xlcdc_rgba8888_ws_9x75_curiosity_720x720_round/debug/_ext/2053165825/legato_draw_rect.o
 .debug_str     0x00004d49      0x16b build/dsi_xlcdc_rgba8888_ws_9x75_curiosity_720x720_round/debug/_ext/2053165825/legato_draw_arc.o
 .debug_str     0x00004eb4      0x17f build/dsi_xlcdc_rgba8888_ws_9x75_curiosity_720x720_round/debug/_ext/2053165825/legato_gpu.o
 .debug_str     0x00005033      0xa0d build/dsi_xlcdc_rgba8888_ws_9x75_curiosity_720x720_round/debug/_ext/2053165825/legato_renderer.o
 .debug_str     0x00005a40      0x109 build/dsi_xlcdc_rgba8888_ws_9x75_curiosity_720x720_round/debug/_ext/357591503/legato_string.o
 .debug_str     0x00005b49       0xc8 build/dsi_xlcdc_rgba8888_ws_9x75_curiosity_720x720_round/debug/_ext/357591503/legato_stringutils.o
 .debug_str     0x00005c11      0x268 build/dsi_xlcdc_rgba8888_ws_9x75_curiosity_720x720_round/debug/_ext/357591503/legato_string_renderer.o
 .debug_str     0x00005e79      0x16c build/dsi_xlcdc_rgba8888_ws_9x75_curiosity_720x720_round/debug/_ext/357591503/legato_fixedstring.o
 .debug_str     0x00005fe5      0x100 build/dsi_xlcdc_rgba8888_ws_9x75_curiosity_720x720_round/debug/_ext/357591503/legato_stringtable.o
 .debug_str     0x000060e5      0x224 build/dsi_xlcdc_rgba8888_ws_9x75_curiosity_720x720_round/debug/_ext/357591503/legato_tablestring.o
 .debug_str     0x00006309      0x645 build/dsi_xlcdc_rgba8888_ws_9x75_curiosity_720x720_round/debug/_ext/1591588594/legato_widget_image_skin_classic.o
 .debug_str     0x0000694e      0x5f9 build/dsi_xlcdc_rgba8888_ws_9x75_curiosity_720x720_round/debug/_ext/1591588594/legato_widget_image.o
 .debug_str     0x00006f47      0x6f8 build/dsi_xlcdc_rgba8888_ws_9x75_curiosity_720x720_round/debug/_ext/1589174617/legato_widget_label_skin_classic.o
 .debug_str     0x0000763f      0x5fe build/dsi_xlcdc_rgba8888_ws_9x75_curiosity_720x720_round/debug/_ext/1589174617/legato_widget_label.o
 .debug_str     0x00007c3d      0x242 build/dsi_xlcdc_rgba8888_ws_9x75_curiosity_720x720_round/debug/_ext/461530114/legato_widget_skin_classic_common.o
 .debug_str     0x00007e7f      0x22c build/dsi_xlcdc_rgba8888_ws_9x75_curiosity_720x720_round/debug/_ext/461530114/legato_widget_skin_classic.o
 .debug_str     0x000080ab      0x2f9 build/dsi_xlcdc_rgba8888_ws_9x75_curiosity_720x720_round/debug/_ext/461530114/legato_widget.o
 .debug_str     0x000083a4       0xd4 build/dsi_xlcdc_rgba8888_ws_9x75_curiosity_720x720_round/debug/_ext/1886844053/plib_aic.o
 .debug_str     0x00008478        0x0 build/dsi_xlcdc_rgba8888_ws_9x75_curiosity_720x720_round/debug/_ext/1886846076/plib_clk.o
 .debug_str     0x00008478       0x15 build/dsi_xlcdc_rgba8888_ws_9x75_curiosity_720x720_round/debug/_ext/1637293614/plib_dbgu.o
 .debug_str     0x0000848d       0x26 build/dsi_xlcdc_rgba8888_ws_9x75_curiosity_720x720_round/debug/_ext/545877704/plib_flexcom6_twi_master.o
 .debug_str     0x000084b3       0x55 build/dsi_xlcdc_rgba8888_ws_9x75_curiosity_720x720_round/debug/_ext/786409605/plib_gfx2d.o
 .debug_str     0x00008508        0xd build/dsi_xlcdc_rgba8888_ws_9x75_curiosity_720x720_round/debug/_ext/1886855727/plib_mmu.o
 .debug_str     0x00008515        0xa build/dsi_xlcdc_rgba8888_ws_9x75_curiosity_720x720_round/debug/_ext/1886858480/plib_pio.o
 .debug_str     0x0000851f       0x11 build/dsi_xlcdc_rgba8888_ws_9x75_curiosity_720x720_round/debug/_ext/1886860748/plib_rtt.o
 .debug_str     0x00008530       0x28 build/dsi_xlcdc_rgba8888_ws_9x75_curiosity_720x720_round/debug/_ext/60866517/plib_tc1.o
 .debug_str     0x00008558       0xe9 build/dsi_xlcdc_rgba8888_ws_9x75_curiosity_720x720_round/debug/_ext/1477359996/xc32_monitor.o
 .debug_str     0x00008641        0x6 build/dsi_xlcdc_rgba8888_ws_9x75_curiosity_720x720_round/debug/_ext/1949213289/sys_input.o
 .debug_str     0x00008647       0x64 build/dsi_xlcdc_rgba8888_ws_9x75_curiosity_720x720_round/debug/_ext/586618287/sys_int.o
 .debug_str     0x000086ab      0x14c build/dsi_xlcdc_rgba8888_ws_9x75_curiosity_720x720_round/debug/_ext/690637493/sys_time.o
 .debug_str     0x000087f7       0xb2 build/dsi_xlcdc_rgba8888_ws_9x75_curiosity_720x720_round/debug/_ext/1295507646/cstartup.o
 .debug_str     0x000088a9       0xe9 build/dsi_xlcdc_rgba8888_ws_9x75_curiosity_720x720_round/debug/_ext/1295507646/interrupts.o
 .debug_str     0x00008992      0x269 build/dsi_xlcdc_rgba8888_ws_9x75_curiosity_720x720_round/debug/_ext/1295507646/initialization.o
 .debug_str     0x00008bfb        0x0 build/dsi_xlcdc_rgba8888_ws_9x75_curiosity_720x720_round/debug/_ext/1295507646/fault_handlers.o
 .debug_str     0x00008bfb      0x129 build/dsi_xlcdc_rgba8888_ws_9x75_curiosity_720x720_round/debug/_ext/1295507646/tasks.o
 .debug_str     0x00008d24       0xed build/dsi_xlcdc_rgba8888_ws_9x75_curiosity_720x720_round/debug/_ext/1360937237/main.o
 .debug_str     0x00008e11      0x8ee build/dsi_xlcdc_rgba8888_ws_9x75_curiosity_720x720_round/debug/_ext/1360937237/app.o
 .debug_str     0x000096ff      0x7dc build/dsi_xlcdc_rgba8888_ws_9x75_curiosity_720x720_round/debug/_ext/1360937237/app_drive.o
 .debug_str     0x00009edb       0xe6 c:/program files/microchip/xc32/v4.35/bin/bin/../../lib/gcc/pic32c/8.3.1/arm/v5te/nofp\libgcc.a(_udivsi3.o)
 .debug_str     0x00009fc1       0xe6 c:/program files/microchip/xc32/v4.35/bin/bin/../../lib/gcc/pic32c/8.3.1/arm/v5te/nofp\libgcc.a(_divsi3.o)
 .debug_str     0x0000a0a7       0xe6 c:/program files/microchip/xc32/v4.35/bin/bin/../../lib/gcc/pic32c/8.3.1/arm/v5te/nofp\libgcc.a(_dvmd_tls.o)
 .debug_str     0x0000a18d       0xe7 c:/program files/microchip/xc32/v4.35/bin/bin/../../lib/gcc/pic32c/8.3.1/arm/v5te/nofp\libgcc.a(_arm_addsubsf3.o)
 .debug_str     0x0000a274       0xe7 c:/program files/microchip/xc32/v4.35/bin/bin/../../lib/gcc/pic32c/8.3.1/arm/v5te/nofp\libgcc.a(_arm_muldivsf3.o)
 .debug_str     0x0000a35b       0xe7 c:/program files/microchip/xc32/v4.35/bin/bin/../../lib/gcc/pic32c/8.3.1/arm/v5te/nofp\libgcc.a(_arm_cmpsf2.o)
 .debug_str     0x0000a442       0xe7 c:/program files/microchip/xc32/v4.35/bin/bin/../../lib/gcc/pic32c/8.3.1/arm/v5te/nofp\libgcc.a(_arm_fixsfsi.o)
 .debug_str     0x0000a529       0xe7 c:/program files/microchip/xc32/v4.35/bin/bin/../../lib/gcc/pic32c/8.3.1/arm/v5te/nofp\libgcc.a(_arm_fixunssfsi.o)
 .debug_str     0x0000a610       0xe2 c:/program files/microchip/xc32/v4.35/bin/bin/../../lib/gcc/pic32c/8.3.1/arm/v5te/nofp\libgcc.a(_aeabi_uldivmod.o)
 .debug_str     0x0000a6f2        0x0 c:/program files/microchip/xc32/v4.35/bin/bin/../../lib/gcc/pic32c/8.3.1/arm/v5te/nofp\libgcc.a(_udivmoddi4.o)
 .debug_str     0x0000a6f2        0x0 c:/program files/microchip/xc32/v4.35/bin/bin/../../lib/gcc/pic32c/8.3.1/../../../../pic32c/lib/arm/v5te/nofp\libg-musl.a(__libc_start_main.o)
 .debug_str     0x0000a6f2        0x0 c:/program files/microchip/xc32/v4.35/bin/bin/../../lib/gcc/pic32c/8.3.1/../../../../pic32c/lib/arm/v5te/nofp\libg-musl.a(libc.o)
 .debug_str     0x0000a6f2       0x5a c:/program files/microchip/xc32/v4.35/bin/bin/../../lib/gcc/pic32c/8.3.1/../../../../pic32c/lib/arm/v5te/nofp\libg-musl.a(__sio_sprintf_dnpuxX.o)
 .debug_str     0x0000a74c        0x0 c:/program files/microchip/xc32/v4.35/bin/bin/../../lib/gcc/pic32c/8.3.1/../../../../pic32c/lib/arm/v5te/nofp\libg-musl.a(__fmt_d.o)
 .debug_str     0x0000a74c        0x0 c:/program files/microchip/xc32/v4.35/bin/bin/../../lib/gcc/pic32c/8.3.1/../../../../pic32c/lib/arm/v5te/nofp\libg-musl.a(__fmt_u.o)
 .debug_str     0x0000a74c        0x0 c:/program files/microchip/xc32/v4.35/bin/bin/../../lib/gcc/pic32c/8.3.1/../../../../pic32c/lib/arm/v5te/nofp\libg-musl.a(__fmt_x.o)
 .debug_str     0x0000a74c        0x0 c:/program files/microchip/xc32/v4.35/bin/bin/../../lib/gcc/pic32c/8.3.1/../../../../pic32c/lib/arm/v5te/nofp\libg-musl.a(__pop_int.o)
 .debug_str     0x0000a74c        0x0 c:/program files/microchip/xc32/v4.35/bin/bin/../../lib/gcc/pic32c/8.3.1/../../../../pic32c/lib/arm/v5te/nofp\libg-musl.a(__pop_ptr.o)
 .debug_str     0x0000a74c       0x20 c:/program files/microchip/xc32/v4.35/bin/bin/../../lib/gcc/pic32c/8.3.1/../../../../pic32c/lib/arm/v5te/nofp\libg-musl.a(__printf_core.o)
 .debug_str     0x0000a76c        0xf c:/program files/microchip/xc32/v4.35/bin/bin/../../lib/gcc/pic32c/8.3.1/../../../../pic32c/lib/arm/v5te/nofp\libg-musl.a(stdin.o)
 .debug_str     0x0000a77b       0x11 c:/program files/microchip/xc32/v4.35/bin/bin/../../lib/gcc/pic32c/8.3.1/../../../../pic32c/lib/arm/v5te/nofp\libg-musl.a(stdout.o)
 .debug_str     0x0000a78c        0xe c:/program files/microchip/xc32/v4.35/bin/bin/../../lib/gcc/pic32c/8.3.1/../../../../pic32c/lib/arm/v5te/nofp\libg-musl.a(puts.o)
 .debug_str     0x0000a79a        0x0 c:/program files/microchip/xc32/v4.35/bin/bin/../../lib/gcc/pic32c/8.3.1/../../../../pic32c/lib/arm/v5te/nofp\libg-musl.a(setbuf.o)
 .debug_str     0x0000a79a        0x0 c:/program files/microchip/xc32/v4.35/bin/bin/../../lib/gcc/pic32c/8.3.1/../../../../pic32c/lib/arm/v5te/nofp\libg-musl.a(atoi.o)
 .debug_str     0x0000a79a        0x0 c:/program files/microchip/xc32/v4.35/bin/bin/../../lib/gcc/pic32c/8.3.1/../../../../pic32c/lib/arm/v5te/nofp\libg-musl.a(memcpy.o)
 .debug_str     0x0000a79a        0x0 c:/program files/microchip/xc32/v4.35/bin/bin/../../lib/gcc/pic32c/8.3.1/../../../../pic32c/lib/arm/v5te/nofp\libg-musl.a(memmove.o)
 .debug_str     0x0000a79a        0x0 c:/program files/microchip/xc32/v4.35/bin/bin/../../lib/gcc/pic32c/8.3.1/../../../../pic32c/lib/arm/v5te/nofp\libg-musl.a(memset.o)
 .debug_str     0x0000a79a        0x0 c:/program files/microchip/xc32/v4.35/bin/bin/../../lib/gcc/pic32c/8.3.1/../../../../pic32c/lib/arm/v5te/nofp\libg-musl.a(strlen.o)
 .debug_str     0x0000a79a        0x0 c:/program files/microchip/xc32/v4.35/bin/bin/../../lib/gcc/pic32c/8.3.1/../../../../pic32c/lib/arm/v5te/nofp\libg-musl.a(tolower.o)
 .debug_str     0x0000a79a        0x0 c:/program files/microchip/xc32/v4.35/bin/bin/../../lib/gcc/pic32c/8.3.1/../../../../pic32c/lib/arm/v5te/nofp\libg-musl.a(toupper.o)
 .debug_str     0x0000a79a        0x0 c:/program files/microchip/xc32/v4.35/bin/bin/../../lib/gcc/pic32c/8.3.1/../../../../pic32c/lib/arm/v5te/nofp\libg-musl.a(__environ.o)
 .debug_str     0x0000a79a        0x0 c:/program files/microchip/xc32/v4.35/bin/bin/../../lib/gcc/pic32c/8.3.1/../../../../pic32c/lib/arm/v5te/nofp\libg-musl.a(__errno_location.o)
 .debug_str     0x0000a79a        0xe c:/program files/microchip/xc32/v4.35/bin/bin/../../lib/gcc/pic32c/8.3.1/../../../../pic32c/lib/arm/v5te/nofp\libg-musl.a(__int_vfprintf.o)
 .debug_str     0x0000a7a8        0xc c:/program files/microchip/xc32/v4.35/bin/bin/../../lib/gcc/pic32c/8.3.1/../../../../pic32c/lib/arm/v5te/nofp\libg-musl.a(__int_vsprintf.o)
 .debug_str     0x0000a7b4        0x0 c:/program files/microchip/xc32/v4.35/bin/bin/../../lib/gcc/pic32c/8.3.1/../../../../pic32c/lib/arm/v5te/nofp\libg-musl.a(fputs.o)
 .debug_str     0x0000a7b4        0x0 c:/program files/microchip/xc32/v4.35/bin/bin/../../lib/gcc/pic32c/8.3.1/../../../../pic32c/lib/arm/v5te/nofp\libg-musl.a(__cvt_u.o)
 .debug_str     0x0000a7b4        0x0 c:/program files/microchip/xc32/v4.35/bin/bin/../../lib/gcc/pic32c/8.3.1/../../../../pic32c/lib/arm/v5te/nofp\libg-musl.a(__pop_float.o)
 .debug_str     0x0000a7b4        0x0 c:/program files/microchip/xc32/v4.35/bin/bin/../../lib/gcc/pic32c/8.3.1/../../../../pic32c/lib/arm/v5te/nofp\libg-musl.a(__stdio_read.o)
 .debug_str     0x0000a7b4        0x0 c:/program files/microchip/xc32/v4.35/bin/bin/../../lib/gcc/pic32c/8.3.1/../../../../pic32c/lib/arm/v5te/nofp\libg-musl.a(__towrite_rw.o)
 .debug_str     0x0000a7b4        0x0 c:/program files/microchip/xc32/v4.35/bin/bin/../../lib/gcc/pic32c/8.3.1/../../../../pic32c/lib/arm/v5te/nofp\libg-musl.a(fwrite.o)
 .debug_str     0x0000a7b4       0x16 c:/program files/microchip/xc32/v4.35/bin/bin/../../lib/gcc/pic32c/8.3.1/../../../../pic32c/lib/arm/v5te/nofp\libg-musl.a(putc.o)
 .debug_str     0x0000a7ca       0x10 c:/program files/microchip/xc32/v4.35/bin/bin/../../lib/gcc/pic32c/8.3.1/../../../../pic32c/lib/arm/v5te/nofp\libg-musl.a(setvbuf.o)
 .debug_str     0x0000a7da        0x0 c:/program files/microchip/xc32/v4.35/bin/bin/../../lib/gcc/pic32c/8.3.1/../../../../pic32c/lib/arm/v5te/nofp\libg-musl.a(readv.o)
 .debug_str     0x0000a7da       0x13 c:/program files/microchip/xc32/v4.35/bin/bin/../../lib/gcc/pic32c/8.3.1/../../../../pic32c/lib/arm/v5te/nofp\libg-musl.a(malloc.o)
 .debug_str     0x0000a7ed        0x0 c:/program files/microchip/xc32/v4.35/bin/bin/../../lib/gcc/pic32c/8.3.1/../../../../pic32c/lib/arm/v5te/nofp\libg-musl.a(expand_heap.o)
 .debug_str     0x0000a7ed        0xb c:/program files/microchip/xc32/v4.35/bin/bin/../../lib/gcc/pic32c/8.3.1/../../../../pic32c/lib/arm/v5te/nofp\libg-musl.a(__int_vsnprintf.o)
 .debug_str     0x0000a7f8        0x0 c:/program files/microchip/xc32/v4.35/bin/bin/../../lib/gcc/pic32c/8.3.1/../../../../pic32c/lib/arm/v5te/nofp\libg-musl.a(__init_stdio.o)
 .debug_str     0x0000a7f8        0x0 c:/program files/microchip/xc32/v4.35/bin/bin/../../lib/gcc/pic32c/8.3.1/../../../../pic32c/lib/arm/v5te/nofp\libg-musl.a(__out.o)
 .debug_str     0x0000a7f8       0x1d c:/program files/microchip/xc32/v4.35/bin/bin/../../lib/gcc/pic32c/8.3.1/../../../../pic32c/lib/arm/v5te/nofp\libg-musl.a(__putc.o)
 .debug_str     0x0000a815       0x11 c:/program files/microchip/xc32/v4.35/bin/bin/../../lib/gcc/pic32c/8.3.1/../../../../pic32c/lib/arm/v5te/nofp\libg-musl.a(__stderr.o)
 .debug_str     0x0000a826        0x0 c:/program files/microchip/xc32/v4.35/bin/bin/../../lib/gcc/pic32c/8.3.1/../../../../pic32c/lib/arm/v5te/nofp\libg-musl.a(__stdio_close.o)
 .debug_str     0x0000a826        0xa c:/program files/microchip/xc32/v4.35/bin/bin/../../lib/gcc/pic32c/8.3.1/../../../../pic32c/lib/arm/v5te/nofp\libg-musl.a(__stdio_write.o)
 .debug_str     0x0000a830       0x11 c:/program files/microchip/xc32/v4.35/bin/bin/../../lib/gcc/pic32c/8.3.1/../../../../pic32c/lib/arm/v5te/nofp\libg-musl.a(__stdout.o)
 .debug_str     0x0000a841        0x0 c:/program files/microchip/xc32/v4.35/bin/bin/../../lib/gcc/pic32c/8.3.1/../../../../pic32c/lib/arm/v5te/nofp\libg-musl.a(__towrite.o)
 .debug_str     0x0000a841        0x0 c:/program files/microchip/xc32/v4.35/bin/bin/../../lib/gcc/pic32c/8.3.1/../../../../pic32c/lib/arm/v5te/nofp\libg-musl.a(writev.o)
 .debug_str     0x0000a841        0xa c:/program files/microchip/xc32/v4.35/bin/bin/../../lib/gcc/pic32c/8.3.1/../../../../pic32c/lib/arm/v5te/nofp\libg-musl.a(__overflow.o)
 .debug_str     0x0000a84b       0x10 c:/program files/microchip/xc32/v4.35/bin/bin/../../lib/gcc/pic32c/8.3.1/../../../../pic32c/lib/arm/v5te/nofp\libg-musl.a(__fwrite.o)
 .debug_str     0x0000a85b        0x0 c:/program files/microchip/xc32/v4.35/bin/bin/../../lib/gcc/pic32c/8.3.1/../../../../pic32c/lib/arm/v5te/nofp\libpic32c.a(close.o)
 .debug_str     0x0000a85b        0x0 c:/program files/microchip/xc32/v4.35/bin/bin/../../lib/gcc/pic32c/8.3.1/../../../../pic32c/lib/arm/v5te/nofp\libpic32c.a(lseek.o)
 .debug_str     0x0000a85b        0x0 c:/program files/microchip/xc32/v4.35/bin/bin/../../lib/gcc/pic32c/8.3.1/../../../../pic32c/lib/arm/v5te/nofp\libpic32c.a(sbrk.o)

.debug_frame    0x00000000     0x89f8
 .debug_frame   0x00000000      0x2b4 build/dsi_xlcdc_rgba8888_ws_9x75_curiosity_720x720_round/debug/_ext/1985065589/drv_i2c.o
 .debug_frame   0x000002b4      0x1d8 build/dsi_xlcdc_rgba8888_ws_9x75_curiosity_720x720_round/debug/_ext/2010836581/gfx_canvas_api.o
 .debug_frame   0x0000048c      0x210 build/dsi_xlcdc_rgba8888_ws_9x75_curiosity_720x720_round/debug/_ext/2010836581/gfx_canvas.o
 .debug_frame   0x0000069c       0x80 build/dsi_xlcdc_rgba8888_ws_9x75_curiosity_720x720_round/debug/_ext/1085405985/ws_touch_display.o
 .debug_frame   0x0000071c      0x108 build/dsi_xlcdc_rgba8888_ws_9x75_curiosity_720x720_round/debug/_ext/219820618/drv_gfx2d.o
 .debug_frame   0x00000824       0x64 build/dsi_xlcdc_rgba8888_ws_9x75_curiosity_720x720_round/debug/_ext/1247915868/plib_dsi.o
 .debug_frame   0x00000888      0x1b0 build/dsi_xlcdc_rgba8888_ws_9x75_curiosity_720x720_round/debug/_ext/225302149/plib_xlcdc.o
 .debug_frame   0x00000a38       0x8c build/dsi_xlcdc_rgba8888_ws_9x75_curiosity_720x720_round/debug/_ext/505007713/drv_gfx_xlcdc.o
 .debug_frame   0x00000ac4      0x4c4 build/dsi_xlcdc_rgba8888_ws_9x75_curiosity_720x720_round/debug/_ext/1966656405/gfx_driver.o
 .debug_frame   0x00000f88      0x418 build/dsi_xlcdc_rgba8888_ws_9x75_curiosity_720x720_round/debug/_ext/105237591/legato_math.o
 .debug_frame   0x000013a0      0x130 build/dsi_xlcdc_rgba8888_ws_9x75_curiosity_720x720_round/debug/_ext/105237591/legato_rect.o
 .debug_frame   0x000014d0      0x234 build/dsi_xlcdc_rgba8888_ws_9x75_curiosity_720x720_round/debug/_ext/105237591/legato_utils.o
 .debug_frame   0x00001704       0x6c build/dsi_xlcdc_rgba8888_ws_9x75_curiosity_720x720_round/debug/_ext/105237591/legato_color_blend.o
 .debug_frame   0x00001770       0x60 build/dsi_xlcdc_rgba8888_ws_9x75_curiosity_720x720_round/debug/_ext/105237591/legato_color.o
 .debug_frame   0x000017d0      0x134 build/dsi_xlcdc_rgba8888_ws_9x75_curiosity_720x720_round/debug/_ext/105237591/legato_color_lerp.o
 .debug_frame   0x00001904      0x254 build/dsi_xlcdc_rgba8888_ws_9x75_curiosity_720x720_round/debug/_ext/105237591/legato_pixelbuffer.o
 .debug_frame   0x00001b58      0x2c8 build/dsi_xlcdc_rgba8888_ws_9x75_curiosity_720x720_round/debug/_ext/105237591/legato_color_convert.o
 .debug_frame   0x00001e20       0xcc build/dsi_xlcdc_rgba8888_ws_9x75_curiosity_720x720_round/debug/_ext/884805853/legato_event.o
 .debug_frame   0x00001eec       0x54 build/dsi_xlcdc_rgba8888_ws_9x75_curiosity_720x720_round/debug/_ext/884805853/legato_scheme.o
 .debug_frame   0x00001f40      0x160 build/dsi_xlcdc_rgba8888_ws_9x75_curiosity_720x720_round/debug/_ext/884805853/legato_input.o
 .debug_frame   0x000020a0      0x3dc build/dsi_xlcdc_rgba8888_ws_9x75_curiosity_720x720_round/debug/_ext/884805853/legato_state.o
 .debug_frame   0x0000247c      0x174 build/dsi_xlcdc_rgba8888_ws_9x75_curiosity_720x720_round/debug/_ext/778592651/legato_array.o
 .debug_frame   0x000025f0      0x330 build/dsi_xlcdc_rgba8888_ws_9x75_curiosity_720x720_round/debug/_ext/778592651/legato_rectarray.o
 .debug_frame   0x00002920      0x158 build/dsi_xlcdc_rgba8888_ws_9x75_curiosity_720x720_round/debug/_ext/778592651/legato_list.o
 .debug_frame   0x00002a78      0x1a4 build/dsi_xlcdc_rgba8888_ws_9x75_curiosity_720x720_round/debug/_ext/884895117/legato_font.o
 .debug_frame   0x00002c1c       0xa8 build/dsi_xlcdc_rgba8888_ws_9x75_curiosity_720x720_round/debug/_ext/1322619606/le_gen_screen_Screen0.o
 .debug_frame   0x00002cc4       0x80 build/dsi_xlcdc_rgba8888_ws_9x75_curiosity_720x720_round/debug/_ext/1965903633/le_gen_harmony.o
 .debug_frame   0x00002d44       0x2c build/dsi_xlcdc_rgba8888_ws_9x75_curiosity_720x720_round/debug/_ext/1965903633/le_gen_stringtable.o
 .debug_frame   0x00002d70       0x80 build/dsi_xlcdc_rgba8888_ws_9x75_curiosity_720x720_round/debug/_ext/1965903633/le_gen_init.o
 .debug_frame   0x00002df0      0x128 build/dsi_xlcdc_rgba8888_ws_9x75_curiosity_720x720_round/debug/_ext/979623078/legato_imagedecoder_jpeg_common.o
 .debug_frame   0x00002f18       0x44 build/dsi_xlcdc_rgba8888_ws_9x75_curiosity_720x720_round/debug/_ext/979623078/jidctint.o
 .debug_frame   0x00002f5c       0xfc build/dsi_xlcdc_rgba8888_ws_9x75_curiosity_720x720_round/debug/_ext/979623078/legato_imagedecoder_jpeg.o
 .debug_frame   0x00003058       0x40 build/dsi_xlcdc_rgba8888_ws_9x75_curiosity_720x720_round/debug/_ext/979534379/legato_imagedecoder_mono_read_internal.o
 .debug_frame   0x00003098      0x16c build/dsi_xlcdc_rgba8888_ws_9x75_curiosity_720x720_round/debug/_ext/979534379/legato_imagedecoder_mono.o
 .debug_frame   0x00003204       0xc4 build/dsi_xlcdc_rgba8888_ws_9x75_curiosity_720x720_round/debug/_ext/799688951/legato_imagedecoder_png.o
 .debug_frame   0x000032c8      0x788 build/dsi_xlcdc_rgba8888_ws_9x75_curiosity_720x720_round/debug/_ext/799688951/lodepng.o
 .debug_frame   0x00003a50       0x44 build/dsi_xlcdc_rgba8888_ws_9x75_curiosity_720x720_round/debug/_ext/799690486/legato_imagedecoder_raw_convert.o
 .debug_frame   0x00003a94       0x70 build/dsi_xlcdc_rgba8888_ws_9x75_curiosity_720x720_round/debug/_ext/799690486/legato_imagedecoder_raw_write.o
 .debug_frame   0x00003b04      0x104 build/dsi_xlcdc_rgba8888_ws_9x75_curiosity_720x720_round/debug/_ext/799690486/legato_imagedecoder_raw_read_internal.o
 .debug_frame   0x00003c08       0xe0 build/dsi_xlcdc_rgba8888_ws_9x75_curiosity_720x720_round/debug/_ext/799690486/legato_imagedecoder_raw_scale.o
 .debug_frame   0x00003ce8       0x38 build/dsi_xlcdc_rgba8888_ws_9x75_curiosity_720x720_round/debug/_ext/799690486/legato_imagedecoder_raw_mask.o
 .debug_frame   0x00003d20       0x6c build/dsi_xlcdc_rgba8888_ws_9x75_curiosity_720x720_round/debug/_ext/799690486/legato_imagedecoder_raw_blend.o
 .debug_frame   0x00003d8c      0x208 build/dsi_xlcdc_rgba8888_ws_9x75_curiosity_720x720_round/debug/_ext/799690486/legato_imagedecoder_raw.o
 .debug_frame   0x00003f94       0x7c build/dsi_xlcdc_rgba8888_ws_9x75_curiosity_720x720_round/debug/_ext/799690486/legato_imagedecoder_raw_setup.o
 .debug_frame   0x00004010       0xd0 build/dsi_xlcdc_rgba8888_ws_9x75_curiosity_720x720_round/debug/_ext/799690486/legato_imagedecoder_raw_rotate.o
 .debug_frame   0x000040e0       0x68 build/dsi_xlcdc_rgba8888_ws_9x75_curiosity_720x720_round/debug/_ext/799690486/legato_imagedecoder_raw_palette_internal.o
 .debug_frame   0x00004148       0xf4 build/dsi_xlcdc_rgba8888_ws_9x75_curiosity_720x720_round/debug/_ext/1664643037/legato_image_utils.o
 .debug_frame   0x0000423c      0x1e4 build/dsi_xlcdc_rgba8888_ws_9x75_curiosity_720x720_round/debug/_ext/1664643037/legato_image.o
 .debug_frame   0x00004420      0x180 build/dsi_xlcdc_rgba8888_ws_9x75_curiosity_720x720_round/debug/_ext/171820735/legato_variableheap.o
 .debug_frame   0x000045a0       0xa4 build/dsi_xlcdc_rgba8888_ws_9x75_curiosity_720x720_round/debug/_ext/171820735/legato_fixedheap.o
 .debug_frame   0x00004644      0x134 build/dsi_xlcdc_rgba8888_ws_9x75_curiosity_720x720_round/debug/_ext/171820735/legato_memory.o
 .debug_frame   0x00004778      0x1f8 build/dsi_xlcdc_rgba8888_ws_9x75_curiosity_720x720_round/debug/_ext/2053165825/legato_draw.o
 .debug_frame   0x00004970       0xcc build/dsi_xlcdc_rgba8888_ws_9x75_curiosity_720x720_round/debug/_ext/2053165825/legato_draw_line.o
 .debug_frame   0x00004a3c       0xb0 build/dsi_xlcdc_rgba8888_ws_9x75_curiosity_720x720_round/debug/_ext/2053165825/legato_draw_rect.o
 .debug_frame   0x00004aec      0x19c build/dsi_xlcdc_rgba8888_ws_9x75_curiosity_720x720_round/debug/_ext/2053165825/legato_draw_arc.o
 .debug_frame   0x00004c88       0xe4 build/dsi_xlcdc_rgba8888_ws_9x75_curiosity_720x720_round/debug/_ext/2053165825/legato_gpu.o
 .debug_frame   0x00004d6c      0x2c4 build/dsi_xlcdc_rgba8888_ws_9x75_curiosity_720x720_round/debug/_ext/2053165825/legato_renderer.o
 .debug_frame   0x00005030      0x1ac build/dsi_xlcdc_rgba8888_ws_9x75_curiosity_720x720_round/debug/_ext/357591503/legato_string.o
 .debug_frame   0x000051dc      0x300 build/dsi_xlcdc_rgba8888_ws_9x75_curiosity_720x720_round/debug/_ext/357591503/legato_stringutils.o
 .debug_frame   0x000054dc       0xa0 build/dsi_xlcdc_rgba8888_ws_9x75_curiosity_720x720_round/debug/_ext/357591503/legato_string_renderer.o
 .debug_frame   0x0000557c      0x23c build/dsi_xlcdc_rgba8888_ws_9x75_curiosity_720x720_round/debug/_ext/357591503/legato_fixedstring.o
 .debug_frame   0x000057b8       0xc4 build/dsi_xlcdc_rgba8888_ws_9x75_curiosity_720x720_round/debug/_ext/357591503/legato_stringtable.o
 .debug_frame   0x0000587c      0x20c build/dsi_xlcdc_rgba8888_ws_9x75_curiosity_720x720_round/debug/_ext/357591503/legato_tablestring.o
 .debug_frame   0x00005a88       0xc0 build/dsi_xlcdc_rgba8888_ws_9x75_curiosity_720x720_round/debug/_ext/1591588594/legato_widget_image_skin_classic.o
 .debug_frame   0x00005b48       0xa8 build/dsi_xlcdc_rgba8888_ws_9x75_curiosity_720x720_round/debug/_ext/1591588594/legato_widget_image.o
 .debug_frame   0x00005bf0       0xc8 build/dsi_xlcdc_rgba8888_ws_9x75_curiosity_720x720_round/debug/_ext/1589174617/legato_widget_label_skin_classic.o
 .debug_frame   0x00005cb8       0xfc build/dsi_xlcdc_rgba8888_ws_9x75_curiosity_720x720_round/debug/_ext/1589174617/legato_widget_label.o
 .debug_frame   0x00005db4      0x2f0 build/dsi_xlcdc_rgba8888_ws_9x75_curiosity_720x720_round/debug/_ext/461530114/legato_widget_skin_classic_common.o
 .debug_frame   0x000060a4       0x6c build/dsi_xlcdc_rgba8888_ws_9x75_curiosity_720x720_round/debug/_ext/461530114/legato_widget_skin_classic.o
 .debug_frame   0x00006110      0x834 build/dsi_xlcdc_rgba8888_ws_9x75_curiosity_720x720_round/debug/_ext/461530114/legato_widget.o
 .debug_frame   0x00006944       0x60 build/dsi_xlcdc_rgba8888_ws_9x75_curiosity_720x720_round/debug/_ext/1886844053/plib_aic.o
 .debug_frame   0x000069a4       0x34 build/dsi_xlcdc_rgba8888_ws_9x75_curiosity_720x720_round/debug/_ext/1886846076/plib_clk.o
 .debug_frame   0x000069d8       0xc4 build/dsi_xlcdc_rgba8888_ws_9x75_curiosity_720x720_round/debug/_ext/1637293614/plib_dbgu.o
 .debug_frame   0x00006a9c      0x130 build/dsi_xlcdc_rgba8888_ws_9x75_curiosity_720x720_round/debug/_ext/545877704/plib_flexcom6_twi_master.o
 .debug_frame   0x00006bcc      0x290 build/dsi_xlcdc_rgba8888_ws_9x75_curiosity_720x720_round/debug/_ext/786409605/plib_gfx2d.o
 .debug_frame   0x00006e5c       0xf4 build/dsi_xlcdc_rgba8888_ws_9x75_curiosity_720x720_round/debug/_ext/1886855727/plib_mmu.o
 .debug_frame   0x00006f50       0xa8 build/dsi_xlcdc_rgba8888_ws_9x75_curiosity_720x720_round/debug/_ext/1886858480/plib_pio.o
 .debug_frame   0x00006ff8       0xdc build/dsi_xlcdc_rgba8888_ws_9x75_curiosity_720x720_round/debug/_ext/1886860748/plib_rtt.o
 .debug_frame   0x000070d4      0x15c build/dsi_xlcdc_rgba8888_ws_9x75_curiosity_720x720_round/debug/_ext/60866517/plib_tc1.o
 .debug_frame   0x00007230       0x44 build/dsi_xlcdc_rgba8888_ws_9x75_curiosity_720x720_round/debug/_ext/1477359996/xc32_monitor.o
 .debug_frame   0x00007274      0x1e8 build/dsi_xlcdc_rgba8888_ws_9x75_curiosity_720x720_round/debug/_ext/1949213289/sys_input.o
 .debug_frame   0x0000745c      0x110 build/dsi_xlcdc_rgba8888_ws_9x75_curiosity_720x720_round/debug/_ext/586618287/sys_int.o
 .debug_frame   0x0000756c      0x39c build/dsi_xlcdc_rgba8888_ws_9x75_curiosity_720x720_round/debug/_ext/690637493/sys_time.o
 .debug_frame   0x00007908       0x30 build/dsi_xlcdc_rgba8888_ws_9x75_curiosity_720x720_round/debug/_ext/1295507646/interrupts.o
 .debug_frame   0x00007938       0x30 build/dsi_xlcdc_rgba8888_ws_9x75_curiosity_720x720_round/debug/_ext/1295507646/initialization.o
 .debug_frame   0x00007968       0x50 build/dsi_xlcdc_rgba8888_ws_9x75_curiosity_720x720_round/debug/_ext/1295507646/fault_handlers.o
 .debug_frame   0x000079b8       0x2c build/dsi_xlcdc_rgba8888_ws_9x75_curiosity_720x720_round/debug/_ext/1295507646/tasks.o
 .debug_frame   0x000079e4       0x28 build/dsi_xlcdc_rgba8888_ws_9x75_curiosity_720x720_round/debug/_ext/1360937237/main.o
 .debug_frame   0x00007a0c      0x164 build/dsi_xlcdc_rgba8888_ws_9x75_curiosity_720x720_round/debug/_ext/1360937237/app.o
 .debug_frame   0x00007b70      0x180 build/dsi_xlcdc_rgba8888_ws_9x75_curiosity_720x720_round/debug/_ext/1360937237/app_drive.o
 .debug_frame   0x00007cf0       0x20 c:/program files/microchip/xc32/v4.35/bin/bin/../../lib/gcc/pic32c/8.3.1/arm/v5te/nofp\libgcc.a(_udivsi3.o)
 .debug_frame   0x00007d10       0x20 c:/program files/microchip/xc32/v4.35/bin/bin/../../lib/gcc/pic32c/8.3.1/arm/v5te/nofp\libgcc.a(_divsi3.o)
 .debug_frame   0x00007d30       0x4c c:/program files/microchip/xc32/v4.35/bin/bin/../../lib/gcc/pic32c/8.3.1/arm/v5te/nofp\libgcc.a(_arm_addsubsf3.o)
 .debug_frame   0x00007d7c       0x38 c:/program files/microchip/xc32/v4.35/bin/bin/../../lib/gcc/pic32c/8.3.1/arm/v5te/nofp\libgcc.a(_arm_muldivsf3.o)
 .debug_frame   0x00007db4       0xc8 c:/program files/microchip/xc32/v4.35/bin/bin/../../lib/gcc/pic32c/8.3.1/arm/v5te/nofp\libgcc.a(_arm_cmpsf2.o)
 .debug_frame   0x00007e7c       0x24 c:/program files/microchip/xc32/v4.35/bin/bin/../../lib/gcc/pic32c/8.3.1/arm/v5te/nofp\libgcc.a(_arm_fixsfsi.o)
 .debug_frame   0x00007ea0       0x24 c:/program files/microchip/xc32/v4.35/bin/bin/../../lib/gcc/pic32c/8.3.1/arm/v5te/nofp\libgcc.a(_arm_fixunssfsi.o)
 .debug_frame   0x00007ec4       0x2c c:/program files/microchip/xc32/v4.35/bin/bin/../../lib/gcc/pic32c/8.3.1/arm/v5te/nofp\libgcc.a(_aeabi_uldivmod.o)
 .debug_frame   0x00007ef0       0x34 c:/program files/microchip/xc32/v4.35/bin/bin/../../lib/gcc/pic32c/8.3.1/arm/v5te/nofp\libgcc.a(_udivmoddi4.o)
 .debug_frame   0x00007f24       0x3c c:/program files/microchip/xc32/v4.35/bin/bin/../../lib/gcc/pic32c/8.3.1/../../../../pic32c/lib/arm/v5te/nofp\libg-musl.a(__libc_start_main.o)
 .debug_frame   0x00007f60       0x58 c:/program files/microchip/xc32/v4.35/bin/bin/../../lib/gcc/pic32c/8.3.1/../../../../pic32c/lib/arm/v5te/nofp\libg-musl.a(__sio_sprintf_dnpuxX.o)
 .debug_frame   0x00007fb8       0x3c c:/program files/microchip/xc32/v4.35/bin/bin/../../lib/gcc/pic32c/8.3.1/../../../../pic32c/lib/arm/v5te/nofp\libg-musl.a(__fmt_d.o)
 .debug_frame   0x00007ff4       0x34 c:/program files/microchip/xc32/v4.35/bin/bin/../../lib/gcc/pic32c/8.3.1/../../../../pic32c/lib/arm/v5te/nofp\libg-musl.a(__fmt_u.o)
 .debug_frame   0x00008028       0x40 c:/program files/microchip/xc32/v4.35/bin/bin/../../lib/gcc/pic32c/8.3.1/../../../../pic32c/lib/arm/v5te/nofp\libg-musl.a(__fmt_x.o)
 .debug_frame   0x00008068       0x20 c:/program files/microchip/xc32/v4.35/bin/bin/../../lib/gcc/pic32c/8.3.1/../../../../pic32c/lib/arm/v5te/nofp\libg-musl.a(__pop_int.o)
 .debug_frame   0x00008088       0x20 c:/program files/microchip/xc32/v4.35/bin/bin/../../lib/gcc/pic32c/8.3.1/../../../../pic32c/lib/arm/v5te/nofp\libg-musl.a(__pop_ptr.o)
 .debug_frame   0x000080a8       0xcc c:/program files/microchip/xc32/v4.35/bin/bin/../../lib/gcc/pic32c/8.3.1/../../../../pic32c/lib/arm/v5te/nofp\libg-musl.a(__printf_core.o)
 .debug_frame   0x00008174       0x30 c:/program files/microchip/xc32/v4.35/bin/bin/../../lib/gcc/pic32c/8.3.1/../../../../pic32c/lib/arm/v5te/nofp\libg-musl.a(stdin.o)
 .debug_frame   0x000081a4       0x48 c:/program files/microchip/xc32/v4.35/bin/bin/../../lib/gcc/pic32c/8.3.1/../../../../pic32c/lib/arm/v5te/nofp\libg-musl.a(stdout.o)
 .debug_frame   0x000081ec       0x28 c:/program files/microchip/xc32/v4.35/bin/bin/../../lib/gcc/pic32c/8.3.1/../../../../pic32c/lib/arm/v5te/nofp\libg-musl.a(puts.o)
 .debug_frame   0x00008214       0x20 c:/program files/microchip/xc32/v4.35/bin/bin/../../lib/gcc/pic32c/8.3.1/../../../../pic32c/lib/arm/v5te/nofp\libg-musl.a(setbuf.o)
 .debug_frame   0x00008234       0x28 c:/program files/microchip/xc32/v4.35/bin/bin/../../lib/gcc/pic32c/8.3.1/../../../../pic32c/lib/arm/v5te/nofp\libg-musl.a(atoi.o)
 .debug_frame   0x0000825c       0x20 c:/program files/microchip/xc32/v4.35/bin/bin/../../lib/gcc/pic32c/8.3.1/../../../../pic32c/lib/arm/v5te/nofp\libg-musl.a(memcpy.o)
 .debug_frame   0x0000827c       0x20 c:/program files/microchip/xc32/v4.35/bin/bin/../../lib/gcc/pic32c/8.3.1/../../../../pic32c/lib/arm/v5te/nofp\libg-musl.a(memmove.o)
 .debug_frame   0x0000829c       0x20 c:/program files/microchip/xc32/v4.35/bin/bin/../../lib/gcc/pic32c/8.3.1/../../../../pic32c/lib/arm/v5te/nofp\libg-musl.a(memset.o)
 .debug_frame   0x000082bc       0x20 c:/program files/microchip/xc32/v4.35/bin/bin/../../lib/gcc/pic32c/8.3.1/../../../../pic32c/lib/arm/v5te/nofp\libg-musl.a(strlen.o)
 .debug_frame   0x000082dc       0x30 c:/program files/microchip/xc32/v4.35/bin/bin/../../lib/gcc/pic32c/8.3.1/../../../../pic32c/lib/arm/v5te/nofp\libg-musl.a(tolower.o)
 .debug_frame   0x0000830c       0x30 c:/program files/microchip/xc32/v4.35/bin/bin/../../lib/gcc/pic32c/8.3.1/../../../../pic32c/lib/arm/v5te/nofp\libg-musl.a(toupper.o)
 .debug_frame   0x0000833c       0x2c c:/program files/microchip/xc32/v4.35/bin/bin/../../lib/gcc/pic32c/8.3.1/../../../../pic32c/lib/arm/v5te/nofp\libg-musl.a(__int_vfprintf.o)
 .debug_frame   0x00008368       0x20 c:/program files/microchip/xc32/v4.35/bin/bin/../../lib/gcc/pic32c/8.3.1/../../../../pic32c/lib/arm/v5te/nofp\libg-musl.a(__int_vsprintf.o)
 .debug_frame   0x00008388       0x2c c:/program files/microchip/xc32/v4.35/bin/bin/../../lib/gcc/pic32c/8.3.1/../../../../pic32c/lib/arm/v5te/nofp\libg-musl.a(fputs.o)
 .debug_frame   0x000083b4       0x38 c:/program files/microchip/xc32/v4.35/bin/bin/../../lib/gcc/pic32c/8.3.1/../../../../pic32c/lib/arm/v5te/nofp\libg-musl.a(__cvt_u.o)
 .debug_frame   0x000083ec       0x20 c:/program files/microchip/xc32/v4.35/bin/bin/../../lib/gcc/pic32c/8.3.1/../../../../pic32c/lib/arm/v5te/nofp\libg-musl.a(__pop_float.o)
 .debug_frame   0x0000840c       0x30 c:/program files/microchip/xc32/v4.35/bin/bin/../../lib/gcc/pic32c/8.3.1/../../../../pic32c/lib/arm/v5te/nofp\libg-musl.a(__stdio_read.o)
 .debug_frame   0x0000843c       0x20 c:/program files/microchip/xc32/v4.35/bin/bin/../../lib/gcc/pic32c/8.3.1/../../../../pic32c/lib/arm/v5te/nofp\libg-musl.a(__towrite_rw.o)
 .debug_frame   0x0000845c       0x3c c:/program files/microchip/xc32/v4.35/bin/bin/../../lib/gcc/pic32c/8.3.1/../../../../pic32c/lib/arm/v5te/nofp\libg-musl.a(fwrite.o)
 .debug_frame   0x00008498       0x54 c:/program files/microchip/xc32/v4.35/bin/bin/../../lib/gcc/pic32c/8.3.1/../../../../pic32c/lib/arm/v5te/nofp\libg-musl.a(putc.o)
 .debug_frame   0x000084ec       0x44 c:/program files/microchip/xc32/v4.35/bin/bin/../../lib/gcc/pic32c/8.3.1/../../../../pic32c/lib/arm/v5te/nofp\libg-musl.a(setvbuf.o)
 .debug_frame   0x00008530       0x30 c:/program files/microchip/xc32/v4.35/bin/bin/../../lib/gcc/pic32c/8.3.1/../../../../pic32c/lib/arm/v5te/nofp\libg-musl.a(readv.o)
 .debug_frame   0x00008560      0x13c c:/program files/microchip/xc32/v4.35/bin/bin/../../lib/gcc/pic32c/8.3.1/../../../../pic32c/lib/arm/v5te/nofp\libg-musl.a(malloc.o)
 .debug_frame   0x0000869c       0x28 c:/program files/microchip/xc32/v4.35/bin/bin/../../lib/gcc/pic32c/8.3.1/../../../../pic32c/lib/arm/v5te/nofp\libg-musl.a(expand_heap.o)
 .debug_frame   0x000086c4       0x30 c:/program files/microchip/xc32/v4.35/bin/bin/../../lib/gcc/pic32c/8.3.1/../../../../pic32c/lib/arm/v5te/nofp\libg-musl.a(__int_vsnprintf.o)
 .debug_frame   0x000086f4       0x38 c:/program files/microchip/xc32/v4.35/bin/bin/../../lib/gcc/pic32c/8.3.1/../../../../pic32c/lib/arm/v5te/nofp\libg-musl.a(__init_stdio.o)
 .debug_frame   0x0000872c       0x3c c:/program files/microchip/xc32/v4.35/bin/bin/../../lib/gcc/pic32c/8.3.1/../../../../pic32c/lib/arm/v5te/nofp\libg-musl.a(__out.o)
 .debug_frame   0x00008768       0x20 c:/program files/microchip/xc32/v4.35/bin/bin/../../lib/gcc/pic32c/8.3.1/../../../../pic32c/lib/arm/v5te/nofp\libg-musl.a(__putc.o)
 .debug_frame   0x00008788       0x40 c:/program files/microchip/xc32/v4.35/bin/bin/../../lib/gcc/pic32c/8.3.1/../../../../pic32c/lib/arm/v5te/nofp\libg-musl.a(__stderr.o)
 .debug_frame   0x000087c8       0x60 c:/program files/microchip/xc32/v4.35/bin/bin/../../lib/gcc/pic32c/8.3.1/../../../../pic32c/lib/arm/v5te/nofp\libg-musl.a(__stdio_close.o)
 .debug_frame   0x00008828       0x58 c:/program files/microchip/xc32/v4.35/bin/bin/../../lib/gcc/pic32c/8.3.1/../../../../pic32c/lib/arm/v5te/nofp\libg-musl.a(__stdio_write.o)
 .debug_frame   0x00008880       0x40 c:/program files/microchip/xc32/v4.35/bin/bin/../../lib/gcc/pic32c/8.3.1/../../../../pic32c/lib/arm/v5te/nofp\libg-musl.a(__stdout.o)
 .debug_frame   0x000088c0       0x38 c:/program files/microchip/xc32/v4.35/bin/bin/../../lib/gcc/pic32c/8.3.1/../../../../pic32c/lib/arm/v5te/nofp\libg-musl.a(__towrite.o)
 .debug_frame   0x000088f8       0x30 c:/program files/microchip/xc32/v4.35/bin/bin/../../lib/gcc/pic32c/8.3.1/../../../../pic32c/lib/arm/v5te/nofp\libg-musl.a(writev.o)
 .debug_frame   0x00008928       0x30 c:/program files/microchip/xc32/v4.35/bin/bin/../../lib/gcc/pic32c/8.3.1/../../../../pic32c/lib/arm/v5te/nofp\libg-musl.a(__overflow.o)
 .debug_frame   0x00008958       0x40 c:/program files/microchip/xc32/v4.35/bin/bin/../../lib/gcc/pic32c/8.3.1/../../../../pic32c/lib/arm/v5te/nofp\libg-musl.a(__fwrite.o)
 .debug_frame   0x00008998       0x20 c:/program files/microchip/xc32/v4.35/bin/bin/../../lib/gcc/pic32c/8.3.1/../../../../pic32c/lib/arm/v5te/nofp\libpic32c.a(close.o)
 .debug_frame   0x000089b8       0x20 c:/program files/microchip/xc32/v4.35/bin/bin/../../lib/gcc/pic32c/8.3.1/../../../../pic32c/lib/arm/v5te/nofp\libpic32c.a(lseek.o)
 .debug_frame   0x000089d8       0x20 c:/program files/microchip/xc32/v4.35/bin/bin/../../lib/gcc/pic32c/8.3.1/../../../../pic32c/lib/arm/v5te/nofp\libpic32c.a(sbrk.o)

.note.GNU-stack
                0x00000000        0x0
 .note.GNU-stack
                0x00000000        0x0 c:/program files/microchip/xc32/v4.35/bin/bin/../../lib/gcc/pic32c/8.3.1/../../../../pic32c/lib/arm/v5te/nofp\libg-musl.a(__libc_start_main.o)
 .note.GNU-stack
                0x00000000        0x0 c:/program files/microchip/xc32/v4.35/bin/bin/../../lib/gcc/pic32c/8.3.1/../../../../pic32c/lib/arm/v5te/nofp\libg-musl.a(libc.o)
 .note.GNU-stack
                0x00000000        0x0 c:/program files/microchip/xc32/v4.35/bin/bin/../../lib/gcc/pic32c/8.3.1/../../../../pic32c/lib/arm/v5te/nofp\libg-musl.a(__sio_sprintf_dnpuxX.o)
 .note.GNU-stack
                0x00000000        0x0 c:/program files/microchip/xc32/v4.35/bin/bin/../../lib/gcc/pic32c/8.3.1/../../../../pic32c/lib/arm/v5te/nofp\libg-musl.a(__fmt_d.o)
 .note.GNU-stack
                0x00000000        0x0 c:/program files/microchip/xc32/v4.35/bin/bin/../../lib/gcc/pic32c/8.3.1/../../../../pic32c/lib/arm/v5te/nofp\libg-musl.a(__fmt_u.o)
 .note.GNU-stack
                0x00000000        0x0 c:/program files/microchip/xc32/v4.35/bin/bin/../../lib/gcc/pic32c/8.3.1/../../../../pic32c/lib/arm/v5te/nofp\libg-musl.a(__fmt_x.o)
 .note.GNU-stack
                0x00000000        0x0 c:/program files/microchip/xc32/v4.35/bin/bin/../../lib/gcc/pic32c/8.3.1/../../../../pic32c/lib/arm/v5te/nofp\libg-musl.a(__pop_int.o)
 .note.GNU-stack
                0x00000000        0x0 c:/program files/microchip/xc32/v4.35/bin/bin/../../lib/gcc/pic32c/8.3.1/../../../../pic32c/lib/arm/v5te/nofp\libg-musl.a(__pop_ptr.o)
 .note.GNU-stack
                0x00000000        0x0 c:/program files/microchip/xc32/v4.35/bin/bin/../../lib/gcc/pic32c/8.3.1/../../../../pic32c/lib/arm/v5te/nofp\libg-musl.a(__printf_core.o)
 .note.GNU-stack
                0x00000000        0x0 c:/program files/microchip/xc32/v4.35/bin/bin/../../lib/gcc/pic32c/8.3.1/../../../../pic32c/lib/arm/v5te/nofp\libg-musl.a(stdin.o)
 .note.GNU-stack
                0x00000000        0x0 c:/program files/microchip/xc32/v4.35/bin/bin/../../lib/gcc/pic32c/8.3.1/../../../../pic32c/lib/arm/v5te/nofp\libg-musl.a(stdout.o)
 .note.GNU-stack
                0x00000000        0x0 c:/program files/microchip/xc32/v4.35/bin/bin/../../lib/gcc/pic32c/8.3.1/../../../../pic32c/lib/arm/v5te/nofp\libg-musl.a(puts.o)
 .note.GNU-stack
                0x00000000        0x0 c:/program files/microchip/xc32/v4.35/bin/bin/../../lib/gcc/pic32c/8.3.1/../../../../pic32c/lib/arm/v5te/nofp\libg-musl.a(setbuf.o)
 .note.GNU-stack
                0x00000000        0x0 c:/program files/microchip/xc32/v4.35/bin/bin/../../lib/gcc/pic32c/8.3.1/../../../../pic32c/lib/arm/v5te/nofp\libg-musl.a(atoi.o)
 .note.GNU-stack
                0x00000000        0x0 c:/program files/microchip/xc32/v4.35/bin/bin/../../lib/gcc/pic32c/8.3.1/../../../../pic32c/lib/arm/v5te/nofp\libg-musl.a(memcpy.o)
 .note.GNU-stack
                0x00000000        0x0 c:/program files/microchip/xc32/v4.35/bin/bin/../../lib/gcc/pic32c/8.3.1/../../../../pic32c/lib/arm/v5te/nofp\libg-musl.a(memmove.o)
 .note.GNU-stack
                0x00000000        0x0 c:/program files/microchip/xc32/v4.35/bin/bin/../../lib/gcc/pic32c/8.3.1/../../../../pic32c/lib/arm/v5te/nofp\libg-musl.a(memset.o)
 .note.GNU-stack
                0x00000000        0x0 c:/program files/microchip/xc32/v4.35/bin/bin/../../lib/gcc/pic32c/8.3.1/../../../../pic32c/lib/arm/v5te/nofp\libg-musl.a(strlen.o)
 .note.GNU-stack
                0x00000000        0x0 c:/program files/microchip/xc32/v4.35/bin/bin/../../lib/gcc/pic32c/8.3.1/../../../../pic32c/lib/arm/v5te/nofp\libg-musl.a(tolower.o)
 .note.GNU-stack
                0x00000000        0x0 c:/program files/microchip/xc32/v4.35/bin/bin/../../lib/gcc/pic32c/8.3.1/../../../../pic32c/lib/arm/v5te/nofp\libg-musl.a(toupper.o)
 .note.GNU-stack
                0x00000000        0x0 c:/program files/microchip/xc32/v4.35/bin/bin/../../lib/gcc/pic32c/8.3.1/../../../../pic32c/lib/arm/v5te/nofp\libg-musl.a(__environ.o)
 .note.GNU-stack
                0x00000000        0x0 c:/program files/microchip/xc32/v4.35/bin/bin/../../lib/gcc/pic32c/8.3.1/../../../../pic32c/lib/arm/v5te/nofp\libg-musl.a(__errno_location.o)
 .note.GNU-stack
                0x00000000        0x0 c:/program files/microchip/xc32/v4.35/bin/bin/../../lib/gcc/pic32c/8.3.1/../../../../pic32c/lib/arm/v5te/nofp\libg-musl.a(__int_vfprintf.o)
 .note.GNU-stack
                0x00000000        0x0 c:/program files/microchip/xc32/v4.35/bin/bin/../../lib/gcc/pic32c/8.3.1/../../../../pic32c/lib/arm/v5te/nofp\libg-musl.a(__int_vsprintf.o)
 .note.GNU-stack
                0x00000000        0x0 c:/program files/microchip/xc32/v4.35/bin/bin/../../lib/gcc/pic32c/8.3.1/../../../../pic32c/lib/arm/v5te/nofp\libg-musl.a(fputs.o)
 .note.GNU-stack
                0x00000000        0x0 c:/program files/microchip/xc32/v4.35/bin/bin/../../lib/gcc/pic32c/8.3.1/../../../../pic32c/lib/arm/v5te/nofp\libg-musl.a(__cvt_u.o)
 .note.GNU-stack
                0x00000000        0x0 c:/program files/microchip/xc32/v4.35/bin/bin/../../lib/gcc/pic32c/8.3.1/../../../../pic32c/lib/arm/v5te/nofp\libg-musl.a(__pop_float.o)
 .note.GNU-stack
                0x00000000        0x0 c:/program files/microchip/xc32/v4.35/bin/bin/../../lib/gcc/pic32c/8.3.1/../../../../pic32c/lib/arm/v5te/nofp\libg-musl.a(__stdio_read.o)
 .note.GNU-stack
                0x00000000        0x0 c:/program files/microchip/xc32/v4.35/bin/bin/../../lib/gcc/pic32c/8.3.1/../../../../pic32c/lib/arm/v5te/nofp\libg-musl.a(__towrite_rw.o)
 .note.GNU-stack
                0x00000000        0x0 c:/program files/microchip/xc32/v4.35/bin/bin/../../lib/gcc/pic32c/8.3.1/../../../../pic32c/lib/arm/v5te/nofp\libg-musl.a(fwrite.o)
 .note.GNU-stack
                0x00000000        0x0 c:/program files/microchip/xc32/v4.35/bin/bin/../../lib/gcc/pic32c/8.3.1/../../../../pic32c/lib/arm/v5te/nofp\libg-musl.a(putc.o)
 .note.GNU-stack
                0x00000000        0x0 c:/program files/microchip/xc32/v4.35/bin/bin/../../lib/gcc/pic32c/8.3.1/../../../../pic32c/lib/arm/v5te/nofp\libg-musl.a(setvbuf.o)
 .note.GNU-stack
                0x00000000        0x0 c:/program files/microchip/xc32/v4.35/bin/bin/../../lib/gcc/pic32c/8.3.1/../../../../pic32c/lib/arm/v5te/nofp\libg-musl.a(readv.o)
 .note.GNU-stack
                0x00000000        0x0 c:/program files/microchip/xc32/v4.35/bin/bin/../../lib/gcc/pic32c/8.3.1/../../../../pic32c/lib/arm/v5te/nofp\libg-musl.a(malloc.o)
 .note.GNU-stack
                0x00000000        0x0 c:/program files/microchip/xc32/v4.35/bin/bin/../../lib/gcc/pic32c/8.3.1/../../../../pic32c/lib/arm/v5te/nofp\libg-musl.a(expand_heap.o)
 .note.GNU-stack
                0x00000000        0x0 c:/program files/microchip/xc32/v4.35/bin/bin/../../lib/gcc/pic32c/8.3.1/../../../../pic32c/lib/arm/v5te/nofp\libg-musl.a(__int_vsnprintf.o)
 .note.GNU-stack
                0x00000000        0x0 c:/program files/microchip/xc32/v4.35/bin/bin/../../lib/gcc/pic32c/8.3.1/../../../../pic32c/lib/arm/v5te/nofp\libg-musl.a(__init_stdio.o)
 .note.GNU-stack
                0x00000000        0x0 c:/program files/microchip/xc32/v4.35/bin/bin/../../lib/gcc/pic32c/8.3.1/../../../../pic32c/lib/arm/v5te/nofp\libg-musl.a(__out.o)
 .note.GNU-stack
                0x00000000        0x0 c:/program files/microchip/xc32/v4.35/bin/bin/../../lib/gcc/pic32c/8.3.1/../../../../pic32c/lib/arm/v5te/nofp\libg-musl.a(__putc.o)
 .note.GNU-stack
                0x00000000        0x0 c:/program files/microchip/xc32/v4.35/bin/bin/../../lib/gcc/pic32c/8.3.1/../../../../pic32c/lib/arm/v5te/nofp\libg-musl.a(__stderr.o)
 .note.GNU-stack
                0x00000000        0x0 c:/program files/microchip/xc32/v4.35/bin/bin/../../lib/gcc/pic32c/8.3.1/../../../../pic32c/lib/arm/v5te/nofp\libg-musl.a(__stdio_close.o)
 .note.GNU-stack
                0x00000000        0x0 c:/program files/microchip/xc32/v4.35/bin/bin/../../lib/gcc/pic32c/8.3.1/../../../../pic32c/lib/arm/v5te/nofp\libg-musl.a(__stdio_write.o)
 .note.GNU-stack
                0x00000000        0x0 c:/program files/microchip/xc32/v4.35/bin/bin/../../lib/gcc/pic32c/8.3.1/../../../../pic32c/lib/arm/v5te/nofp\libg-musl.a(__stdout.o)
 .note.GNU-stack
                0x00000000        0x0 c:/program files/microchip/xc32/v4.35/bin/bin/../../lib/gcc/pic32c/8.3.1/../../../../pic32c/lib/arm/v5te/nofp\libg-musl.a(__towrite.o)
 .note.GNU-stack
                0x00000000        0x0 c:/program files/microchip/xc32/v4.35/bin/bin/../../lib/gcc/pic32c/8.3.1/../../../../pic32c/lib/arm/v5te/nofp\libg-musl.a(writev.o)
 .note.GNU-stack
                0x00000000        0x0 c:/program files/microchip/xc32/v4.35/bin/bin/../../lib/gcc/pic32c/8.3.1/../../../../pic32c/lib/arm/v5te/nofp\libg-musl.a(__overflow.o)
 .note.GNU-stack
                0x00000000        0x0 c:/program files/microchip/xc32/v4.35/bin/bin/../../lib/gcc/pic32c/8.3.1/../../../../pic32c/lib/arm/v5te/nofp\libg-musl.a(__fwrite.o)

__xc_reference_data
                0x00000000       0xfc
 __xc_reference_data
                0x00000000        0x4 c:/program files/microchip/xc32/v4.35/bin/bin/../../lib/gcc/pic32c/8.3.1/../../../../pic32c/lib/arm/v5te/nofp\libg-musl.a(stdin.o)
                0x00000000                __stdin_needs_rw
 __xc_reference_data
                0x00000004        0x4 c:/program files/microchip/xc32/v4.35/bin/bin/../../lib/gcc/pic32c/8.3.1/../../../../pic32c/lib/arm/v5te/nofp\libg-musl.a(stdout.o)
                0x00000004                __stdout_needs_init
 __xc_reference_data
                0x00000008       0x10 c:/program files/microchip/xc32/v4.35/bin/bin/../../lib/gcc/pic32c/8.3.1/../../../../pic32c/lib/arm/v5te/nofp\libg-musl.a(__io_init_needed.o)
                0x00000008                __io_init_needed
                0x00000014                __io_init_needs_file
 __xc_reference_data
                0x00000018       0x30 c:/program files/microchip/xc32/v4.35/bin/bin/../../lib/gcc/pic32c/8.3.1/../../../../pic32c/lib/arm/v5te/nofp\libg-musl.a(__io_rw_needed.o)
                0x00000018                __io_rw_needed
 __xc_reference_data
                0x00000048        0xc c:/program files/microchip/xc32/v4.35/bin/bin/../../lib/gcc/pic32c/8.3.1/../../../../pic32c/lib/arm/v5te/nofp\libg-musl.a(putc.o)
                0x00000048                __putc_needs_out
 __xc_reference_data
                0x00000054        0x4 c:/program files/microchip/xc32/v4.35/bin/bin/../../lib/gcc/pic32c/8.3.1/../../../../pic32c/lib/arm/v5te/nofp\libg-musl.a(setvbuf.o)
                0x00000054                __setvbuf_needs_buf
 __xc_reference_data
                0x00000058       0x4c c:/program files/microchip/xc32/v4.35/bin/bin/../../lib/gcc/pic32c/8.3.1/../../../../pic32c/lib/arm/v5te/nofp\libg-musl.a(__io_buf_needed.o)
                0x00000058                __io_buf_needed
 __xc_reference_data
                0x000000a4        0xc c:/program files/microchip/xc32/v4.35/bin/bin/../../lib/gcc/pic32c/8.3.1/../../../../pic32c/lib/arm/v5te/nofp\libg-musl.a(__io_file_needed.o)
                0x000000a4                __io_file_needed
 __xc_reference_data
                0x000000b0       0x40 c:/program files/microchip/xc32/v4.35/bin/bin/../../lib/gcc/pic32c/8.3.1/../../../../pic32c/lib/arm/v5te/nofp\libg-musl.a(__io_std_needed.o)
                0x000000b0                __io_std_needed
 __xc_reference_data
                0x000000f0        0x4 c:/program files/microchip/xc32/v4.35/bin/bin/../../lib/gcc/pic32c/8.3.1/../../../../pic32c/lib/arm/v5te/nofp\libg-musl.a(__stderr.o)
                0x000000f0                __stderr_needs_file
 __xc_reference_data
                0x000000f4        0x4 c:/program files/microchip/xc32/v4.35/bin/bin/../../lib/gcc/pic32c/8.3.1/../../../../pic32c/lib/arm/v5te/nofp\libg-musl.a(__stdout.o)
                0x000000f4                __stdout_needs_file
 __xc_reference_data
                0x000000f8        0x4 c:/program files/microchip/xc32/v4.35/bin/bin/../../lib/gcc/pic32c/8.3.1/../../../../pic32c/lib/arm/v5te/nofp\libg-musl.a(__fwrite.o)
                0x000000f8                __fwrite_needs_std

.stack          0x24a574c0      0x100
 .stack         0x24a574c0      0x100 stack

.eh_frame%z1    0x00000000        0x0
 .eh_frame      0x00000000        0x0 c:/program files/microchip/xc32/v4.35/bin/bin/../../lib/gcc/pic32c/8.3.1/arm/v5te/nofp/crtbegin.o
